 NeoRealm

 Timestamp is 4cee6019 (Thu Nov 25 14:09:45 2010)

 Preferred load address is 00400000

 Start         Length     Name                   Class
 0001:00000000 00083a62H .text                   CODE
 0001:00083a70 0000b7b1H .text$x                 CODE
 0001:0008f230 000002a5H .text$yc                CODE
 0001:0008f4e0 000001c2H .text$yd                CODE
 0002:00000000 00000664H .idata$5                DATA
 0002:00000664 00000004H .CRT$XCA                DATA
 0002:00000668 00000004H .CRT$XCAA               DATA
 0002:0000066c 00000038H .CRT$XCU                DATA
 0002:000006a4 00000004H .CRT$XCZ                DATA
 0002:000006a8 00000004H .CRT$XIA                DATA
 0002:000006ac 00000004H .CRT$XIAA               DATA
 0002:000006b0 00000004H .CRT$XIY                DATA
 0002:000006b4 00000004H .CRT$XIZ                DATA
 0002:000006c0 00017990H .rdata                  DATA
 0002:00018050 00000040H .rdata$debug            DATA
 0002:00018090 00000cc4H .rdata$r                DATA
 0002:00018d60 00000a10H .rdata$sxdata           DATA
 0002:00019770 00000004H .rtc$IAA                DATA
 0002:00019774 00000058H .rtc$IMZ                DATA
 0002:000197cc 00000004H .rtc$IZZ                DATA
 0002:000197d0 00000004H .rtc$TAA                DATA
 0002:000197d4 00000058H .rtc$TMZ                DATA
 0002:0001982c 00000004H .rtc$TZZ                DATA
 0002:00019830 0000a2dcH .xdata$x                DATA
 0002:00023b0c 000000dcH .idata$2                DATA
 0002:00023be8 00000014H .idata$3                DATA
 0002:00023bfc 00000664H .idata$4                DATA
 0002:00024260 0000321aH .idata$6                DATA
 0002:00027480 000011f7H .edata                  DATA
 0003:00000000 00000710H .data                   DATA
 0003:00000710 000014e4H .bss                    DATA
 0004:00000000 00000100H .rsrc$01                DATA
 0004:00000100 00005158H .rsrc$02                DATA

  Address         Publics by Value              Rva+Base       Lib:Object

 0000:00000000       __except_list              00000000     <absolute>
 0000:00000284       ___safe_se_handler_count   00000284     <absolute>
 0000:00009876       __ldused                   00009876     <absolute>
 0000:00009876       __fltused                  00009876     <absolute>
 0000:00000000       ___ImageBase               00400000     <linker-defined>
 0001:00000000       ??0QueryResult@@QAE@_KI@Z  00401000 f i AuthSocket.obj
 0001:00000040       ??1QueryResult@@UAE@XZ     00401040 f i AuthSocket.obj
 0001:00000060       ?Fetch@QueryResult@@QBEPAVField@@XZ 00401060 f i AuthSocket.obj
 0001:00000080       ??AQueryResult@@QBEABVField@@H@Z 00401080 f i AuthSocket.obj
 0001:000000a0       ?GetFieldCount@QueryResult@@QBEIXZ 004010a0 f i AuthSocket.obj
 0001:000000c0       ?GetRowCount@QueryResult@@QBE_KXZ 004010c0 f i AuthSocket.obj
 0001:000000e0       ??0QueryResult@@QAE@ABV0@@Z 004010e0 f i AuthSocket.obj
 0001:00000130       ??4QueryResult@@QAEAAV0@ABV0@@Z 00401130 f i AuthSocket.obj
 0001:00000180       ??_GQueryResult@@UAEPAXI@Z 00401180 f i AuthSocket.obj
 0001:000001c0       ??_EQueryResult@@UAEPAXI@Z 004011c0 f i AuthSocket.obj
 0001:00000240       ??0QueryNamedResult@@QAE@PAVQueryResult@@ABV?$vector@V?$basic_string@DU?$char_traits@D@std@@V?$allocator@D@2@@std@@V?$allocator@V?$basic_string@DU?$char_traits@D@std@@V?$allocator@D@2@@std@@@2@@std@@@Z 00401240 f i AuthSocket.obj
 0001:00000280       ??1QueryNamedResult@@QAE@XZ 00401280 f i AuthSocket.obj
 0001:00000330       ?NextRow@QueryNamedResult@@QAE_NXZ 00401330 f i AuthSocket.obj
 0001:00000370       ?Fetch@QueryNamedResult@@QBEPAVField@@XZ 00401370 f i AuthSocket.obj
 0001:000003a0       ?GetFieldCount@QueryNamedResult@@QBEIXZ 004013a0 f i AuthSocket.obj
 0001:000003d0       ?GetRowCount@QueryNamedResult@@QBE_KXZ 004013d0 f i AuthSocket.obj
 0001:00000400       ??AQueryNamedResult@@QBEABVField@@H@Z 00401400 f i AuthSocket.obj
 0001:00000430       ??AQueryNamedResult@@QBEABVField@@ABV?$basic_string@DU?$char_traits@D@std@@V?$allocator@D@2@@std@@@Z 00401430 f i AuthSocket.obj
 0001:00000470       ?GetFieldNames@QueryNamedResult@@QBEABV?$vector@V?$basic_string@DU?$char_traits@D@std@@V?$allocator@D@2@@std@@V?$allocator@V?$basic_string@DU?$char_traits@D@std@@V?$allocator@D@2@@std@@@2@@std@@XZ 00401470 f i AuthSocket.obj
 0001:00000490       ?GetField_idx@QueryNamedResult@@QBEIABV?$basic_string@DU?$char_traits@D@std@@V?$allocator@D@2@@std@@@Z 00401490 f i AuthSocket.obj
 0001:00000590       ??0QueryNamedResult@@QAE@ABV0@@Z 00401590 f i AuthSocket.obj
 0001:000005d0       ??4QueryNamedResult@@QAEAAV0@ABV0@@Z 004015d0 f i AuthSocket.obj
 0001:00000610       ??0Database@@IAE@XZ        00401610 f i AuthSocket.obj
 0001:000006e0       ?BeginTransaction@Database@@UAE_NXZ 004016e0 f i AuthSocket.obj
 0001:00000700       ?CommitTransaction@Database@@UAE_NXZ 00401700 f i AuthSocket.obj
 0001:00000720       ?RollbackTransaction@Database@@UAE_NXZ 00401720 f i AuthSocket.obj
 0001:00000740       ?escape_string@Database@@UAEKPADPBDK@Z 00401740 f i AuthSocket.obj
 0001:00000790       ??0Database@@QAE@ABV0@@Z   00401790 f i AuthSocket.obj
 0001:00000880       ??4Database@@QAEAAV0@ABV0@@Z 00401880 f i AuthSocket.obj
 0001:00000920       ??_GDatabase@@UAEPAXI@Z    00401920 f i AuthSocket.obj
 0001:00000960       ??_EDatabase@@UAEPAXI@Z    00401960 f i AuthSocket.obj
 0001:000009e0       ??1?$unordered_map@PAVThread@ACE_Based@@PAVSqlTransaction@@V?$hash@PAVThread@ACE_Based@@@tr1@std@@U?$equal_to@PAVThread@ACE_Based@@@6@V?$allocator@U?$pair@QAVThread@ACE_Based@@PAVSqlTransaction@@@std@@@6@@tr1@std@@QAE@XZ 004019e0 f i AuthSocket.obj
 0001:00000a10       ??1?$unordered_map@PAVThread@ACE_Based@@PAVSqlResultQueue@@V?$hash@PAVThread@ACE_Based@@@tr1@std@@U?$equal_to@PAVThread@ACE_Based@@@6@V?$allocator@U?$pair@QAVThread@ACE_Based@@PAVSqlResultQueue@@@std@@@6@@tr1@std@@QAE@XZ 00401a10 f i AuthSocket.obj
 0001:00000a40       ??0?$unordered_map@PAVThread@ACE_Based@@PAVSqlTransaction@@V?$hash@PAVThread@ACE_Based@@@tr1@std@@U?$equal_to@PAVThread@ACE_Based@@@6@V?$allocator@U?$pair@QAVThread@ACE_Based@@PAVSqlTransaction@@@std@@@6@@tr1@std@@QAE@ABV012@@Z 00401a40 f i AuthSocket.obj
 0001:00000a70       ??0?$unordered_map@PAVThread@ACE_Based@@PAVSqlResultQueue@@V?$hash@PAVThread@ACE_Based@@@tr1@std@@U?$equal_to@PAVThread@ACE_Based@@@6@V?$allocator@U?$pair@QAVThread@ACE_Based@@PAVSqlResultQueue@@@std@@@6@@tr1@std@@QAE@ABV012@@Z 00401a70 f i AuthSocket.obj
 0001:00000aa0       ??4?$unordered_map@PAVThread@ACE_Based@@PAVSqlTransaction@@V?$hash@PAVThread@ACE_Based@@@tr1@std@@U?$equal_to@PAVThread@ACE_Based@@@6@V?$allocator@U?$pair@QAVThread@ACE_Based@@PAVSqlTransaction@@@std@@@6@@tr1@std@@QAEAAV012@ABV012@@Z 00401aa0 f i AuthSocket.obj
 0001:00000ad0       ??4?$unordered_map@PAVThread@ACE_Based@@PAVSqlResultQueue@@V?$hash@PAVThread@ACE_Based@@@tr1@std@@U?$equal_to@PAVThread@ACE_Based@@@6@V?$allocator@U?$pair@QAVThread@ACE_Based@@PAVSqlResultQueue@@@std@@@6@@tr1@std@@QAEAAV012@ABV012@@Z 00401ad0 f i AuthSocket.obj
 0001:00000b00       ??BDatabaseMysql@@UBE_NXZ  00401b00 f i AuthSocket.obj
 0001:00000b30       ?GetFilename@Config@@QBE?AV?$basic_string@DU?$char_traits@D@std@@V?$allocator@D@2@@std@@XZ 00401b30 f i AuthSocket.obj
 0001:00000b90       ??0Config@@QAE@ABV0@@Z     00401b90 f i AuthSocket.obj
 0001:00000bf0       ??4Config@@QAEAAV0@ABV0@@Z 00401bf0 f i AuthSocket.obj
 0001:00000c50       ??0AuthSocket@@QAE@AAVISocketHandler@@@Z 00401c50 f   AuthSocket.obj
 0001:00000e40       ?Create@Socket@@UAEPAV1@XZ 00401e40 f i AuthSocket.obj
 0001:00000e60       ??_GAuthSocket@@UAEPAXI@Z  00401e60 f i AuthSocket.obj
 0001:00000e60       ??_EAuthSocket@@UAEPAXI@Z  00401e60 f i AuthSocket.obj
 0001:00000ea0       ??1AuthSocket@@UAE@XZ      00401ea0 f   AuthSocket.obj
 0001:00001090       ?OnAccept@AuthSocket@@UAEXXZ 00402090 f   AuthSocket.obj
 0001:00001160       ?OnRead@AuthSocket@@UAEXXZ 00402160 f   AuthSocket.obj
 0001:00001300       ?_SetVSFields@AuthSocket@@QAEXABV?$basic_string@DU?$char_traits@D@std@@V?$allocator@D@2@@std@@@Z 00402300 f   AuthSocket.obj
 0001:000015f0       ?GetDigest@Sha1Hash@@QAEPAEXZ 004025f0 f i AuthSocket.obj
 0001:00001610       ?GetLength@Sha1Hash@@QAEHXZ 00402610 f i AuthSocket.obj
 0001:00001630       ?_HandleLogonChallenge@AuthSocket@@QAE_NXZ 00402630 f   AuthSocket.obj
 0001:00002b40       ?GetString@Field@@QBEPBDXZ 00403b40 f i AuthSocket.obj
 0001:00002b60       ?GetCppString@Field@@QBE?AV?$basic_string@DU?$char_traits@D@std@@V?$allocator@D@2@@std@@XZ 00403b60 f i AuthSocket.obj
 0001:00002be0       ?GetUInt8@Field@@QBEEXZ    00403be0 f i AuthSocket.obj
 0001:00002c40       ?GetInt16@Field@@QBEFXZ    00403c40 f i AuthSocket.obj
 0001:00002ca0       ?GetUInt32@Field@@QBEIXZ   00403ca0 f i AuthSocket.obj
 0001:00002d00       ?GetUInt64@Field@@QBE_KXZ  00403d00 f i AuthSocket.obj
 0001:00002da0       ??0ByteBuffer@@QAE@XZ      00403da0 f i AuthSocket.obj
 0001:00002e30       ??6ByteBuffer@@QAEAAV0@E@Z 00403e30 f i AuthSocket.obj
 0001:00002e60       ?contents@ByteBuffer@@QBEPBEXZ 00403e60 f i AuthSocket.obj
 0001:00002e90       ?size@ByteBuffer@@QBEIXZ   00403e90 f i AuthSocket.obj
 0001:00002ec0       ?append@ByteBuffer@@QAEXPBEI@Z 00403ec0 f i AuthSocket.obj
 0001:00002fd0       ??HBigNumber@@QAE?AV0@ABV0@@Z 00403fd0 f i AuthSocket.obj
 0001:000030a0       ??DBigNumber@@QAE?AV0@ABV0@@Z 004040a0 f i AuthSocket.obj
 0001:00003170       ??LBigNumber@@QAE?AV0@ABV0@@Z 00404170 f i AuthSocket.obj
 0001:00003240       ??1ByteBuffer@@QAE@XZ      00404240 f i AuthSocket.obj
 0001:00003270       ?_HandleLogonProof@AuthSocket@@QAE_NXZ 00404270 f   AuthSocket.obj
 0001:000042b0       ?_HandleReconnectChallenge@AuthSocket@@QAE_NXZ 004052b0 f   AuthSocket.obj
 0001:000046f0       ??6ByteBuffer@@QAEAAV0@_K@Z 004056f0 f i AuthSocket.obj
 0001:00004730       ?append@ByteBuffer@@QAEXABV1@@Z 00405730 f i AuthSocket.obj
 0001:00004780       ?wpos@ByteBuffer@@QBEIXZ   00405780 f i AuthSocket.obj
 0001:000047a0       ?_HandleReconnectProof@AuthSocket@@QAE_NXZ 004057a0 f   AuthSocket.obj
 0001:00004ad0       ??6ByteBuffer@@QAEAAV0@G@Z 00405ad0 f i AuthSocket.obj
 0001:00004b00       ?_HandleRealmList@AuthSocket@@QAE_NXZ 00405b00 f   AuthSocket.obj
 0001:00005100       ??6ByteBuffer@@QAEAAV0@I@Z 00406100 f i AuthSocket.obj
 0001:00005130       ??6ByteBuffer@@QAEAAV0@M@Z 00406130 f i AuthSocket.obj
 0001:00005160       ??6ByteBuffer@@QAEAAV0@ABV?$basic_string@DU?$char_traits@D@std@@V?$allocator@D@2@@std@@@Z 00406160 f i AuthSocket.obj
 0001:000051c0       ?begin@RealmList@@QBE?AVconst_iterator@?$_Tree@V?$_Tmap_traits@V?$basic_string@DU?$char_traits@D@std@@V?$allocator@D@2@@std@@URealm@@U?$less@V?$basic_string@DU?$char_traits@D@std@@V?$allocator@D@2@@std@@@2@V?$allocator@U?$pair@$$CBV?$basic_string@DU?$char_traits@D@std@@V?$allocator@D@2@@std@@URealm@@@std@@@2@$0A@@std@@@std@@XZ 004061c0 f i AuthSocket.obj
 0001:00005210       ?end@RealmList@@QBE?AVconst_iterator@?$_Tree@V?$_Tmap_traits@V?$basic_string@DU?$char_traits@D@std@@V?$allocator@D@2@@std@@URealm@@U?$less@V?$basic_string@DU?$char_traits@D@std@@V?$allocator@D@2@@std@@@2@V?$allocator@U?$pair@$$CBV?$basic_string@DU?$char_traits@D@std@@V?$allocator@D@2@@std@@URealm@@@std@@@2@$0A@@std@@@std@@XZ 00406210 f i AuthSocket.obj
 0001:00005260       ?size@RealmList@@QBEIXZ    00406260 f i AuthSocket.obj
 0001:00005290       ??1const_iterator@?$_Tree@V?$_Tmap_traits@V?$basic_string@DU?$char_traits@D@std@@V?$allocator@D@2@@std@@URealm@@U?$less@V?$basic_string@DU?$char_traits@D@std@@V?$allocator@D@2@@std@@@2@V?$allocator@U?$pair@$$CBV?$basic_string@DU?$char_traits@D@std@@V?$allocator@D@2@@std@@URealm@@@std@@@2@$0A@@std@@@std@@QAE@XZ 00406290 f i AuthSocket.obj
 0001:000052c0       ??1?$_Bidit@U?$pair@$$CBV?$basic_string@DU?$char_traits@D@std@@V?$allocator@D@2@@std@@URealm@@@std@@HPBU12@ABU12@@std@@QAE@XZ 004062c0 f i AuthSocket.obj
 0001:000052f0       ??1?$_Iterator_with_base@Ubidirectional_iterator_tag@std@@U?$pair@$$CBV?$basic_string@DU?$char_traits@D@std@@V?$allocator@D@2@@std@@URealm@@@2@HPBU32@ABU32@V_Iterator_base@2@@std@@QAE@XZ 004062f0 f i AuthSocket.obj
 0001:00005320       ??1_Iterator_base@std@@QAE@XZ 00406320 f i AuthSocket.obj
 0001:000053e0       ?_Orphan_me@_Iterator_base@std@@QAEXXZ 004063e0 f i AuthSocket.obj
 0001:00005480       ??4const_iterator@?$_Tree@V?$_Tmap_traits@V?$basic_string@DU?$char_traits@D@std@@V?$allocator@D@2@@std@@URealm@@U?$less@V?$basic_string@DU?$char_traits@D@std@@V?$allocator@D@2@@std@@@2@V?$allocator@U?$pair@$$CBV?$basic_string@DU?$char_traits@D@std@@V?$allocator@D@2@@std@@URealm@@@std@@@2@$0A@@std@@@std@@QAEAAV012@ABV012@@Z 00406480 f i AuthSocket.obj
 0001:000054c0       ??4?$_Bidit@U?$pair@$$CBV?$basic_string@DU?$char_traits@D@std@@V?$allocator@D@2@@std@@URealm@@@std@@HPBU12@ABU12@@std@@QAEAAU01@ABU01@@Z 004064c0 f i AuthSocket.obj
 0001:000054f0       ??4?$_Iterator_with_base@Ubidirectional_iterator_tag@std@@U?$pair@$$CBV?$basic_string@DU?$char_traits@D@std@@V?$allocator@D@2@@std@@URealm@@@2@HPBU32@ABU32@V_Iterator_base@2@@std@@QAEAAU01@ABU01@@Z 004064f0 f i AuthSocket.obj
 0001:00005520       ??4_Iterator_base@std@@QAEAAV01@ABV01@@Z 00406520 f i AuthSocket.obj
 0001:00005600       ?_Adopt@_Iterator_base@std@@QAEXPBV_Container_base_secure@2@@Z 00406600 f i AuthSocket.obj
 0001:00005700       ?_HandleXferResume@AuthSocket@@QAE_NXZ 00406700 f   AuthSocket.obj
 0001:00005880       ?_HandleXferCancel@AuthSocket@@QAE_NXZ 00406880 f   AuthSocket.obj
 0001:000058d0       ?_HandleXferAccept@AuthSocket@@QAE_NXZ 004068d0 f   AuthSocket.obj
 0001:00005a20       ?IsLag@AuthSocket@@QAE_NXZ 00406a20 f   AuthSocket.obj
 0001:00005a60       ??0PatcherRunnable@@QAE@PAVAuthSocket@@@Z 00406a60 f   AuthSocket.obj
 0001:00005aa0       ??_EPatcherRunnable@@UAEPAXI@Z 00406aa0 f i AuthSocket.obj
 0001:00005aa0       ??_GPatcherRunnable@@UAEPAXI@Z 00406aa0 f i AuthSocket.obj
 0001:00005ae0       ??0Runnable@ACE_Based@@QAE@XZ 00406ae0 f i AuthSocket.obj
 0001:00005b20       ??_ERunnable@ACE_Based@@UAEPAXI@Z 00406b20 f i AuthSocket.obj
 0001:00005b20       ??_GRunnable@ACE_Based@@UAEPAXI@Z 00406b20 f i AuthSocket.obj
 0001:00005b60       ??1Runnable@ACE_Based@@UAE@XZ 00406b60 f i AuthSocket.obj
 0001:00005b80       ??1PatcherRunnable@@UAE@XZ 00406b80 f i AuthSocket.obj
 0001:00005bb0       ?run@PatcherRunnable@@UAEXXZ 00406bb0 f   AuthSocket.obj
 0001:00005d90       ?LoadPatchesInfo@Patcher@@AAEXXZ 00406d90 f   AuthSocket.obj
 0001:00005e60       ?LoadPatchMD5@Patcher@@QAEXPAD@Z 00406e60 f   AuthSocket.obj
 0001:00006100       ?GetHash@Patcher@@QAE_NPADQAE@Z 00407100 f   AuthSocket.obj
 0001:00006270       ??1iterator@?$_Tree@V?$_Tmap_traits@V?$basic_string@DU?$char_traits@D@std@@V?$allocator@D@2@@std@@PAUPATCH_INFO@@U?$less@V?$basic_string@DU?$char_traits@D@std@@V?$allocator@D@2@@std@@@2@V?$allocator@U?$pair@$$CBV?$basic_string@DU?$char_traits@D@std@@V?$allocator@D@2@@std@@PAUPATCH_INFO@@@std@@@2@$0A@@std@@@std@@QAE@XZ 00407270 f i AuthSocket.obj
 0001:000062a0       ??1const_iterator@?$_Tree@V?$_Tmap_traits@V?$basic_string@DU?$char_traits@D@std@@V?$allocator@D@2@@std@@PAUPATCH_INFO@@U?$less@V?$basic_string@DU?$char_traits@D@std@@V?$allocator@D@2@@std@@@2@V?$allocator@U?$pair@$$CBV?$basic_string@DU?$char_traits@D@std@@V?$allocator@D@2@@std@@PAUPATCH_INFO@@@std@@@2@$0A@@std@@@std@@QAE@XZ 004072a0 f i AuthSocket.obj
 0001:000062d0       ??1?$_Bidit@U?$pair@$$CBV?$basic_string@DU?$char_traits@D@std@@V?$allocator@D@2@@std@@PAUPATCH_INFO@@@std@@HPBU12@ABU12@@std@@QAE@XZ 004072d0 f i AuthSocket.obj
 0001:00006300       ??1?$_Iterator_with_base@Ubidirectional_iterator_tag@std@@U?$pair@$$CBV?$basic_string@DU?$char_traits@D@std@@V?$allocator@D@2@@std@@PAUPATCH_INFO@@@2@HPBU32@ABU32@V_Iterator_base@2@@std@@QAE@XZ 00407300 f i AuthSocket.obj
 0001:00006330       ??0Patcher@@QAE@XZ         00407330 f   AuthSocket.obj
 0001:000063a0       ??1?$map@V?$basic_string@DU?$char_traits@D@std@@V?$allocator@D@2@@std@@PAUPATCH_INFO@@U?$less@V?$basic_string@DU?$char_traits@D@std@@V?$allocator@D@2@@std@@@2@V?$allocator@U?$pair@$$CBV?$basic_string@DU?$char_traits@D@std@@V?$allocator@D@2@@std@@PAUPATCH_INFO@@@std@@@2@@std@@QAE@XZ 004073a0 f i AuthSocket.obj
 0001:000063d0       ??1Patcher@@QAE@XZ         004073d0 f   AuthSocket.obj
 0001:000064f0       ??0_Has_debug_it@?$basic_string@DU?$char_traits@D@std@@V?$allocator@D@2@@std@@QAE@_N@Z 004074f0 f i AuthSocket.obj
 0001:00006510       ??0?$vector@V?$basic_string@DU?$char_traits@D@std@@V?$allocator@D@2@@std@@V?$allocator@V?$basic_string@DU?$char_traits@D@std@@V?$allocator@D@2@@std@@@2@@std@@QAE@ABV01@@Z 00407510 f i AuthSocket.obj
 0001:00006640       ??1?$vector@V?$basic_string@DU?$char_traits@D@std@@V?$allocator@D@2@@std@@V?$allocator@V?$basic_string@DU?$char_traits@D@std@@V?$allocator@D@2@@std@@@2@@std@@QAE@XZ 00407640 f i AuthSocket.obj
 0001:000066b0       ??4?$vector@V?$basic_string@DU?$char_traits@D@std@@V?$allocator@D@2@@std@@V?$allocator@V?$basic_string@DU?$char_traits@D@std@@V?$allocator@D@2@@std@@@2@@std@@QAEAAV01@ABV01@@Z 004076b0 f i AuthSocket.obj
 0001:00006870       ?size@?$vector@V?$basic_string@DU?$char_traits@D@std@@V?$allocator@D@2@@std@@V?$allocator@V?$basic_string@DU?$char_traits@D@std@@V?$allocator@D@2@@std@@@2@@std@@QBEIXZ 00407870 f i AuthSocket.obj
 0001:000068a0       ??A?$vector@V?$basic_string@DU?$char_traits@D@std@@V?$allocator@D@2@@std@@V?$allocator@V?$basic_string@DU?$char_traits@D@std@@V?$allocator@D@2@@std@@@2@@std@@QBEABV?$basic_string@DU?$char_traits@D@std@@V?$allocator@D@2@@1@I@Z 004078a0 f i AuthSocket.obj
 0001:000069c0       ??0?$unordered_map@PAVThread@ACE_Based@@PAVSqlTransaction@@V?$hash@PAVThread@ACE_Based@@@tr1@std@@U?$equal_to@PAVThread@ACE_Based@@@6@V?$allocator@U?$pair@QAVThread@ACE_Based@@PAVSqlTransaction@@@std@@@6@@tr1@std@@QAE@XZ 004079c0 f i AuthSocket.obj
 0001:00006a10       ??0?$_Hash@V?$_Umap_traits@PAVThread@ACE_Based@@PAVSqlTransaction@@V?$_Hash_compare@PAVThread@ACE_Based@@V?$hash@PAVThread@ACE_Based@@@tr1@std@@U?$equal_to@PAVThread@ACE_Based@@@5@@stdext@@V?$allocator@U?$pair@QAVThread@ACE_Based@@PAVSqlTransaction@@@std@@@std@@$0A@@tr1@std@@@stdext@@QAE@ABV01@@Z 00407a10 f i AuthSocket.obj
 0001:00006ae0       ??1?$_Hash@V?$_Umap_traits@PAVThread@ACE_Based@@PAVSqlTransaction@@V?$_Hash_compare@PAVThread@ACE_Based@@V?$hash@PAVThread@ACE_Based@@@tr1@std@@U?$equal_to@PAVThread@ACE_Based@@@5@@stdext@@V?$allocator@U?$pair@QAVThread@ACE_Based@@PAVSqlTransaction@@@std@@@std@@$0A@@tr1@std@@@stdext@@QAE@XZ 00407ae0 f i AuthSocket.obj
 0001:00006b60       ??4?$_Hash@V?$_Umap_traits@PAVThread@ACE_Based@@PAVSqlTransaction@@V?$_Hash_compare@PAVThread@ACE_Based@@V?$hash@PAVThread@ACE_Based@@@tr1@std@@U?$equal_to@PAVThread@ACE_Based@@@5@@stdext@@V?$allocator@U?$pair@QAVThread@ACE_Based@@PAVSqlTransaction@@@std@@@std@@$0A@@tr1@std@@@stdext@@QAEAAV01@ABV01@@Z 00407b60 f i AuthSocket.obj
 0001:00006ba0       ??0?$unordered_map@PAVThread@ACE_Based@@PAVSqlResultQueue@@V?$hash@PAVThread@ACE_Based@@@tr1@std@@U?$equal_to@PAVThread@ACE_Based@@@6@V?$allocator@U?$pair@QAVThread@ACE_Based@@PAVSqlResultQueue@@@std@@@6@@tr1@std@@QAE@XZ 00407ba0 f i AuthSocket.obj
 0001:00006bf0       ??0?$_Hash@V?$_Umap_traits@PAVThread@ACE_Based@@PAVSqlResultQueue@@V?$_Hash_compare@PAVThread@ACE_Based@@V?$hash@PAVThread@ACE_Based@@@tr1@std@@U?$equal_to@PAVThread@ACE_Based@@@5@@stdext@@V?$allocator@U?$pair@QAVThread@ACE_Based@@PAVSqlResultQueue@@@std@@@std@@$0A@@tr1@std@@@stdext@@QAE@ABV01@@Z 00407bf0 f i AuthSocket.obj
 0001:00006cc0       ??1?$_Hash@V?$_Umap_traits@PAVThread@ACE_Based@@PAVSqlResultQueue@@V?$_Hash_compare@PAVThread@ACE_Based@@V?$hash@PAVThread@ACE_Based@@@tr1@std@@U?$equal_to@PAVThread@ACE_Based@@@5@@stdext@@V?$allocator@U?$pair@QAVThread@ACE_Based@@PAVSqlResultQueue@@@std@@@std@@$0A@@tr1@std@@@stdext@@QAE@XZ 00407cc0 f i AuthSocket.obj
 0001:00006d40       ??4?$_Hash@V?$_Umap_traits@PAVThread@ACE_Based@@PAVSqlResultQueue@@V?$_Hash_compare@PAVThread@ACE_Based@@V?$hash@PAVThread@ACE_Based@@@tr1@std@@U?$equal_to@PAVThread@ACE_Based@@@5@@stdext@@V?$allocator@U?$pair@QAVThread@ACE_Based@@PAVSqlResultQueue@@@std@@@std@@$0A@@tr1@std@@@stdext@@QAEAAV01@ABV01@@Z 00407d40 f i AuthSocket.obj
 0001:00006d80       ??0?$vector@EV?$allocator@E@std@@@std@@QAE@XZ 00407d80 f i AuthSocket.obj
 0001:00006e00       ??1?$vector@EV?$allocator@E@std@@@std@@QAE@XZ 00407e00 f i AuthSocket.obj
 0001:00006e70       ?reserve@?$vector@EV?$allocator@E@std@@@std@@QAEXI@Z 00407e70 f i AuthSocket.obj
 0001:00007010       ?resize@?$vector@EV?$allocator@E@std@@@std@@QAEXI@Z 00408010 f i AuthSocket.obj
 0001:00007040       ?size@?$vector@EV?$allocator@E@std@@@std@@QBEIXZ 00408040 f i AuthSocket.obj
 0001:00007060       ??A?$vector@EV?$allocator@E@std@@@std@@QBEABEI@Z 00408060 f i AuthSocket.obj
 0001:00007180       ??A?$vector@EV?$allocator@E@std@@@std@@QAEAAEI@Z 00408180 f i AuthSocket.obj
 0001:000072a0       ?begin@?$_Tree@V?$_Tmap_traits@V?$basic_string@DU?$char_traits@D@std@@V?$allocator@D@2@@std@@URealm@@U?$less@V?$basic_string@DU?$char_traits@D@std@@V?$allocator@D@2@@std@@@2@V?$allocator@U?$pair@$$CBV?$basic_string@DU?$char_traits@D@std@@V?$allocator@D@2@@std@@URealm@@@std@@@2@$0A@@std@@@std@@QBE?AVconst_iterator@12@XZ 004082a0 f i AuthSocket.obj
 0001:00007300       ?end@?$_Tree@V?$_Tmap_traits@V?$basic_string@DU?$char_traits@D@std@@V?$allocator@D@2@@std@@URealm@@U?$less@V?$basic_string@DU?$char_traits@D@std@@V?$allocator@D@2@@std@@@2@V?$allocator@U?$pair@$$CBV?$basic_string@DU?$char_traits@D@std@@V?$allocator@D@2@@std@@URealm@@@std@@@2@$0A@@std@@@std@@QBE?AVconst_iterator@12@XZ 00408300 f i AuthSocket.obj
 0001:00007350       ?size@?$_Tree@V?$_Tmap_traits@V?$basic_string@DU?$char_traits@D@std@@V?$allocator@D@2@@std@@URealm@@U?$less@V?$basic_string@DU?$char_traits@D@std@@V?$allocator@D@2@@std@@@2@V?$allocator@U?$pair@$$CBV?$basic_string@DU?$char_traits@D@std@@V?$allocator@D@2@@std@@URealm@@@std@@@2@$0A@@std@@@std@@QBEIXZ 00408350 f i AuthSocket.obj
 0001:00007370       ??0const_iterator@?$_Tree@V?$_Tmap_traits@V?$basic_string@DU?$char_traits@D@std@@V?$allocator@D@2@@std@@URealm@@U?$less@V?$basic_string@DU?$char_traits@D@std@@V?$allocator@D@2@@std@@@2@V?$allocator@U?$pair@$$CBV?$basic_string@DU?$char_traits@D@std@@V?$allocator@D@2@@std@@URealm@@@std@@@2@$0A@@std@@@std@@QAE@XZ 00408370 f i AuthSocket.obj
 0001:000073b0       ??Cconst_iterator@?$_Tree@V?$_Tmap_traits@V?$basic_string@DU?$char_traits@D@std@@V?$allocator@D@2@@std@@URealm@@U?$less@V?$basic_string@DU?$char_traits@D@std@@V?$allocator@D@2@@std@@@2@V?$allocator@U?$pair@$$CBV?$basic_string@DU?$char_traits@D@std@@V?$allocator@D@2@@std@@URealm@@@std@@@2@$0A@@std@@@std@@QBEPBU?$pair@$$CBV?$basic_string@DU?$char_traits@D@std@@V?$allocator@D@2@@std@@URealm@@@2@XZ 004083b0 f i AuthSocket.obj
 0001:000073e0       ??Econst_iterator@?$_Tree@V?$_Tmap_traits@V?$basic_string@DU?$char_traits@D@std@@V?$allocator@D@2@@std@@URealm@@U?$less@V?$basic_string@DU?$char_traits@D@std@@V?$allocator@D@2@@std@@@2@V?$allocator@U?$pair@$$CBV?$basic_string@DU?$char_traits@D@std@@V?$allocator@D@2@@std@@URealm@@@std@@@2@$0A@@std@@@std@@QAE?AV012@H@Z 004083e0 f i AuthSocket.obj
 0001:000074b0       ??9const_iterator@?$_Tree@V?$_Tmap_traits@V?$basic_string@DU?$char_traits@D@std@@V?$allocator@D@2@@std@@URealm@@U?$less@V?$basic_string@DU?$char_traits@D@std@@V?$allocator@D@2@@std@@@2@V?$allocator@U?$pair@$$CBV?$basic_string@DU?$char_traits@D@std@@V?$allocator@D@2@@std@@URealm@@@std@@@2@$0A@@std@@@std@@QBE_NABV012@@Z 004084b0 f i AuthSocket.obj
 0001:000074f0       ??0?$map@V?$basic_string@DU?$char_traits@D@std@@V?$allocator@D@2@@std@@PAUPATCH_INFO@@U?$less@V?$basic_string@DU?$char_traits@D@std@@V?$allocator@D@2@@std@@@2@V?$allocator@U?$pair@$$CBV?$basic_string@DU?$char_traits@D@std@@V?$allocator@D@2@@std@@PAUPATCH_INFO@@@std@@@2@@std@@QAE@XZ 004084f0 f i AuthSocket.obj
 0001:00007530       ??A?$map@V?$basic_string@DU?$char_traits@D@std@@V?$allocator@D@2@@std@@PAUPATCH_INFO@@U?$less@V?$basic_string@DU?$char_traits@D@std@@V?$allocator@D@2@@std@@@2@V?$allocator@U?$pair@$$CBV?$basic_string@DU?$char_traits@D@std@@V?$allocator@D@2@@std@@PAUPATCH_INFO@@@std@@@2@@std@@QAEAAPAUPATCH_INFO@@ABV?$basic_string@DU?$char_traits@D@std@@V?$allocator@D@2@@1@@Z 00408530 f i AuthSocket.obj
 0001:00007730       ??1?$_Tree@V?$_Tmap_traits@V?$basic_string@DU?$char_traits@D@std@@V?$allocator@D@2@@std@@PAUPATCH_INFO@@U?$less@V?$basic_string@DU?$char_traits@D@std@@V?$allocator@D@2@@std@@@2@V?$allocator@U?$pair@$$CBV?$basic_string@DU?$char_traits@D@std@@V?$allocator@D@2@@std@@PAUPATCH_INFO@@@std@@@2@$0A@@std@@@std@@QAE@XZ 00408730 f i AuthSocket.obj
 0001:000077a0       ?begin@?$_Tree@V?$_Tmap_traits@V?$basic_string@DU?$char_traits@D@std@@V?$allocator@D@2@@std@@PAUPATCH_INFO@@U?$less@V?$basic_string@DU?$char_traits@D@std@@V?$allocator@D@2@@std@@@2@V?$allocator@U?$pair@$$CBV?$basic_string@DU?$char_traits@D@std@@V?$allocator@D@2@@std@@PAUPATCH_INFO@@@std@@@2@$0A@@std@@@std@@QAE?AViterator@12@XZ 004087a0 f i AuthSocket.obj
 0001:00007800       ?end@?$_Tree@V?$_Tmap_traits@V?$basic_string@DU?$char_traits@D@std@@V?$allocator@D@2@@std@@PAUPATCH_INFO@@U?$less@V?$basic_string@DU?$char_traits@D@std@@V?$allocator@D@2@@std@@@2@V?$allocator@U?$pair@$$CBV?$basic_string@DU?$char_traits@D@std@@V?$allocator@D@2@@std@@PAUPATCH_INFO@@@std@@@2@$0A@@std@@@std@@QAE?AViterator@12@XZ 00408800 f i AuthSocket.obj
 0001:00007850       ??9const_iterator@?$_Tree@V?$_Tmap_traits@V?$basic_string@DU?$char_traits@D@std@@V?$allocator@D@2@@std@@PAUPATCH_INFO@@U?$less@V?$basic_string@DU?$char_traits@D@std@@V?$allocator@D@2@@std@@@2@V?$allocator@U?$pair@$$CBV?$basic_string@DU?$char_traits@D@std@@V?$allocator@D@2@@std@@PAUPATCH_INFO@@@std@@@2@$0A@@std@@@std@@QBE_NABV012@@Z 00408850 f i AuthSocket.obj
 0001:00007890       ??Citerator@?$_Tree@V?$_Tmap_traits@V?$basic_string@DU?$char_traits@D@std@@V?$allocator@D@2@@std@@PAUPATCH_INFO@@U?$less@V?$basic_string@DU?$char_traits@D@std@@V?$allocator@D@2@@std@@@2@V?$allocator@U?$pair@$$CBV?$basic_string@DU?$char_traits@D@std@@V?$allocator@D@2@@std@@PAUPATCH_INFO@@@std@@@2@$0A@@std@@@std@@QBEPAU?$pair@$$CBV?$basic_string@DU?$char_traits@D@std@@V?$allocator@D@2@@std@@PAUPATCH_INFO@@@2@XZ 00408890 f i AuthSocket.obj
 0001:000078c0       ??Eiterator@?$_Tree@V?$_Tmap_traits@V?$basic_string@DU?$char_traits@D@std@@V?$allocator@D@2@@std@@PAUPATCH_INFO@@U?$less@V?$basic_string@DU?$char_traits@D@std@@V?$allocator@D@2@@std@@@2@V?$allocator@U?$pair@$$CBV?$basic_string@DU?$char_traits@D@std@@V?$allocator@D@2@@std@@PAUPATCH_INFO@@@std@@@2@$0A@@std@@@std@@QAE?AV012@H@Z 004088c0 f i AuthSocket.obj
 0001:00007990       ??1?$_Vector_val@V?$basic_string@DU?$char_traits@D@std@@V?$allocator@D@2@@std@@V?$allocator@V?$basic_string@DU?$char_traits@D@std@@V?$allocator@D@2@@std@@@2@@std@@QAE@XZ 00408990 f i AuthSocket.obj
 0001:000079c0       ??1?$_Vector_const_iterator@V?$basic_string@DU?$char_traits@D@std@@V?$allocator@D@2@@std@@V?$allocator@V?$basic_string@DU?$char_traits@D@std@@V?$allocator@D@2@@std@@@2@@std@@QAE@XZ 004089c0 f i AuthSocket.obj
 0001:000079f0       ??1?$_Umap_traits@PAVThread@ACE_Based@@PAVSqlTransaction@@V?$_Hash_compare@PAVThread@ACE_Based@@V?$hash@PAVThread@ACE_Based@@@tr1@std@@U?$equal_to@PAVThread@ACE_Based@@@5@@stdext@@V?$allocator@U?$pair@QAVThread@ACE_Based@@PAVSqlTransaction@@@std@@@std@@$0A@@tr1@std@@QAE@XZ 004089f0 f i AuthSocket.obj
 0001:00007a20       ??1?$_Umap_traits@PAVThread@ACE_Based@@PAVSqlResultQueue@@V?$_Hash_compare@PAVThread@ACE_Based@@V?$hash@PAVThread@ACE_Based@@@tr1@std@@U?$equal_to@PAVThread@ACE_Based@@@5@@stdext@@V?$allocator@U?$pair@QAVThread@ACE_Based@@PAVSqlResultQueue@@@std@@@std@@$0A@@tr1@std@@QAE@XZ 00408a20 f i AuthSocket.obj
 0001:00007a50       ??1?$_Vector_val@EV?$allocator@E@std@@@std@@QAE@XZ 00408a50 f i AuthSocket.obj
 0001:00007a80       ??1?$_Vector_iterator@EV?$allocator@E@std@@@std@@QAE@XZ 00408a80 f i AuthSocket.obj
 0001:00007ab0       ??1?$_Vector_const_iterator@EV?$allocator@E@std@@@std@@QAE@XZ 00408ab0 f i AuthSocket.obj
 0001:00007ae0       ??0?$_Bidit@U?$pair@$$CBV?$basic_string@DU?$char_traits@D@std@@V?$allocator@D@2@@std@@URealm@@@std@@HPBU12@ABU12@@std@@QAE@XZ 00408ae0 f i AuthSocket.obj
 0001:00007b10       ??0const_iterator@?$_Tree@V?$_Tmap_traits@V?$basic_string@DU?$char_traits@D@std@@V?$allocator@D@2@@std@@URealm@@U?$less@V?$basic_string@DU?$char_traits@D@std@@V?$allocator@D@2@@std@@@2@V?$allocator@U?$pair@$$CBV?$basic_string@DU?$char_traits@D@std@@V?$allocator@D@2@@std@@URealm@@@std@@@2@$0A@@std@@@std@@QAE@ABV012@@Z 00408b10 f i AuthSocket.obj
 0001:00007b50       ??1?$pair@$$CBV?$basic_string@DU?$char_traits@D@std@@V?$allocator@D@2@@std@@PAUPATCH_INFO@@@std@@QAE@XZ 00408b50 f i AuthSocket.obj
 0001:00007b80       ??0const_iterator@?$_Tree@V?$_Tmap_traits@V?$basic_string@DU?$char_traits@D@std@@V?$allocator@D@2@@std@@PAUPATCH_INFO@@U?$less@V?$basic_string@DU?$char_traits@D@std@@V?$allocator@D@2@@std@@@2@V?$allocator@U?$pair@$$CBV?$basic_string@DU?$char_traits@D@std@@V?$allocator@D@2@@std@@PAUPATCH_INFO@@@std@@@2@$0A@@std@@@std@@QAE@ABV012@@Z 00408b80 f i AuthSocket.obj
 0001:00007bc0       ??4iterator@?$_Tree@V?$_Tmap_traits@V?$basic_string@DU?$char_traits@D@std@@V?$allocator@D@2@@std@@PAUPATCH_INFO@@U?$less@V?$basic_string@DU?$char_traits@D@std@@V?$allocator@D@2@@std@@@2@V?$allocator@U?$pair@$$CBV?$basic_string@DU?$char_traits@D@std@@V?$allocator@D@2@@std@@PAUPATCH_INFO@@@std@@@2@$0A@@std@@@std@@QAEAAV012@ABV012@@Z 00408bc0 f i AuthSocket.obj
 0001:00007bf0       ??1?$_Tree_val@V?$_Tmap_traits@V?$basic_string@DU?$char_traits@D@std@@V?$allocator@D@2@@std@@PAUPATCH_INFO@@U?$less@V?$basic_string@DU?$char_traits@D@std@@V?$allocator@D@2@@std@@@2@V?$allocator@U?$pair@$$CBV?$basic_string@DU?$char_traits@D@std@@V?$allocator@D@2@@std@@PAUPATCH_INFO@@@std@@@2@$0A@@std@@@std@@QAE@XZ 00408bf0 f i AuthSocket.obj
 0001:00007c20       ??0iterator@?$_Tree@V?$_Tmap_traits@V?$basic_string@DU?$char_traits@D@std@@V?$allocator@D@2@@std@@PAUPATCH_INFO@@U?$less@V?$basic_string@DU?$char_traits@D@std@@V?$allocator@D@2@@std@@@2@V?$allocator@U?$pair@$$CBV?$basic_string@DU?$char_traits@D@std@@V?$allocator@D@2@@std@@PAUPATCH_INFO@@@std@@@2@$0A@@std@@@std@@QAE@ABV012@@Z 00408c20 f i AuthSocket.obj
 0001:00007c50       ??1?$_Ranit@V?$basic_string@DU?$char_traits@D@std@@V?$allocator@D@2@@std@@HPBV12@ABV12@@std@@QAE@XZ 00408c50 f i AuthSocket.obj
 0001:00007c80       ??1?$_Ranit@EHPBEABE@std@@QAE@XZ 00408c80 f i AuthSocket.obj
 0001:00007cb0       ??0?$_Iterator_with_base@Ubidirectional_iterator_tag@std@@U?$pair@$$CBV?$basic_string@DU?$char_traits@D@std@@V?$allocator@D@2@@std@@URealm@@@2@HPBU32@ABU32@V_Iterator_base@2@@std@@QAE@XZ 00408cb0 f i AuthSocket.obj
 0001:00007ce0       ??0_Iterator_base@std@@QAE@XZ 00408ce0 f i AuthSocket.obj
 0001:00007d10       ??0?$_Bidit@U?$pair@$$CBV?$basic_string@DU?$char_traits@D@std@@V?$allocator@D@2@@std@@URealm@@@std@@HPBU12@ABU12@@std@@QAE@ABU01@@Z 00408d10 f i AuthSocket.obj
 0001:00007d40       ??0?$_Bidit@U?$pair@$$CBV?$basic_string@DU?$char_traits@D@std@@V?$allocator@D@2@@std@@PAUPATCH_INFO@@@std@@HPBU12@ABU12@@std@@QAE@ABU01@@Z 00408d40 f i AuthSocket.obj
 0001:00007d70       ??4const_iterator@?$_Tree@V?$_Tmap_traits@V?$basic_string@DU?$char_traits@D@std@@V?$allocator@D@2@@std@@PAUPATCH_INFO@@U?$less@V?$basic_string@DU?$char_traits@D@std@@V?$allocator@D@2@@std@@@2@V?$allocator@U?$pair@$$CBV?$basic_string@DU?$char_traits@D@std@@V?$allocator@D@2@@std@@PAUPATCH_INFO@@@std@@@2@$0A@@std@@@std@@QAEAAV012@ABV012@@Z 00408d70 f i AuthSocket.obj
 0001:00007db0       ??1?$_Tree_ptr@V?$_Tmap_traits@V?$basic_string@DU?$char_traits@D@std@@V?$allocator@D@2@@std@@PAUPATCH_INFO@@U?$less@V?$basic_string@DU?$char_traits@D@std@@V?$allocator@D@2@@std@@@2@V?$allocator@U?$pair@$$CBV?$basic_string@DU?$char_traits@D@std@@V?$allocator@D@2@@std@@PAUPATCH_INFO@@@std@@@2@$0A@@std@@@std@@QAE@XZ 00408db0 f i AuthSocket.obj
 0001:00007de0       ??1?$_Iterator_with_base@Urandom_access_iterator_tag@std@@V?$basic_string@DU?$char_traits@D@std@@V?$allocator@D@2@@2@HPBV32@ABV32@V_Iterator_base@2@@std@@QAE@XZ 00408de0 f i AuthSocket.obj
 0001:00007e10       ??1?$_Iterator_with_base@Urandom_access_iterator_tag@std@@EHPBEABEV_Iterator_base@2@@std@@QAE@XZ 00408e10 f i AuthSocket.obj
 0001:00007e40       ??0?$_Iterator_with_base@Ubidirectional_iterator_tag@std@@U?$pair@$$CBV?$basic_string@DU?$char_traits@D@std@@V?$allocator@D@2@@std@@URealm@@@2@HPBU32@ABU32@V_Iterator_base@2@@std@@QAE@ABU01@@Z 00408e40 f i AuthSocket.obj
 0001:00007e70       ??0_Iterator_base@std@@QAE@ABV01@@Z 00408e70 f i AuthSocket.obj
 0001:00007eb0       ??0?$_Iterator_with_base@Ubidirectional_iterator_tag@std@@U?$pair@$$CBV?$basic_string@DU?$char_traits@D@std@@V?$allocator@D@2@@std@@PAUPATCH_INFO@@@2@HPBU32@ABU32@V_Iterator_base@2@@std@@QAE@ABU01@@Z 00408eb0 f i AuthSocket.obj
 0001:00007ee0       ??4?$_Bidit@U?$pair@$$CBV?$basic_string@DU?$char_traits@D@std@@V?$allocator@D@2@@std@@PAUPATCH_INFO@@@std@@HPBU12@ABU12@@std@@QAEAAU01@ABU01@@Z 00408ee0 f i AuthSocket.obj
 0001:00007f10       ??1?$_Tree_nod@V?$_Tmap_traits@V?$basic_string@DU?$char_traits@D@std@@V?$allocator@D@2@@std@@PAUPATCH_INFO@@U?$less@V?$basic_string@DU?$char_traits@D@std@@V?$allocator@D@2@@std@@@2@V?$allocator@U?$pair@$$CBV?$basic_string@DU?$char_traits@D@std@@V?$allocator@D@2@@std@@PAUPATCH_INFO@@@std@@@2@$0A@@std@@@std@@QAE@XZ 00408f10 f i AuthSocket.obj
 0001:00007f40       ??4?$_Iterator_with_base@Ubidirectional_iterator_tag@std@@U?$pair@$$CBV?$basic_string@DU?$char_traits@D@std@@V?$allocator@D@2@@std@@PAUPATCH_INFO@@@2@HPBU32@ABU32@V_Iterator_base@2@@std@@QAEAAU01@ABU01@@Z 00408f40 f i AuthSocket.obj
 0001:00007f70       ??1?$_Tmap_traits@V?$basic_string@DU?$char_traits@D@std@@V?$allocator@D@2@@std@@PAUPATCH_INFO@@U?$less@V?$basic_string@DU?$char_traits@D@std@@V?$allocator@D@2@@std@@@2@V?$allocator@U?$pair@$$CBV?$basic_string@DU?$char_traits@D@std@@V?$allocator@D@2@@std@@PAUPATCH_INFO@@@std@@@2@$0A@@std@@QAE@XZ 00408f70 f i AuthSocket.obj
 0001:00007fa0       ?capacity@?$vector@V?$basic_string@DU?$char_traits@D@std@@V?$allocator@D@2@@std@@V?$allocator@V?$basic_string@DU?$char_traits@D@std@@V?$allocator@D@2@@std@@@2@@std@@QBEIXZ 00408fa0 f i AuthSocket.obj
 0001:00007ff0       ?begin@?$vector@V?$basic_string@DU?$char_traits@D@std@@V?$allocator@D@2@@std@@V?$allocator@V?$basic_string@DU?$char_traits@D@std@@V?$allocator@D@2@@std@@@2@@std@@QBE?AV?$_Vector_const_iterator@V?$basic_string@DU?$char_traits@D@std@@V?$allocator@D@2@@std@@V?$allocator@V?$basic_string@DU?$char_traits@D@std@@V?$allocator@D@2@@std@@@2@@2@XZ 00408ff0 f i AuthSocket.obj
 0001:00008040       ?end@?$vector@V?$basic_string@DU?$char_traits@D@std@@V?$allocator@D@2@@std@@V?$allocator@V?$basic_string@DU?$char_traits@D@std@@V?$allocator@D@2@@std@@@2@@std@@QBE?AV?$_Vector_const_iterator@V?$basic_string@DU?$char_traits@D@std@@V?$allocator@D@2@@std@@V?$allocator@V?$basic_string@DU?$char_traits@D@std@@V?$allocator@D@2@@std@@@2@@2@XZ 00409040 f i AuthSocket.obj
 0001:00008090       ?clear@?$vector@V?$basic_string@DU?$char_traits@D@std@@V?$allocator@D@2@@std@@V?$allocator@V?$basic_string@DU?$char_traits@D@std@@V?$allocator@D@2@@std@@@2@@std@@QAEXXZ 00409090 f i AuthSocket.obj
 0001:00008190       ?_Buy@?$vector@V?$basic_string@DU?$char_traits@D@std@@V?$allocator@D@2@@std@@V?$allocator@V?$basic_string@DU?$char_traits@D@std@@V?$allocator@D@2@@std@@@2@@std@@IAE_NI@Z 00409190 f i AuthSocket.obj
 0001:00008230       ?_Destroy@?$vector@V?$basic_string@DU?$char_traits@D@std@@V?$allocator@D@2@@std@@V?$allocator@V?$basic_string@DU?$char_traits@D@std@@V?$allocator@D@2@@std@@@2@@std@@IAEXPAV?$basic_string@DU?$char_traits@D@std@@V?$allocator@D@2@@2@0@Z 00409230 f i AuthSocket.obj
 0001:00008270       ?_Tidy@?$vector@V?$basic_string@DU?$char_traits@D@std@@V?$allocator@D@2@@std@@V?$allocator@V?$basic_string@DU?$char_traits@D@std@@V?$allocator@D@2@@std@@@2@@std@@IAEXXZ 00409270 f i AuthSocket.obj
 0001:00008300       ??0?$_Vector_val@V?$basic_string@DU?$char_traits@D@std@@V?$allocator@D@2@@std@@V?$allocator@V?$basic_string@DU?$char_traits@D@std@@V?$allocator@D@2@@std@@@2@@std@@IAE@V?$allocator@V?$basic_string@DU?$char_traits@D@std@@V?$allocator@D@2@@std@@@1@@Z 00409300 f i AuthSocket.obj
 0001:00008350       ??1?$_Container_base_aux_alloc_empty@V?$allocator@V?$basic_string@DU?$char_traits@D@std@@V?$allocator@D@2@@std@@@std@@@std@@IAE@XZ 00409350 f i AuthSocket.obj
 0001:00008380       ??0?$allocator@V?$basic_string@DU?$char_traits@D@std@@V?$allocator@D@2@@std@@@std@@QAE@ABV01@@Z 00409380 f i AuthSocket.obj
 0001:000083a0       ?deallocate@?$allocator@V?$basic_string@DU?$char_traits@D@std@@V?$allocator@D@2@@std@@@std@@QAEXPAV?$basic_string@DU?$char_traits@D@std@@V?$allocator@D@2@@2@I@Z 004093a0 f i AuthSocket.obj
 0001:000083d0       ??0?$_Hash@V?$_Umap_traits@PAVThread@ACE_Based@@PAVSqlTransaction@@V?$_Hash_compare@PAVThread@ACE_Based@@V?$hash@PAVThread@ACE_Based@@@tr1@std@@U?$equal_to@PAVThread@ACE_Based@@@5@@stdext@@V?$allocator@U?$pair@QAVThread@ACE_Based@@PAVSqlTransaction@@@std@@@std@@$0A@@tr1@std@@@stdext@@QAE@ABV?$_Hash_compare@PAVThread@ACE_Based@@V?$hash@PAVThread@ACE_Based@@@tr1@std@@U?$equal_to@PAVThread@ACE_Based@@@5@@1@ABV?$allocator@U?$pair@QAVThread@ACE_Based@@PAVSqlTransaction@@@std@@@std@@@Z 004093d0 f i AuthSocket.obj
 0001:00008490       ?get_allocator@?$_Hash@V?$_Umap_traits@PAVThread@ACE_Based@@PAVSqlTransaction@@V?$_Hash_compare@PAVThread@ACE_Based@@V?$hash@PAVThread@ACE_Based@@@tr1@std@@U?$equal_to@PAVThread@ACE_Based@@@5@@stdext@@V?$allocator@U?$pair@QAVThread@ACE_Based@@PAVSqlTransaction@@@std@@@std@@$0A@@tr1@std@@@stdext@@QBE?AV?$allocator@U?$pair@QAVThread@ACE_Based@@PAVSqlTransaction@@@std@@@std@@XZ 00409490 f i AuthSocket.obj
 0001:000084c0       ?_Copy@?$_Hash@V?$_Umap_traits@PAVThread@ACE_Based@@PAVSqlTransaction@@V?$_Hash_compare@PAVThread@ACE_Based@@V?$hash@PAVThread@ACE_Based@@@tr1@std@@U?$equal_to@PAVThread@ACE_Based@@@5@@stdext@@V?$allocator@U?$pair@QAVThread@ACE_Based@@PAVSqlTransaction@@@std@@@std@@$0A@@tr1@std@@@stdext@@IAEXABV12@@Z 004094c0 f i AuthSocket.obj
 0001:000087f0       ??0?$_Umap_traits@PAVThread@ACE_Based@@PAVSqlTransaction@@V?$_Hash_compare@PAVThread@ACE_Based@@V?$hash@PAVThread@ACE_Based@@@tr1@std@@U?$equal_to@PAVThread@ACE_Based@@@5@@stdext@@V?$allocator@U?$pair@QAVThread@ACE_Based@@PAVSqlTransaction@@@std@@@std@@$0A@@tr1@std@@QAE@ABV?$_Hash_compare@PAVThread@ACE_Based@@V?$hash@PAVThread@ACE_Based@@@tr1@std@@U?$equal_to@PAVThread@ACE_Based@@@5@@stdext@@@Z 004097f0 f i AuthSocket.obj
 0001:00008840       ??0?$allocator@U?$pair@QAVThread@ACE_Based@@PAVSqlTransaction@@@std@@@std@@QAE@XZ 00409840 f i AuthSocket.obj
 0001:00008860       ??0?$_Hash_compare@PAVThread@ACE_Based@@V?$hash@PAVThread@ACE_Based@@@tr1@std@@U?$equal_to@PAVThread@ACE_Based@@@5@@stdext@@QAE@XZ 00409860 f i AuthSocket.obj
 0001:00008880       ??0?$list@U?$pair@QAVThread@ACE_Based@@PAVSqlTransaction@@@std@@V?$allocator@U?$pair@QAVThread@ACE_Based@@PAVSqlTransaction@@@std@@@2@@std@@QAE@ABV?$allocator@U?$pair@QAVThread@ACE_Based@@PAVSqlTransaction@@@std@@@1@@Z 00409880 f i AuthSocket.obj
 0001:00008920       ??1?$list@U?$pair@QAVThread@ACE_Based@@PAVSqlTransaction@@@std@@V?$allocator@U?$pair@QAVThread@ACE_Based@@PAVSqlTransaction@@@std@@@2@@std@@QAE@XZ 00409920 f i AuthSocket.obj
 0001:00008990       ??0?$vector@V?$_Iterator@$00@?$list@U?$pair@QAVThread@ACE_Based@@PAVSqlTransaction@@@std@@V?$allocator@U?$pair@QAVThread@ACE_Based@@PAVSqlTransaction@@@std@@@2@@std@@V?$allocator@V?$_Iterator@$00@?$list@U?$pair@QAVThread@ACE_Based@@PAVSqlTransaction@@@std@@V?$allocator@U?$pair@QAVThread@ACE_Based@@PAVSqlTransaction@@@std@@@2@@std@@@3@@std@@QAE@ABV?$allocator@V?$_Iterator@$00@?$list@U?$pair@QAVThread@ACE_Based@@PAVSqlTransaction@@@std@@V?$allocator@U?$pair@QAVThread@ACE_Based@@PAVSqlTransaction@@@std@@@2@@std@@@1@@Z 00409990 f i AuthSocket.obj
 0001:00008a20       ??1?$vector@V?$_Iterator@$00@?$list@U?$pair@QAVThread@ACE_Based@@PAVSqlTransaction@@@std@@V?$allocator@U?$pair@QAVThread@ACE_Based@@PAVSqlTransaction@@@std@@@2@@std@@V?$allocator@V?$_Iterator@$00@?$list@U?$pair@QAVThread@ACE_Based@@PAVSqlTransaction@@@std@@V?$allocator@U?$pair@QAVThread@ACE_Based@@PAVSqlTransaction@@@std@@@2@@std@@@3@@std@@QAE@XZ 00409a20 f i AuthSocket.obj
 0001:00008a90       ??0?$_Hash@V?$_Umap_traits@PAVThread@ACE_Based@@PAVSqlResultQueue@@V?$_Hash_compare@PAVThread@ACE_Based@@V?$hash@PAVThread@ACE_Based@@@tr1@std@@U?$equal_to@PAVThread@ACE_Based@@@5@@stdext@@V?$allocator@U?$pair@QAVThread@ACE_Based@@PAVSqlResultQueue@@@std@@@std@@$0A@@tr1@std@@@stdext@@QAE@ABV?$_Hash_compare@PAVThread@ACE_Based@@V?$hash@PAVThread@ACE_Based@@@tr1@std@@U?$equal_to@PAVThread@ACE_Based@@@5@@1@ABV?$allocator@U?$pair@QAVThread@ACE_Based@@PAVSqlResultQueue@@@std@@@std@@@Z 00409a90 f i AuthSocket.obj
 0001:00008b50       ?get_allocator@?$_Hash@V?$_Umap_traits@PAVThread@ACE_Based@@PAVSqlResultQueue@@V?$_Hash_compare@PAVThread@ACE_Based@@V?$hash@PAVThread@ACE_Based@@@tr1@std@@U?$equal_to@PAVThread@ACE_Based@@@5@@stdext@@V?$allocator@U?$pair@QAVThread@ACE_Based@@PAVSqlResultQueue@@@std@@@std@@$0A@@tr1@std@@@stdext@@QBE?AV?$allocator@U?$pair@QAVThread@ACE_Based@@PAVSqlResultQueue@@@std@@@std@@XZ 00409b50 f i AuthSocket.obj
 0001:00008b80       ?_Copy@?$_Hash@V?$_Umap_traits@PAVThread@ACE_Based@@PAVSqlResultQueue@@V?$_Hash_compare@PAVThread@ACE_Based@@V?$hash@PAVThread@ACE_Based@@@tr1@std@@U?$equal_to@PAVThread@ACE_Based@@@5@@stdext@@V?$allocator@U?$pair@QAVThread@ACE_Based@@PAVSqlResultQueue@@@std@@@std@@$0A@@tr1@std@@@stdext@@IAEXABV12@@Z 00409b80 f i AuthSocket.obj
 0001:00008eb0       ??0?$_Umap_traits@PAVThread@ACE_Based@@PAVSqlResultQueue@@V?$_Hash_compare@PAVThread@ACE_Based@@V?$hash@PAVThread@ACE_Based@@@tr1@std@@U?$equal_to@PAVThread@ACE_Based@@@5@@stdext@@V?$allocator@U?$pair@QAVThread@ACE_Based@@PAVSqlResultQueue@@@std@@@std@@$0A@@tr1@std@@QAE@ABV?$_Hash_compare@PAVThread@ACE_Based@@V?$hash@PAVThread@ACE_Based@@@tr1@std@@U?$equal_to@PAVThread@ACE_Based@@@5@@stdext@@@Z 00409eb0 f i AuthSocket.obj
 0001:00008f00       ??0?$allocator@U?$pair@QAVThread@ACE_Based@@PAVSqlResultQueue@@@std@@@std@@QAE@XZ 00409f00 f i AuthSocket.obj
 0001:00008f20       ??0?$list@U?$pair@QAVThread@ACE_Based@@PAVSqlResultQueue@@@std@@V?$allocator@U?$pair@QAVThread@ACE_Based@@PAVSqlResultQueue@@@std@@@2@@std@@QAE@ABV?$allocator@U?$pair@QAVThread@ACE_Based@@PAVSqlResultQueue@@@std@@@1@@Z 00409f20 f i AuthSocket.obj
 0001:00008fc0       ??1?$list@U?$pair@QAVThread@ACE_Based@@PAVSqlResultQueue@@@std@@V?$allocator@U?$pair@QAVThread@ACE_Based@@PAVSqlResultQueue@@@std@@@2@@std@@QAE@XZ 00409fc0 f i AuthSocket.obj
 0001:00009030       ??0?$vector@V?$_Iterator@$00@?$list@U?$pair@QAVThread@ACE_Based@@PAVSqlResultQueue@@@std@@V?$allocator@U?$pair@QAVThread@ACE_Based@@PAVSqlResultQueue@@@std@@@2@@std@@V?$allocator@V?$_Iterator@$00@?$list@U?$pair@QAVThread@ACE_Based@@PAVSqlResultQueue@@@std@@V?$allocator@U?$pair@QAVThread@ACE_Based@@PAVSqlResultQueue@@@std@@@2@@std@@@3@@std@@QAE@ABV?$allocator@V?$_Iterator@$00@?$list@U?$pair@QAVThread@ACE_Based@@PAVSqlResultQueue@@@std@@V?$allocator@U?$pair@QAVThread@ACE_Based@@PAVSqlResultQueue@@@std@@@2@@std@@@1@@Z 0040a030 f i AuthSocket.obj
 0001:000090c0       ??1?$vector@V?$_Iterator@$00@?$list@U?$pair@QAVThread@ACE_Based@@PAVSqlResultQueue@@@std@@V?$allocator@U?$pair@QAVThread@ACE_Based@@PAVSqlResultQueue@@@std@@@2@@std@@V?$allocator@V?$_Iterator@$00@?$list@U?$pair@QAVThread@ACE_Based@@PAVSqlResultQueue@@@std@@V?$allocator@U?$pair@QAVThread@ACE_Based@@PAVSqlResultQueue@@@std@@@2@@std@@@3@@std@@QAE@XZ 0040a0c0 f i AuthSocket.obj
 0001:00009130       ?capacity@?$vector@EV?$allocator@E@std@@@std@@QBEIXZ 0040a130 f i AuthSocket.obj
 0001:00009170       ?begin@?$vector@EV?$allocator@E@std@@@std@@QAE?AV?$_Vector_iterator@EV?$allocator@E@std@@@2@XZ 0040a170 f i AuthSocket.obj
 0001:000091c0       ?end@?$vector@EV?$allocator@E@std@@@std@@QAE?AV?$_Vector_iterator@EV?$allocator@E@std@@@2@XZ 0040a1c0 f i AuthSocket.obj
 0001:00009210       ?resize@?$vector@EV?$allocator@E@std@@@std@@QAEXIE@Z 0040a210 f i AuthSocket.obj
 0001:000093c0       ??0?$_Vector_const_iterator@EV?$allocator@E@std@@@std@@QAE@ABV01@@Z 0040a3c0 f i AuthSocket.obj
 0001:00009400       ??0?$_Ranit@EHPBEABE@std@@QAE@ABU01@@Z 0040a400 f i AuthSocket.obj
 0001:00009430       ??0?$_Iterator_with_base@Urandom_access_iterator_tag@std@@EHPBEABEV_Iterator_base@2@@std@@QAE@ABU01@@Z 0040a430 f i AuthSocket.obj
 0001:00009460       ?max_size@?$vector@EV?$allocator@E@std@@@std@@QBEIXZ 0040a460 f i AuthSocket.obj
 0001:00009490       ?erase@?$vector@EV?$allocator@E@std@@@std@@QAE?AV?$_Vector_iterator@EV?$allocator@E@std@@@2@V?$_Vector_const_iterator@EV?$allocator@E@std@@@2@0@Z 0040a490 f i AuthSocket.obj
 0001:00009690       ?_Buy@?$vector@EV?$allocator@E@std@@@std@@IAE_NI@Z 0040a690 f i AuthSocket.obj
 0001:00009720       ?_Destroy@?$vector@EV?$allocator@E@std@@@std@@IAEXPAE0@Z 0040a720 f i AuthSocket.obj
 0001:00009760       ?_Tidy@?$vector@EV?$allocator@E@std@@@std@@IAEXXZ 0040a760 f i AuthSocket.obj
 0001:000097f0       ?_Xlen@?$vector@EV?$allocator@E@std@@@std@@KAXXZ 0040a7f0 f i AuthSocket.obj
 0001:000098a0       ??0length_error@std@@QAE@ABV?$basic_string@DU?$char_traits@D@std@@V?$allocator@D@2@@1@@Z 0040a8a0 f i AuthSocket.obj
 0001:000098e0       ??0logic_error@std@@QAE@ABV?$basic_string@DU?$char_traits@D@std@@V?$allocator@D@2@@1@@Z 0040a8e0 f i AuthSocket.obj
 0001:00009970       ?what@logic_error@std@@UBEPBDXZ 0040a970 f i AuthSocket.obj
 0001:000099b0       ??_Glogic_error@std@@UAEPAXI@Z 0040a9b0 f i AuthSocket.obj
 0001:000099b0       ??_Elogic_error@std@@UAEPAXI@Z 0040a9b0 f i AuthSocket.obj
 0001:000099f0       ??1logic_error@std@@UAE@XZ 0040a9f0 f i AuthSocket.obj
 0001:00009a40       ??1length_error@std@@UAE@XZ 0040aa40 f i AuthSocket.obj
 0001:00009a70       ??_Elength_error@std@@UAEPAXI@Z 0040aa70 f i AuthSocket.obj
 0001:00009a70       ??_Glength_error@std@@UAEPAXI@Z 0040aa70 f i AuthSocket.obj
 0001:00009ab0       ??0logic_error@std@@QAE@ABV01@@Z 0040aab0 f i AuthSocket.obj
 0001:00009b50       ??0?$_Vector_val@EV?$allocator@E@std@@@std@@IAE@V?$allocator@E@1@@Z 0040ab50 f i AuthSocket.obj
 0001:00009ba0       ??1?$_Container_base_aux_alloc_empty@V?$allocator@E@std@@@std@@IAE@XZ 0040aba0 f i AuthSocket.obj
 0001:00009bd0       ??0?$allocator@E@std@@QAE@XZ 0040abd0 f i AuthSocket.obj
 0001:00009bf0       ??0?$allocator@E@std@@QAE@ABV01@@Z 0040abf0 f i AuthSocket.obj
 0001:00009c10       ?deallocate@?$allocator@E@std@@QAEXPAEI@Z 0040ac10 f i AuthSocket.obj
 0001:00009c40       ?allocate@?$allocator@E@std@@QAEPAEI@Z 0040ac40 f i AuthSocket.obj
 0001:00009c70       ?_Lmost@?$_Tree@V?$_Tmap_traits@V?$basic_string@DU?$char_traits@D@std@@V?$allocator@D@2@@std@@URealm@@U?$less@V?$basic_string@DU?$char_traits@D@std@@V?$allocator@D@2@@std@@@2@V?$allocator@U?$pair@$$CBV?$basic_string@DU?$char_traits@D@std@@V?$allocator@D@2@@std@@URealm@@@std@@@2@$0A@@std@@@std@@IBEAAPAU_Node@?$_Tree_nod@V?$_Tmap_traits@V?$basic_string@DU?$char_traits@D@std@@V?$allocator@D@2@@std@@URealm@@U?$less@V?$basic_string@DU?$char_traits@D@std@@V?$allocator@D@2@@std@@@2@V?$allocator@U?$pair@$$CBV?$basic_string@DU?$char_traits@D@std@@V?$allocator@D@2@@std@@URealm@@@std@@@2@$0A@@std@@@2@XZ 0040ac70 f i AuthSocket.obj
 0001:00009ca0       ??R?$less@V?$basic_string@DU?$char_traits@D@std@@V?$allocator@D@2@@std@@@std@@QBE_NABV?$basic_string@DU?$char_traits@D@std@@V?$allocator@D@2@@1@0@Z 0040aca0 f i AuthSocket.obj
 0001:00009ce0       ??0const_iterator@?$_Tree@V?$_Tmap_traits@V?$basic_string@DU?$char_traits@D@std@@V?$allocator@D@2@@std@@URealm@@U?$less@V?$basic_string@DU?$char_traits@D@std@@V?$allocator@D@2@@std@@@2@V?$allocator@U?$pair@$$CBV?$basic_string@DU?$char_traits@D@std@@V?$allocator@D@2@@std@@URealm@@@std@@@2@$0A@@std@@@std@@QAE@PAU_Node@?$_Tree_nod@V?$_Tmap_traits@V?$basic_string@DU?$char_traits@D@std@@V?$allocator@D@2@@std@@URealm@@U?$less@V?$basic_string@DU?$char_traits@D@std@@V?$allocator@D@2@@std@@@2@V?$allocator@U?$pair@$$CBV?$basic_string@DU?$char_traits@D@std@@V?$allocator@D@2@@std@@URealm@@@std@@@2@$0A@@std@@@2@PBV12@@Z 0040ace0 f i AuthSocket.obj
 0001:00009d60       ??Dconst_iterator@?$_Tree@V?$_Tmap_traits@V?$basic_string@DU?$char_traits@D@std@@V?$allocator@D@2@@std@@URealm@@U?$less@V?$basic_string@DU?$char_traits@D@std@@V?$allocator@D@2@@std@@@2@V?$allocator@U?$pair@$$CBV?$basic_string@DU?$char_traits@D@std@@V?$allocator@D@2@@std@@URealm@@@std@@@2@$0A@@std@@@std@@QBEABU?$pair@$$CBV?$basic_string@DU?$char_traits@D@std@@V?$allocator@D@2@@std@@URealm@@@2@XZ 0040ad60 f i AuthSocket.obj
 0001:00009e30       ??Econst_iterator@?$_Tree@V?$_Tmap_traits@V?$basic_string@DU?$char_traits@D@std@@V?$allocator@D@2@@std@@URealm@@U?$less@V?$basic_string@DU?$char_traits@D@std@@V?$allocator@D@2@@std@@@2@V?$allocator@U?$pair@$$CBV?$basic_string@DU?$char_traits@D@std@@V?$allocator@D@2@@std@@URealm@@@std@@@2@$0A@@std@@@std@@QAEAAV012@XZ 0040ae30 f i AuthSocket.obj
 0001:00009e60       ??8const_iterator@?$_Tree@V?$_Tmap_traits@V?$basic_string@DU?$char_traits@D@std@@V?$allocator@D@2@@std@@URealm@@U?$less@V?$basic_string@DU?$char_traits@D@std@@V?$allocator@D@2@@std@@@2@V?$allocator@U?$pair@$$CBV?$basic_string@DU?$char_traits@D@std@@V?$allocator@D@2@@std@@URealm@@@std@@@2@$0A@@std@@@std@@QBE_NABV012@@Z 0040ae60 f i AuthSocket.obj
 0001:00009f20       ?_Key@?$_Tree@V?$_Tmap_traits@V?$basic_string@DU?$char_traits@D@std@@V?$allocator@D@2@@std@@PAUPATCH_INFO@@U?$less@V?$basic_string@DU?$char_traits@D@std@@V?$allocator@D@2@@std@@@2@V?$allocator@U?$pair@$$CBV?$basic_string@DU?$char_traits@D@std@@V?$allocator@D@2@@std@@PAUPATCH_INFO@@@std@@@2@$0A@@std@@@std@@KAABV?$basic_string@DU?$char_traits@D@std@@V?$allocator@D@2@@2@PAU_Node@?$_Tree_nod@V?$_Tmap_traits@V?$basic_string@DU?$char_traits@D@std@@V?$allocator@D@2@@std@@PAUPATCH_INFO@@U?$less@V?$basic_string@DU?$char_traits@D@std@@V?$allocator@D@2@@std@@@2@V?$allocator@U?$pair@$$CBV?$basic_string@DU?$char_traits@D@std@@V?$allocator@D@2@@std@@PAUPATCH_INFO@@@std@@@2@$0A@@std@@@2@@Z 0040af20 f i AuthSocket.obj
 0001:00009f50       ??0?$_Tree@V?$_Tmap_traits@V?$basic_string@DU?$char_traits@D@std@@V?$allocator@D@2@@std@@PAUPATCH_INFO@@U?$less@V?$basic_string@DU?$char_traits@D@std@@V?$allocator@D@2@@std@@@2@V?$allocator@U?$pair@$$CBV?$basic_string@DU?$char_traits@D@std@@V?$allocator@D@2@@std@@PAUPATCH_INFO@@@std@@@2@$0A@@std@@@std@@QAE@ABU?$less@V?$basic_string@DU?$char_traits@D@std@@V?$allocator@D@2@@std@@@1@ABV?$allocator@U?$pair@$$CBV?$basic_string@DU?$char_traits@D@std@@V?$allocator@D@2@@std@@PAUPATCH_INFO@@@std@@@1@@Z 0040af50 f i AuthSocket.obj
 0001:00009fe0       ?insert@?$_Tree@V?$_Tmap_traits@V?$basic_string@DU?$char_traits@D@std@@V?$allocator@D@2@@std@@PAUPATCH_INFO@@U?$less@V?$basic_string@DU?$char_traits@D@std@@V?$allocator@D@2@@std@@@2@V?$allocator@U?$pair@$$CBV?$basic_string@DU?$char_traits@D@std@@V?$allocator@D@2@@std@@PAUPATCH_INFO@@@std@@@2@$0A@@std@@@std@@QAE?AViterator@12@Vconst_iterator@12@ABU?$pair@$$CBV?$basic_string@DU?$char_traits@D@std@@V?$allocator@D@2@@std@@PAUPATCH_INFO@@@2@@Z 0040afe0 f i AuthSocket.obj
 0001:0000ab80       ?lower_bound@?$_Tree@V?$_Tmap_traits@V?$basic_string@DU?$char_traits@D@std@@V?$allocator@D@2@@std@@PAUPATCH_INFO@@U?$less@V?$basic_string@DU?$char_traits@D@std@@V?$allocator@D@2@@std@@@2@V?$allocator@U?$pair@$$CBV?$basic_string@DU?$char_traits@D@std@@V?$allocator@D@2@@std@@PAUPATCH_INFO@@@std@@@2@$0A@@std@@@std@@QAE?AViterator@12@ABV?$basic_string@DU?$char_traits@D@std@@V?$allocator@D@2@@2@@Z 0040bb80 f i AuthSocket.obj
 0001:0000abe0       ?_Lmost@?$_Tree@V?$_Tmap_traits@V?$basic_string@DU?$char_traits@D@std@@V?$allocator@D@2@@std@@PAUPATCH_INFO@@U?$less@V?$basic_string@DU?$char_traits@D@std@@V?$allocator@D@2@@std@@@2@V?$allocator@U?$pair@$$CBV?$basic_string@DU?$char_traits@D@std@@V?$allocator@D@2@@std@@PAUPATCH_INFO@@@std@@@2@$0A@@std@@@std@@IBEAAPAU_Node@?$_Tree_nod@V?$_Tmap_traits@V?$basic_string@DU?$char_traits@D@std@@V?$allocator@D@2@@std@@PAUPATCH_INFO@@U?$less@V?$basic_string@DU?$char_traits@D@std@@V?$allocator@D@2@@std@@@2@V?$allocator@U?$pair@$$CBV?$basic_string@DU?$char_traits@D@std@@V?$allocator@D@2@@std@@PAUPATCH_INFO@@@std@@@2@$0A@@std@@@2@XZ 0040bbe0 f i AuthSocket.obj
 0001:0000ac10       ?_Tidy@?$_Tree@V?$_Tmap_traits@V?$basic_string@DU?$char_traits@D@std@@V?$allocator@D@2@@std@@PAUPATCH_INFO@@U?$less@V?$basic_string@DU?$char_traits@D@std@@V?$allocator@D@2@@std@@@2@V?$allocator@U?$pair@$$CBV?$basic_string@DU?$char_traits@D@std@@V?$allocator@D@2@@std@@PAUPATCH_INFO@@@std@@@2@$0A@@std@@@std@@IAEXXZ 0040bc10 f i AuthSocket.obj
 0001:0000ad80       ??1?$_Container_base_aux_alloc_empty@V?$allocator@U?$pair@$$CBV?$basic_string@DU?$char_traits@D@std@@V?$allocator@D@2@@std@@PAUPATCH_INFO@@@std@@@std@@@std@@IAE@XZ 0040bd80 f i AuthSocket.obj
 0001:0000adb0       ??0?$allocator@U?$pair@$$CBV?$basic_string@DU?$char_traits@D@std@@V?$allocator@D@2@@std@@PAUPATCH_INFO@@@std@@@std@@QAE@XZ 0040bdb0 f i AuthSocket.obj
 0001:0000add0       ??8const_iterator@?$_Tree@V?$_Tmap_traits@V?$basic_string@DU?$char_traits@D@std@@V?$allocator@D@2@@std@@PAUPATCH_INFO@@U?$less@V?$basic_string@DU?$char_traits@D@std@@V?$allocator@D@2@@std@@@2@V?$allocator@U?$pair@$$CBV?$basic_string@DU?$char_traits@D@std@@V?$allocator@D@2@@std@@PAUPATCH_INFO@@@std@@@2@$0A@@std@@@std@@QBE_NABV012@@Z 0040bdd0 f i AuthSocket.obj
 0001:0000ae90       ?_Mynode@const_iterator@?$_Tree@V?$_Tmap_traits@V?$basic_string@DU?$char_traits@D@std@@V?$allocator@D@2@@std@@PAUPATCH_INFO@@U?$less@V?$basic_string@DU?$char_traits@D@std@@V?$allocator@D@2@@std@@@2@V?$allocator@U?$pair@$$CBV?$basic_string@DU?$char_traits@D@std@@V?$allocator@D@2@@std@@PAUPATCH_INFO@@@std@@@2@$0A@@std@@@std@@QBEPAU_Node@?$_Tree_nod@V?$_Tmap_traits@V?$basic_string@DU?$char_traits@D@std@@V?$allocator@D@2@@std@@PAUPATCH_INFO@@U?$less@V?$basic_string@DU?$char_traits@D@std@@V?$allocator@D@2@@std@@@2@V?$allocator@U?$pair@$$CBV?$basic_string@DU?$char_traits@D@std@@V?$allocator@D@2@@std@@PAUPATCH_INFO@@@std@@@2@$0A@@std@@@3@XZ 0040be90 f i AuthSocket.obj
 0001:0000aeb0       ??0iterator@?$_Tree@V?$_Tmap_traits@V?$basic_string@DU?$char_traits@D@std@@V?$allocator@D@2@@std@@PAUPATCH_INFO@@U?$less@V?$basic_string@DU?$char_traits@D@std@@V?$allocator@D@2@@std@@@2@V?$allocator@U?$pair@$$CBV?$basic_string@DU?$char_traits@D@std@@V?$allocator@D@2@@std@@PAUPATCH_INFO@@@std@@@2@$0A@@std@@@std@@QAE@PAU_Node@?$_Tree_nod@V?$_Tmap_traits@V?$basic_string@DU?$char_traits@D@std@@V?$allocator@D@2@@std@@PAUPATCH_INFO@@U?$less@V?$basic_string@DU?$char_traits@D@std@@V?$allocator@D@2@@std@@@2@V?$allocator@U?$pair@$$CBV?$basic_string@DU?$char_traits@D@std@@V?$allocator@D@2@@std@@PAUPATCH_INFO@@@std@@@2@$0A@@std@@@2@PBV12@@Z 0040beb0 f i AuthSocket.obj
 0001:0000aef0       ??0const_iterator@?$_Tree@V?$_Tmap_traits@V?$basic_string@DU?$char_traits@D@std@@V?$allocator@D@2@@std@@PAUPATCH_INFO@@U?$less@V?$basic_string@DU?$char_traits@D@std@@V?$allocator@D@2@@std@@@2@V?$allocator@U?$pair@$$CBV?$basic_string@DU?$char_traits@D@std@@V?$allocator@D@2@@std@@PAUPATCH_INFO@@@std@@@2@$0A@@std@@@std@@QAE@PAU_Node@?$_Tree_nod@V?$_Tmap_traits@V?$basic_string@DU?$char_traits@D@std@@V?$allocator@D@2@@std@@PAUPATCH_INFO@@U?$less@V?$basic_string@DU?$char_traits@D@std@@V?$allocator@D@2@@std@@@2@V?$allocator@U?$pair@$$CBV?$basic_string@DU?$char_traits@D@std@@V?$allocator@D@2@@std@@PAUPATCH_INFO@@@std@@@2@$0A@@std@@@2@PBV12@@Z 0040bef0 f i AuthSocket.obj
 0001:0000af70       ??Diterator@?$_Tree@V?$_Tmap_traits@V?$basic_string@DU?$char_traits@D@std@@V?$allocator@D@2@@std@@PAUPATCH_INFO@@U?$less@V?$basic_string@DU?$char_traits@D@std@@V?$allocator@D@2@@std@@@2@V?$allocator@U?$pair@$$CBV?$basic_string@DU?$char_traits@D@std@@V?$allocator@D@2@@std@@PAUPATCH_INFO@@@std@@@2@$0A@@std@@@std@@QBEAAU?$pair@$$CBV?$basic_string@DU?$char_traits@D@std@@V?$allocator@D@2@@std@@PAUPATCH_INFO@@@2@XZ 0040bf70 f i AuthSocket.obj
 0001:0000afa0       ??Eiterator@?$_Tree@V?$_Tmap_traits@V?$basic_string@DU?$char_traits@D@std@@V?$allocator@D@2@@std@@PAUPATCH_INFO@@U?$less@V?$basic_string@DU?$char_traits@D@std@@V?$allocator@D@2@@std@@@2@V?$allocator@U?$pair@$$CBV?$basic_string@DU?$char_traits@D@std@@V?$allocator@D@2@@std@@PAUPATCH_INFO@@@std@@@2@$0A@@std@@@std@@QAEAAV012@XZ 0040bfa0 f i AuthSocket.obj
 0001:0000afd0       ??0?$pair@$$CBV?$basic_string@DU?$char_traits@D@std@@V?$allocator@D@2@@std@@PAUPATCH_INFO@@@std@@QAE@ABV?$basic_string@DU?$char_traits@D@std@@V?$allocator@D@2@@1@ABQAUPATCH_INFO@@@Z 0040bfd0 f i AuthSocket.obj
 0001:0000b020       ??1?$_Vector_iterator@V?$basic_string@DU?$char_traits@D@std@@V?$allocator@D@2@@std@@V?$allocator@V?$basic_string@DU?$char_traits@D@std@@V?$allocator@D@2@@std@@@2@@std@@QAE@XZ 0040c020 f i AuthSocket.obj
 0001:0000b050       ??0?$_Vector_const_iterator@V?$basic_string@DU?$char_traits@D@std@@V?$allocator@D@2@@std@@V?$allocator@V?$basic_string@DU?$char_traits@D@std@@V?$allocator@D@2@@std@@@2@@std@@QAE@ABV01@@Z 0040c050 f i AuthSocket.obj
 0001:0000b090       ??1?$_Iterator@$00@?$list@U?$pair@QAVThread@ACE_Based@@PAVSqlTransaction@@@std@@V?$allocator@U?$pair@QAVThread@ACE_Based@@PAVSqlTransaction@@@std@@@2@@std@@QAE@XZ 0040c090 f i AuthSocket.obj
 0001:0000b0c0       ??1?$_Const_iterator@$00@?$list@U?$pair@QAVThread@ACE_Based@@PAVSqlTransaction@@@std@@V?$allocator@U?$pair@QAVThread@ACE_Based@@PAVSqlTransaction@@@std@@@2@@std@@QAE@XZ 0040c0c0 f i AuthSocket.obj
 0001:0000b0f0       ??0?$_Const_iterator@$00@?$list@U?$pair@QAVThread@ACE_Based@@PAVSqlTransaction@@@std@@V?$allocator@U?$pair@QAVThread@ACE_Based@@PAVSqlTransaction@@@std@@@2@@std@@QAE@ABV012@@Z 0040c0f0 f i AuthSocket.obj
 0001:0000b130       ??1?$_Vector_iterator@V?$_Iterator@$00@?$list@U?$pair@QAVThread@ACE_Based@@PAVSqlTransaction@@@std@@V?$allocator@U?$pair@QAVThread@ACE_Based@@PAVSqlTransaction@@@std@@@2@@std@@V?$allocator@V?$_Iterator@$00@?$list@U?$pair@QAVThread@ACE_Based@@PAVSqlTransaction@@@std@@V?$allocator@U?$pair@QAVThread@ACE_Based@@PAVSqlTransaction@@@std@@@2@@std@@@3@@std@@QAE@XZ 0040c130 f i AuthSocket.obj
 0001:0000b160       ??4?$_Iterator@$00@?$list@U?$pair@QAVThread@ACE_Based@@PAVSqlTransaction@@@std@@V?$allocator@U?$pair@QAVThread@ACE_Based@@PAVSqlTransaction@@@std@@@2@@std@@QAEAAV012@ABV012@@Z 0040c160 f i AuthSocket.obj
 0001:0000b190       ??1?$_List_val@U?$pair@QAVThread@ACE_Based@@PAVSqlTransaction@@@std@@V?$allocator@U?$pair@QAVThread@ACE_Based@@PAVSqlTransaction@@@std@@@2@@std@@QAE@XZ 0040c190 f i AuthSocket.obj
 0001:0000b1c0       ??1?$_Vector_val@V?$_Iterator@$00@?$list@U?$pair@QAVThread@ACE_Based@@PAVSqlTransaction@@@std@@V?$allocator@U?$pair@QAVThread@ACE_Based@@PAVSqlTransaction@@@std@@@2@@std@@V?$allocator@V?$_Iterator@$00@?$list@U?$pair@QAVThread@ACE_Based@@PAVSqlTransaction@@@std@@V?$allocator@U?$pair@QAVThread@ACE_Based@@PAVSqlTransaction@@@std@@@2@@std@@@3@@std@@QAE@XZ 0040c1c0 f i AuthSocket.obj
 0001:0000b1f0       ??1?$_Iterator@$00@?$list@U?$pair@QAVThread@ACE_Based@@PAVSqlResultQueue@@@std@@V?$allocator@U?$pair@QAVThread@ACE_Based@@PAVSqlResultQueue@@@std@@@2@@std@@QAE@XZ 0040c1f0 f i AuthSocket.obj
 0001:0000b220       ??1?$_Const_iterator@$00@?$list@U?$pair@QAVThread@ACE_Based@@PAVSqlResultQueue@@@std@@V?$allocator@U?$pair@QAVThread@ACE_Based@@PAVSqlResultQueue@@@std@@@2@@std@@QAE@XZ 0040c220 f i AuthSocket.obj
 0001:0000b250       ??0?$_Const_iterator@$00@?$list@U?$pair@QAVThread@ACE_Based@@PAVSqlResultQueue@@@std@@V?$allocator@U?$pair@QAVThread@ACE_Based@@PAVSqlResultQueue@@@std@@@2@@std@@QAE@ABV012@@Z 0040c250 f i AuthSocket.obj
 0001:0000b290       ??1?$_Vector_iterator@V?$_Iterator@$00@?$list@U?$pair@QAVThread@ACE_Based@@PAVSqlResultQueue@@@std@@V?$allocator@U?$pair@QAVThread@ACE_Based@@PAVSqlResultQueue@@@std@@@2@@std@@V?$allocator@V?$_Iterator@$00@?$list@U?$pair@QAVThread@ACE_Based@@PAVSqlResultQueue@@@std@@V?$allocator@U?$pair@QAVThread@ACE_Based@@PAVSqlResultQueue@@@std@@@2@@std@@@3@@std@@QAE@XZ 0040c290 f i AuthSocket.obj
 0001:0000b2c0       ??4?$_Iterator@$00@?$list@U?$pair@QAVThread@ACE_Based@@PAVSqlResultQueue@@@std@@V?$allocator@U?$pair@QAVThread@ACE_Based@@PAVSqlResultQueue@@@std@@@2@@std@@QAEAAV012@ABV012@@Z 0040c2c0 f i AuthSocket.obj
 0001:0000b2f0       ??1?$_List_val@U?$pair@QAVThread@ACE_Based@@PAVSqlResultQueue@@@std@@V?$allocator@U?$pair@QAVThread@ACE_Based@@PAVSqlResultQueue@@@std@@@2@@std@@QAE@XZ 0040c2f0 f i AuthSocket.obj
 0001:0000b320       ??1?$_Vector_val@V?$_Iterator@$00@?$list@U?$pair@QAVThread@ACE_Based@@PAVSqlResultQueue@@@std@@V?$allocator@U?$pair@QAVThread@ACE_Based@@PAVSqlResultQueue@@@std@@@2@@std@@V?$allocator@V?$_Iterator@$00@?$list@U?$pair@QAVThread@ACE_Based@@PAVSqlResultQueue@@@std@@V?$allocator@U?$pair@QAVThread@ACE_Based@@PAVSqlResultQueue@@@std@@@2@@std@@@3@@std@@QAE@XZ 0040c320 f i AuthSocket.obj
 0001:0000b350       ??0length_error@std@@QAE@ABV01@@Z 0040c350 f i AuthSocket.obj
 0001:0000b390       ??1?$pair@Viterator@?$_Tree@V?$_Tmap_traits@V?$basic_string@DU?$char_traits@D@std@@V?$allocator@D@2@@std@@PAUPATCH_INFO@@U?$less@V?$basic_string@DU?$char_traits@D@std@@V?$allocator@D@2@@std@@@2@V?$allocator@U?$pair@$$CBV?$basic_string@DU?$char_traits@D@std@@V?$allocator@D@2@@std@@PAUPATCH_INFO@@@std@@@2@$0A@@std@@@std@@_N@std@@QAE@XZ 0040c390 f i AuthSocket.obj
 0001:0000b3c0       ??0?$_Bidit@U?$pair@$$CBV?$basic_string@DU?$char_traits@D@std@@V?$allocator@D@2@@std@@PAUPATCH_INFO@@@std@@HPBU12@ABU12@@std@@QAE@XZ 0040c3c0 f i AuthSocket.obj
 0001:0000b3f0       ??0?$_Ranit@V?$basic_string@DU?$char_traits@D@std@@V?$allocator@D@2@@std@@HPBV12@ABV12@@std@@QAE@ABU01@@Z 0040c3f0 f i AuthSocket.obj
 0001:0000b420       ??1?$_Bidit@U?$pair@QAVThread@ACE_Based@@PAVSqlTransaction@@@std@@HPBU12@ABU12@@std@@QAE@XZ 0040c420 f i AuthSocket.obj
 0001:0000b450       ??0?$_Bidit@U?$pair@QAVThread@ACE_Based@@PAVSqlTransaction@@@std@@HPBU12@ABU12@@std@@QAE@ABU01@@Z 0040c450 f i AuthSocket.obj
 0001:0000b480       ??1?$_Vector_const_iterator@V?$_Iterator@$00@?$list@U?$pair@QAVThread@ACE_Based@@PAVSqlTransaction@@@std@@V?$allocator@U?$pair@QAVThread@ACE_Based@@PAVSqlTransaction@@@std@@@2@@std@@V?$allocator@V?$_Iterator@$00@?$list@U?$pair@QAVThread@ACE_Based@@PAVSqlTransaction@@@std@@V?$allocator@U?$pair@QAVThread@ACE_Based@@PAVSqlTransaction@@@std@@@2@@std@@@3@@std@@QAE@XZ 0040c480 f i AuthSocket.obj
 0001:0000b4b0       ??4?$_Const_iterator@$00@?$list@U?$pair@QAVThread@ACE_Based@@PAVSqlTransaction@@@std@@V?$allocator@U?$pair@QAVThread@ACE_Based@@PAVSqlTransaction@@@std@@@2@@std@@QAEAAV012@ABV012@@Z 0040c4b0 f i AuthSocket.obj
 0001:0000b4f0       ??1?$_List_ptr@U?$pair@QAVThread@ACE_Based@@PAVSqlTransaction@@@std@@V?$allocator@U?$pair@QAVThread@ACE_Based@@PAVSqlTransaction@@@std@@@2@@std@@QAE@XZ 0040c4f0 f i AuthSocket.obj
 0001:0000b520       ??1?$_Bidit@U?$pair@QAVThread@ACE_Based@@PAVSqlResultQueue@@@std@@HPBU12@ABU12@@std@@QAE@XZ 0040c520 f i AuthSocket.obj
 0001:0000b550       ??0?$_Bidit@U?$pair@QAVThread@ACE_Based@@PAVSqlResultQueue@@@std@@HPBU12@ABU12@@std@@QAE@ABU01@@Z 0040c550 f i AuthSocket.obj
 0001:0000b580       ??1?$_Vector_const_iterator@V?$_Iterator@$00@?$list@U?$pair@QAVThread@ACE_Based@@PAVSqlResultQueue@@@std@@V?$allocator@U?$pair@QAVThread@ACE_Based@@PAVSqlResultQueue@@@std@@@2@@std@@V?$allocator@V?$_Iterator@$00@?$list@U?$pair@QAVThread@ACE_Based@@PAVSqlResultQueue@@@std@@V?$allocator@U?$pair@QAVThread@ACE_Based@@PAVSqlResultQueue@@@std@@@2@@std@@@3@@std@@QAE@XZ 0040c580 f i AuthSocket.obj
 0001:0000b5b0       ??4?$_Const_iterator@$00@?$list@U?$pair@QAVThread@ACE_Based@@PAVSqlResultQueue@@@std@@V?$allocator@U?$pair@QAVThread@ACE_Based@@PAVSqlResultQueue@@@std@@@2@@std@@QAEAAV012@ABV012@@Z 0040c5b0 f i AuthSocket.obj
 0001:0000b5f0       ??1?$_List_ptr@U?$pair@QAVThread@ACE_Based@@PAVSqlResultQueue@@@std@@V?$allocator@U?$pair@QAVThread@ACE_Based@@PAVSqlResultQueue@@@std@@@2@@std@@QAE@XZ 0040c5f0 f i AuthSocket.obj
 0001:0000b620       ??0?$_Iterator_with_base@Ubidirectional_iterator_tag@std@@U?$pair@$$CBV?$basic_string@DU?$char_traits@D@std@@V?$allocator@D@2@@std@@PAUPATCH_INFO@@@2@HPBU32@ABU32@V_Iterator_base@2@@std@@QAE@XZ 0040c620 f i AuthSocket.obj
 0001:0000b650       ??0?$_Iterator_with_base@Urandom_access_iterator_tag@std@@V?$basic_string@DU?$char_traits@D@std@@V?$allocator@D@2@@2@HPBV32@ABV32@V_Iterator_base@2@@std@@QAE@ABU01@@Z 0040c650 f i AuthSocket.obj
 0001:0000b680       ??1?$_Iterator_with_base@Ubidirectional_iterator_tag@std@@U?$pair@QAVThread@ACE_Based@@PAVSqlTransaction@@@2@HPBU32@ABU32@V_Iterator_base@2@@std@@QAE@XZ 0040c680 f i AuthSocket.obj
 0001:0000b6b0       ??0?$_Iterator_with_base@Ubidirectional_iterator_tag@std@@U?$pair@QAVThread@ACE_Based@@PAVSqlTransaction@@@2@HPBU32@ABU32@V_Iterator_base@2@@std@@QAE@ABU01@@Z 0040c6b0 f i AuthSocket.obj
 0001:0000b6e0       ??1?$_Ranit@V?$_Iterator@$00@?$list@U?$pair@QAVThread@ACE_Based@@PAVSqlTransaction@@@std@@V?$allocator@U?$pair@QAVThread@ACE_Based@@PAVSqlTransaction@@@std@@@2@@std@@HPBV123@ABV123@@std@@QAE@XZ 0040c6e0 f i AuthSocket.obj
 0001:0000b710       ??4?$_Bidit@U?$pair@QAVThread@ACE_Based@@PAVSqlTransaction@@@std@@HPBU12@ABU12@@std@@QAEAAU01@ABU01@@Z 0040c710 f i AuthSocket.obj
 0001:0000b740       ??1?$_List_nod@U?$pair@QAVThread@ACE_Based@@PAVSqlTransaction@@@std@@V?$allocator@U?$pair@QAVThread@ACE_Based@@PAVSqlTransaction@@@std@@@2@@std@@QAE@XZ 0040c740 f i AuthSocket.obj
 0001:0000b770       ??1?$_Iterator_with_base@Ubidirectional_iterator_tag@std@@U?$pair@QAVThread@ACE_Based@@PAVSqlResultQueue@@@2@HPBU32@ABU32@V_Iterator_base@2@@std@@QAE@XZ 0040c770 f i AuthSocket.obj
 0001:0000b7a0       ??0?$_Iterator_with_base@Ubidirectional_iterator_tag@std@@U?$pair@QAVThread@ACE_Based@@PAVSqlResultQueue@@@2@HPBU32@ABU32@V_Iterator_base@2@@std@@QAE@ABU01@@Z 0040c7a0 f i AuthSocket.obj
 0001:0000b7d0       ??1?$_Ranit@V?$_Iterator@$00@?$list@U?$pair@QAVThread@ACE_Based@@PAVSqlResultQueue@@@std@@V?$allocator@U?$pair@QAVThread@ACE_Based@@PAVSqlResultQueue@@@std@@@2@@std@@HPBV123@ABV123@@std@@QAE@XZ 0040c7d0 f i AuthSocket.obj
 0001:0000b800       ??4?$_Bidit@U?$pair@QAVThread@ACE_Based@@PAVSqlResultQueue@@@std@@HPBU12@ABU12@@std@@QAEAAU01@ABU01@@Z 0040c800 f i AuthSocket.obj
 0001:0000b830       ??1?$_List_nod@U?$pair@QAVThread@ACE_Based@@PAVSqlResultQueue@@@std@@V?$allocator@U?$pair@QAVThread@ACE_Based@@PAVSqlResultQueue@@@std@@@2@@std@@QAE@XZ 0040c830 f i AuthSocket.obj
 0001:0000b860       ??1?$_Iterator_with_base@Urandom_access_iterator_tag@std@@V?$_Iterator@$00@?$list@U?$pair@QAVThread@ACE_Based@@PAVSqlTransaction@@@std@@V?$allocator@U?$pair@QAVThread@ACE_Based@@PAVSqlTransaction@@@std@@@2@@2@HPBV342@ABV342@V_Iterator_base@2@@std@@QAE@XZ 0040c860 f i AuthSocket.obj
 0001:0000b890       ??4?$_Iterator_with_base@Ubidirectional_iterator_tag@std@@U?$pair@QAVThread@ACE_Based@@PAVSqlTransaction@@@2@HPBU32@ABU32@V_Iterator_base@2@@std@@QAEAAU01@ABU01@@Z 0040c890 f i AuthSocket.obj
 0001:0000b8c0       ??1?$_Iterator_with_base@Urandom_access_iterator_tag@std@@V?$_Iterator@$00@?$list@U?$pair@QAVThread@ACE_Based@@PAVSqlResultQueue@@@std@@V?$allocator@U?$pair@QAVThread@ACE_Based@@PAVSqlResultQueue@@@std@@@2@@2@HPBV342@ABV342@V_Iterator_base@2@@std@@QAE@XZ 0040c8c0 f i AuthSocket.obj
 0001:0000b8f0       ??4?$_Iterator_with_base@Ubidirectional_iterator_tag@std@@U?$pair@QAVThread@ACE_Based@@PAVSqlResultQueue@@@2@HPBU32@ABU32@V_Iterator_base@2@@std@@QAEAAU01@ABU01@@Z 0040c8f0 f i AuthSocket.obj
 0001:0000b920       ?begin@?$vector@V?$basic_string@DU?$char_traits@D@std@@V?$allocator@D@2@@std@@V?$allocator@V?$basic_string@DU?$char_traits@D@std@@V?$allocator@D@2@@std@@@2@@std@@QAE?AV?$_Vector_iterator@V?$basic_string@DU?$char_traits@D@std@@V?$allocator@D@2@@std@@V?$allocator@V?$basic_string@DU?$char_traits@D@std@@V?$allocator@D@2@@std@@@2@@2@XZ 0040c920 f i AuthSocket.obj
 0001:0000b970       ?end@?$vector@V?$basic_string@DU?$char_traits@D@std@@V?$allocator@D@2@@std@@V?$allocator@V?$basic_string@DU?$char_traits@D@std@@V?$allocator@D@2@@std@@@2@@std@@QAE?AV?$_Vector_iterator@V?$basic_string@DU?$char_traits@D@std@@V?$allocator@D@2@@std@@V?$allocator@V?$basic_string@DU?$char_traits@D@std@@V?$allocator@D@2@@std@@@2@@2@XZ 0040c970 f i AuthSocket.obj
 0001:0000b9c0       ?max_size@?$vector@V?$basic_string@DU?$char_traits@D@std@@V?$allocator@D@2@@std@@V?$allocator@V?$basic_string@DU?$char_traits@D@std@@V?$allocator@D@2@@std@@@2@@std@@QBEIXZ 0040c9c0 f i AuthSocket.obj
 0001:0000b9f0       ?erase@?$vector@V?$basic_string@DU?$char_traits@D@std@@V?$allocator@D@2@@std@@V?$allocator@V?$basic_string@DU?$char_traits@D@std@@V?$allocator@D@2@@std@@@2@@std@@QAE?AV?$_Vector_iterator@V?$basic_string@DU?$char_traits@D@std@@V?$allocator@D@2@@std@@V?$allocator@V?$basic_string@DU?$char_traits@D@std@@V?$allocator@D@2@@std@@@2@@2@V?$_Vector_const_iterator@V?$basic_string@DU?$char_traits@D@std@@V?$allocator@D@2@@std@@V?$allocator@V?$basic_string@DU?$char_traits@D@std@@V?$allocator@D@2@@std@@@2@@2@0@Z 0040c9f0 f i AuthSocket.obj
 0001:0000bbf0       ?_Xlen@?$vector@V?$basic_string@DU?$char_traits@D@std@@V?$allocator@D@2@@std@@V?$allocator@V?$basic_string@DU?$char_traits@D@std@@V?$allocator@D@2@@std@@@2@@std@@KAXXZ 0040cbf0 f i AuthSocket.obj
 0001:0000bca0       ??0?$_Container_base_aux_alloc_empty@V?$allocator@V?$basic_string@DU?$char_traits@D@std@@V?$allocator@D@2@@std@@@std@@@std@@IAE@V?$allocator@V?$basic_string@DU?$char_traits@D@std@@V?$allocator@D@2@@std@@@1@@Z 0040cca0 f i AuthSocket.obj
 0001:0000bce0       ?allocate@?$allocator@V?$basic_string@DU?$char_traits@D@std@@V?$allocator@D@2@@std@@@std@@QAEPAV?$basic_string@DU?$char_traits@D@std@@V?$allocator@D@2@@2@I@Z 0040cce0 f i AuthSocket.obj
 0001:0000bd10       ?begin@?$_Hash@V?$_Umap_traits@PAVThread@ACE_Based@@PAVSqlTransaction@@V?$_Hash_compare@PAVThread@ACE_Based@@V?$hash@PAVThread@ACE_Based@@@tr1@std@@U?$equal_to@PAVThread@ACE_Based@@@5@@stdext@@V?$allocator@U?$pair@QAVThread@ACE_Based@@PAVSqlTransaction@@@std@@@std@@$0A@@tr1@std@@@stdext@@QAE?AV?$_Iterator@$00@?$list@U?$pair@QAVThread@ACE_Based@@PAVSqlTransaction@@@std@@V?$allocator@U?$pair@QAVThread@ACE_Based@@PAVSqlTransaction@@@std@@@2@@std@@XZ 0040cd10 f i AuthSocket.obj
 0001:0000bd60       ?begin@?$_Hash@V?$_Umap_traits@PAVThread@ACE_Based@@PAVSqlTransaction@@V?$_Hash_compare@PAVThread@ACE_Based@@V?$hash@PAVThread@ACE_Based@@@tr1@std@@U?$equal_to@PAVThread@ACE_Based@@@5@@stdext@@V?$allocator@U?$pair@QAVThread@ACE_Based@@PAVSqlTransaction@@@std@@@std@@$0A@@tr1@std@@@stdext@@QBE?AV?$_Const_iterator@$00@?$list@U?$pair@QAVThread@ACE_Based@@PAVSqlTransaction@@@std@@V?$allocator@U?$pair@QAVThread@ACE_Based@@PAVSqlTransaction@@@std@@@2@@std@@XZ 0040cd60 f i AuthSocket.obj
 0001:0000bdb0       ?end@?$_Hash@V?$_Umap_traits@PAVThread@ACE_Based@@PAVSqlTransaction@@V?$_Hash_compare@PAVThread@ACE_Based@@V?$hash@PAVThread@ACE_Based@@@tr1@std@@U?$equal_to@PAVThread@ACE_Based@@@5@@stdext@@V?$allocator@U?$pair@QAVThread@ACE_Based@@PAVSqlTransaction@@@std@@@std@@$0A@@tr1@std@@@stdext@@QAE?AV?$_Iterator@$00@?$list@U?$pair@QAVThread@ACE_Based@@PAVSqlTransaction@@@std@@V?$allocator@U?$pair@QAVThread@ACE_Based@@PAVSqlTransaction@@@std@@@2@@std@@XZ 0040cdb0 f i AuthSocket.obj
 0001:0000be00       ?_Init@?$_Hash@V?$_Umap_traits@PAVThread@ACE_Based@@PAVSqlTransaction@@V?$_Hash_compare@PAVThread@ACE_Based@@V?$hash@PAVThread@ACE_Based@@@tr1@std@@U?$equal_to@PAVThread@ACE_Based@@@5@@stdext@@V?$allocator@U?$pair@QAVThread@ACE_Based@@PAVSqlTransaction@@@std@@@std@@$0A@@tr1@std@@@stdext@@IAEXI@Z 0040ce00 f i AuthSocket.obj
 0001:0000beb0       ??0?$allocator@U?$pair@QAVThread@ACE_Based@@PAVSqlTransaction@@@std@@@std@@QAE@ABV01@@Z 0040ceb0 f i AuthSocket.obj
 0001:0000bed0       ?begin@?$list@U?$pair@QAVThread@ACE_Based@@PAVSqlTransaction@@@std@@V?$allocator@U?$pair@QAVThread@ACE_Based@@PAVSqlTransaction@@@std@@@2@@std@@QBE?AV?$_Const_iterator@$00@12@XZ 0040ced0 f i AuthSocket.obj
 0001:0000bf30       ?end@?$list@U?$pair@QAVThread@ACE_Based@@PAVSqlTransaction@@@std@@V?$allocator@U?$pair@QAVThread@ACE_Based@@PAVSqlTransaction@@@std@@@2@@std@@QBE?AV?$_Const_iterator@$00@12@XZ 0040cf30 f i AuthSocket.obj
 0001:0000bf80       ?get_allocator@?$list@U?$pair@QAVThread@ACE_Based@@PAVSqlTransaction@@@std@@V?$allocator@U?$pair@QAVThread@ACE_Based@@PAVSqlTransaction@@@std@@@2@@std@@QBE?AV?$allocator@U?$pair@QAVThread@ACE_Based@@PAVSqlTransaction@@@std@@@2@XZ 0040cf80 f i AuthSocket.obj
 0001:0000bfb0       ?clear@?$list@U?$pair@QAVThread@ACE_Based@@PAVSqlTransaction@@@std@@V?$allocator@U?$pair@QAVThread@ACE_Based@@PAVSqlTransaction@@@std@@@2@@std@@QAEXXZ 0040cfb0 f i AuthSocket.obj
 0001:0000c080       ?_Buynode@?$list@U?$pair@QAVThread@ACE_Based@@PAVSqlTransaction@@@std@@V?$allocator@U?$pair@QAVThread@ACE_Based@@PAVSqlTransaction@@@std@@@2@@std@@IAEPAU_Node@?$_List_nod@U?$pair@QAVThread@ACE_Based@@PAVSqlTransaction@@@std@@V?$allocator@U?$pair@QAVThread@ACE_Based@@PAVSqlTransaction@@@std@@@2@@2@XZ 0040d080 f i AuthSocket.obj
 0001:0000c1d0       ?_Tidy@?$list@U?$pair@QAVThread@ACE_Based@@PAVSqlTransaction@@@std@@V?$allocator@U?$pair@QAVThread@ACE_Based@@PAVSqlTransaction@@@std@@@2@@std@@IAEXXZ 0040d1d0 f i AuthSocket.obj
 0001:0000c250       ??0?$_List_val@U?$pair@QAVThread@ACE_Based@@PAVSqlTransaction@@@std@@V?$allocator@U?$pair@QAVThread@ACE_Based@@PAVSqlTransaction@@@std@@@2@@std@@QAE@V?$allocator@U?$pair@QAVThread@ACE_Based@@PAVSqlTransaction@@@std@@@1@@Z 0040d250 f i AuthSocket.obj
 0001:0000c2a0       ??1?$_Container_base_aux_alloc_empty@V?$allocator@U?$pair@QAVThread@ACE_Based@@PAVSqlTransaction@@@std@@@std@@@std@@IAE@XZ 0040d2a0 f i AuthSocket.obj
 0001:0000c2d0       ?begin@?$vector@V?$_Iterator@$00@?$list@U?$pair@QAVThread@ACE_Based@@PAVSqlTransaction@@@std@@V?$allocator@U?$pair@QAVThread@ACE_Based@@PAVSqlTransaction@@@std@@@2@@std@@V?$allocator@V?$_Iterator@$00@?$list@U?$pair@QAVThread@ACE_Based@@PAVSqlTransaction@@@std@@V?$allocator@U?$pair@QAVThread@ACE_Based@@PAVSqlTransaction@@@std@@@2@@std@@@3@@std@@QAE?AV?$_Vector_iterator@V?$_Iterator@$00@?$list@U?$pair@QAVThread@ACE_Based@@PAVSqlTransaction@@@std@@V?$allocator@U?$pair@QAVThread@ACE_Based@@PAVSqlTransaction@@@std@@@2@@std@@V?$allocator@V?$_Iterator@$00@?$list@U?$pair@QAVThread@ACE_Based@@PAVSqlTransaction@@@std@@V?$allocator@U?$pair@QAVThread@ACE_Based@@PAVSqlTransaction@@@std@@@2@@std@@@3@@2@XZ 0040d2d0 f i AuthSocket.obj
 0001:0000c320       ?end@?$vector@V?$_Iterator@$00@?$list@U?$pair@QAVThread@ACE_Based@@PAVSqlTransaction@@@std@@V?$allocator@U?$pair@QAVThread@ACE_Based@@PAVSqlTransaction@@@std@@@2@@std@@V?$allocator@V?$_Iterator@$00@?$list@U?$pair@QAVThread@ACE_Based@@PAVSqlTransaction@@@std@@V?$allocator@U?$pair@QAVThread@ACE_Based@@PAVSqlTransaction@@@std@@@2@@std@@@3@@std@@QAE?AV?$_Vector_iterator@V?$_Iterator@$00@?$list@U?$pair@QAVThread@ACE_Based@@PAVSqlTransaction@@@std@@V?$allocator@U?$pair@QAVThread@ACE_Based@@PAVSqlTransaction@@@std@@@2@@std@@V?$allocator@V?$_Iterator@$00@?$list@U?$pair@QAVThread@ACE_Based@@PAVSqlTransaction@@@std@@V?$allocator@U?$pair@QAVThread@ACE_Based@@PAVSqlTransaction@@@std@@@2@@std@@@3@@2@XZ 0040d320 f i AuthSocket.obj
 0001:0000c370       ?resize@?$vector@V?$_Iterator@$00@?$list@U?$pair@QAVThread@ACE_Based@@PAVSqlTransaction@@@std@@V?$allocator@U?$pair@QAVThread@ACE_Based@@PAVSqlTransaction@@@std@@@2@@std@@V?$allocator@V?$_Iterator@$00@?$list@U?$pair@QAVThread@ACE_Based@@PAVSqlTransaction@@@std@@V?$allocator@U?$pair@QAVThread@ACE_Based@@PAVSqlTransaction@@@std@@@2@@std@@@3@@std@@QAEXIV?$_Iterator@$00@?$list@U?$pair@QAVThread@ACE_Based@@PAVSqlTransaction@@@std@@V?$allocator@U?$pair@QAVThread@ACE_Based@@PAVSqlTransaction@@@std@@@2@@2@@Z 0040d370 f i AuthSocket.obj
 0001:0000c530       ?size@?$vector@V?$_Iterator@$00@?$list@U?$pair@QAVThread@ACE_Based@@PAVSqlTransaction@@@std@@V?$allocator@U?$pair@QAVThread@ACE_Based@@PAVSqlTransaction@@@std@@@2@@std@@V?$allocator@V?$_Iterator@$00@?$list@U?$pair@QAVThread@ACE_Based@@PAVSqlTransaction@@@std@@V?$allocator@U?$pair@QAVThread@ACE_Based@@PAVSqlTransaction@@@std@@@2@@std@@@3@@std@@QBEIXZ 0040d530 f i AuthSocket.obj
 0001:0000c560       ??A?$vector@V?$_Iterator@$00@?$list@U?$pair@QAVThread@ACE_Based@@PAVSqlTransaction@@@std@@V?$allocator@U?$pair@QAVThread@ACE_Based@@PAVSqlTransaction@@@std@@@2@@std@@V?$allocator@V?$_Iterator@$00@?$list@U?$pair@QAVThread@ACE_Based@@PAVSqlTransaction@@@std@@V?$allocator@U?$pair@QAVThread@ACE_Based@@PAVSqlTransaction@@@std@@@2@@std@@@3@@std@@QBEABV?$_Iterator@$00@?$list@U?$pair@QAVThread@ACE_Based@@PAVSqlTransaction@@@std@@V?$allocator@U?$pair@QAVThread@ACE_Based@@PAVSqlTransaction@@@std@@@2@@1@I@Z 0040d560 f i AuthSocket.obj
 0001:0000c680       ??A?$vector@V?$_Iterator@$00@?$list@U?$pair@QAVThread@ACE_Based@@PAVSqlTransaction@@@std@@V?$allocator@U?$pair@QAVThread@ACE_Based@@PAVSqlTransaction@@@std@@@2@@std@@V?$allocator@V?$_Iterator@$00@?$list@U?$pair@QAVThread@ACE_Based@@PAVSqlTransaction@@@std@@V?$allocator@U?$pair@QAVThread@ACE_Based@@PAVSqlTransaction@@@std@@@2@@std@@@3@@std@@QAEAAV?$_Iterator@$00@?$list@U?$pair@QAVThread@ACE_Based@@PAVSqlTransaction@@@std@@V?$allocator@U?$pair@QAVThread@ACE_Based@@PAVSqlTransaction@@@std@@@2@@1@I@Z 0040d680 f i AuthSocket.obj
 0001:0000c7a0       ?_Buy@?$vector@V?$_Iterator@$00@?$list@U?$pair@QAVThread@ACE_Based@@PAVSqlTransaction@@@std@@V?$allocator@U?$pair@QAVThread@ACE_Based@@PAVSqlTransaction@@@std@@@2@@std@@V?$allocator@V?$_Iterator@$00@?$list@U?$pair@QAVThread@ACE_Based@@PAVSqlTransaction@@@std@@V?$allocator@U?$pair@QAVThread@ACE_Based@@PAVSqlTransaction@@@std@@@2@@std@@@3@@std@@IAE_NI@Z 0040d7a0 f i AuthSocket.obj
 0001:0000c840       ?_Tidy@?$vector@V?$_Iterator@$00@?$list@U?$pair@QAVThread@ACE_Based@@PAVSqlTransaction@@@std@@V?$allocator@U?$pair@QAVThread@ACE_Based@@PAVSqlTransaction@@@std@@@2@@std@@V?$allocator@V?$_Iterator@$00@?$list@U?$pair@QAVThread@ACE_Based@@PAVSqlTransaction@@@std@@V?$allocator@U?$pair@QAVThread@ACE_Based@@PAVSqlTransaction@@@std@@@2@@std@@@3@@std@@IAEXXZ 0040d840 f i AuthSocket.obj
 0001:0000c8e0       ??0?$_Vector_val@V?$_Iterator@$00@?$list@U?$pair@QAVThread@ACE_Based@@PAVSqlTransaction@@@std@@V?$allocator@U?$pair@QAVThread@ACE_Based@@PAVSqlTransaction@@@std@@@2@@std@@V?$allocator@V?$_Iterator@$00@?$list@U?$pair@QAVThread@ACE_Based@@PAVSqlTransaction@@@std@@V?$allocator@U?$pair@QAVThread@ACE_Based@@PAVSqlTransaction@@@std@@@2@@std@@@3@@std@@IAE@V?$allocator@V?$_Iterator@$00@?$list@U?$pair@QAVThread@ACE_Based@@PAVSqlTransaction@@@std@@V?$allocator@U?$pair@QAVThread@ACE_Based@@PAVSqlTransaction@@@std@@@2@@std@@@1@@Z 0040d8e0 f i AuthSocket.obj
 0001:0000c930       ??1?$_Container_base_aux_alloc_empty@V?$allocator@V?$_Iterator@$00@?$list@U?$pair@QAVThread@ACE_Based@@PAVSqlTransaction@@@std@@V?$allocator@U?$pair@QAVThread@ACE_Based@@PAVSqlTransaction@@@std@@@2@@std@@@std@@@std@@IAE@XZ 0040d930 f i AuthSocket.obj
 0001:0000c960       ??0?$allocator@V?$_Iterator@$00@?$list@U?$pair@QAVThread@ACE_Based@@PAVSqlTransaction@@@std@@V?$allocator@U?$pair@QAVThread@ACE_Based@@PAVSqlTransaction@@@std@@@2@@std@@@std@@QAE@ABV01@@Z 0040d960 f i AuthSocket.obj
 0001:0000c980       ?begin@?$_Hash@V?$_Umap_traits@PAVThread@ACE_Based@@PAVSqlResultQueue@@V?$_Hash_compare@PAVThread@ACE_Based@@V?$hash@PAVThread@ACE_Based@@@tr1@std@@U?$equal_to@PAVThread@ACE_Based@@@5@@stdext@@V?$allocator@U?$pair@QAVThread@ACE_Based@@PAVSqlResultQueue@@@std@@@std@@$0A@@tr1@std@@@stdext@@QAE?AV?$_Iterator@$00@?$list@U?$pair@QAVThread@ACE_Based@@PAVSqlResultQueue@@@std@@V?$allocator@U?$pair@QAVThread@ACE_Based@@PAVSqlResultQueue@@@std@@@2@@std@@XZ 0040d980 f i AuthSocket.obj
 0001:0000c9d0       ?begin@?$_Hash@V?$_Umap_traits@PAVThread@ACE_Based@@PAVSqlResultQueue@@V?$_Hash_compare@PAVThread@ACE_Based@@V?$hash@PAVThread@ACE_Based@@@tr1@std@@U?$equal_to@PAVThread@ACE_Based@@@5@@stdext@@V?$allocator@U?$pair@QAVThread@ACE_Based@@PAVSqlResultQueue@@@std@@@std@@$0A@@tr1@std@@@stdext@@QBE?AV?$_Const_iterator@$00@?$list@U?$pair@QAVThread@ACE_Based@@PAVSqlResultQueue@@@std@@V?$allocator@U?$pair@QAVThread@ACE_Based@@PAVSqlResultQueue@@@std@@@2@@std@@XZ 0040d9d0 f i AuthSocket.obj
 0001:0000ca20       ?end@?$_Hash@V?$_Umap_traits@PAVThread@ACE_Based@@PAVSqlResultQueue@@V?$_Hash_compare@PAVThread@ACE_Based@@V?$hash@PAVThread@ACE_Based@@@tr1@std@@U?$equal_to@PAVThread@ACE_Based@@@5@@stdext@@V?$allocator@U?$pair@QAVThread@ACE_Based@@PAVSqlResultQueue@@@std@@@std@@$0A@@tr1@std@@@stdext@@QAE?AV?$_Iterator@$00@?$list@U?$pair@QAVThread@ACE_Based@@PAVSqlResultQueue@@@std@@V?$allocator@U?$pair@QAVThread@ACE_Based@@PAVSqlResultQueue@@@std@@@2@@std@@XZ 0040da20 f i AuthSocket.obj
 0001:0000ca70       ?_Init@?$_Hash@V?$_Umap_traits@PAVThread@ACE_Based@@PAVSqlResultQueue@@V?$_Hash_compare@PAVThread@ACE_Based@@V?$hash@PAVThread@ACE_Based@@@tr1@std@@U?$equal_to@PAVThread@ACE_Based@@@5@@stdext@@V?$allocator@U?$pair@QAVThread@ACE_Based@@PAVSqlResultQueue@@@std@@@std@@$0A@@tr1@std@@@stdext@@IAEXI@Z 0040da70 f i AuthSocket.obj
 0001:0000cb20       ??0?$allocator@U?$pair@QAVThread@ACE_Based@@PAVSqlResultQueue@@@std@@@std@@QAE@ABV01@@Z 0040db20 f i AuthSocket.obj
 0001:0000cb40       ?begin@?$list@U?$pair@QAVThread@ACE_Based@@PAVSqlResultQueue@@@std@@V?$allocator@U?$pair@QAVThread@ACE_Based@@PAVSqlResultQueue@@@std@@@2@@std@@QBE?AV?$_Const_iterator@$00@12@XZ 0040db40 f i AuthSocket.obj
 0001:0000cba0       ?end@?$list@U?$pair@QAVThread@ACE_Based@@PAVSqlResultQueue@@@std@@V?$allocator@U?$pair@QAVThread@ACE_Based@@PAVSqlResultQueue@@@std@@@2@@std@@QBE?AV?$_Const_iterator@$00@12@XZ 0040dba0 f i AuthSocket.obj
 0001:0000cbf0       ?get_allocator@?$list@U?$pair@QAVThread@ACE_Based@@PAVSqlResultQueue@@@std@@V?$allocator@U?$pair@QAVThread@ACE_Based@@PAVSqlResultQueue@@@std@@@2@@std@@QBE?AV?$allocator@U?$pair@QAVThread@ACE_Based@@PAVSqlResultQueue@@@std@@@2@XZ 0040dbf0 f i AuthSocket.obj
 0001:0000cc20       ?clear@?$list@U?$pair@QAVThread@ACE_Based@@PAVSqlResultQueue@@@std@@V?$allocator@U?$pair@QAVThread@ACE_Based@@PAVSqlResultQueue@@@std@@@2@@std@@QAEXXZ 0040dc20 f i AuthSocket.obj
 0001:0000ccf0       ?_Buynode@?$list@U?$pair@QAVThread@ACE_Based@@PAVSqlResultQueue@@@std@@V?$allocator@U?$pair@QAVThread@ACE_Based@@PAVSqlResultQueue@@@std@@@2@@std@@IAEPAU_Node@?$_List_nod@U?$pair@QAVThread@ACE_Based@@PAVSqlResultQueue@@@std@@V?$allocator@U?$pair@QAVThread@ACE_Based@@PAVSqlResultQueue@@@std@@@2@@2@XZ 0040dcf0 f i AuthSocket.obj
 0001:0000ce40       ?_Tidy@?$list@U?$pair@QAVThread@ACE_Based@@PAVSqlResultQueue@@@std@@V?$allocator@U?$pair@QAVThread@ACE_Based@@PAVSqlResultQueue@@@std@@@2@@std@@IAEXXZ 0040de40 f i AuthSocket.obj
 0001:0000cec0       ??0?$_List_val@U?$pair@QAVThread@ACE_Based@@PAVSqlResultQueue@@@std@@V?$allocator@U?$pair@QAVThread@ACE_Based@@PAVSqlResultQueue@@@std@@@2@@std@@QAE@V?$allocator@U?$pair@QAVThread@ACE_Based@@PAVSqlResultQueue@@@std@@@1@@Z 0040dec0 f i AuthSocket.obj
 0001:0000cf10       ??1?$_Container_base_aux_alloc_empty@V?$allocator@U?$pair@QAVThread@ACE_Based@@PAVSqlResultQueue@@@std@@@std@@@std@@IAE@XZ 0040df10 f i AuthSocket.obj
 0001:0000cf40       ?begin@?$vector@V?$_Iterator@$00@?$list@U?$pair@QAVThread@ACE_Based@@PAVSqlResultQueue@@@std@@V?$allocator@U?$pair@QAVThread@ACE_Based@@PAVSqlResultQueue@@@std@@@2@@std@@V?$allocator@V?$_Iterator@$00@?$list@U?$pair@QAVThread@ACE_Based@@PAVSqlResultQueue@@@std@@V?$allocator@U?$pair@QAVThread@ACE_Based@@PAVSqlResultQueue@@@std@@@2@@std@@@3@@std@@QAE?AV?$_Vector_iterator@V?$_Iterator@$00@?$list@U?$pair@QAVThread@ACE_Based@@PAVSqlResultQueue@@@std@@V?$allocator@U?$pair@QAVThread@ACE_Based@@PAVSqlResultQueue@@@std@@@2@@std@@V?$allocator@V?$_Iterator@$00@?$list@U?$pair@QAVThread@ACE_Based@@PAVSqlResultQueue@@@std@@V?$allocator@U?$pair@QAVThread@ACE_Based@@PAVSqlResultQueue@@@std@@@2@@std@@@3@@2@XZ 0040df40 f i AuthSocket.obj
 0001:0000cf90       ?end@?$vector@V?$_Iterator@$00@?$list@U?$pair@QAVThread@ACE_Based@@PAVSqlResultQueue@@@std@@V?$allocator@U?$pair@QAVThread@ACE_Based@@PAVSqlResultQueue@@@std@@@2@@std@@V?$allocator@V?$_Iterator@$00@?$list@U?$pair@QAVThread@ACE_Based@@PAVSqlResultQueue@@@std@@V?$allocator@U?$pair@QAVThread@ACE_Based@@PAVSqlResultQueue@@@std@@@2@@std@@@3@@std@@QAE?AV?$_Vector_iterator@V?$_Iterator@$00@?$list@U?$pair@QAVThread@ACE_Based@@PAVSqlResultQueue@@@std@@V?$allocator@U?$pair@QAVThread@ACE_Based@@PAVSqlResultQueue@@@std@@@2@@std@@V?$allocator@V?$_Iterator@$00@?$list@U?$pair@QAVThread@ACE_Based@@PAVSqlResultQueue@@@std@@V?$allocator@U?$pair@QAVThread@ACE_Based@@PAVSqlResultQueue@@@std@@@2@@std@@@3@@2@XZ 0040df90 f i AuthSocket.obj
 0001:0000cfe0       ?resize@?$vector@V?$_Iterator@$00@?$list@U?$pair@QAVThread@ACE_Based@@PAVSqlResultQueue@@@std@@V?$allocator@U?$pair@QAVThread@ACE_Based@@PAVSqlResultQueue@@@std@@@2@@std@@V?$allocator@V?$_Iterator@$00@?$list@U?$pair@QAVThread@ACE_Based@@PAVSqlResultQueue@@@std@@V?$allocator@U?$pair@QAVThread@ACE_Based@@PAVSqlResultQueue@@@std@@@2@@std@@@3@@std@@QAEXIV?$_Iterator@$00@?$list@U?$pair@QAVThread@ACE_Based@@PAVSqlResultQueue@@@std@@V?$allocator@U?$pair@QAVThread@ACE_Based@@PAVSqlResultQueue@@@std@@@2@@2@@Z 0040dfe0 f i AuthSocket.obj
 0001:0000d1a0       ?size@?$vector@V?$_Iterator@$00@?$list@U?$pair@QAVThread@ACE_Based@@PAVSqlResultQueue@@@std@@V?$allocator@U?$pair@QAVThread@ACE_Based@@PAVSqlResultQueue@@@std@@@2@@std@@V?$allocator@V?$_Iterator@$00@?$list@U?$pair@QAVThread@ACE_Based@@PAVSqlResultQueue@@@std@@V?$allocator@U?$pair@QAVThread@ACE_Based@@PAVSqlResultQueue@@@std@@@2@@std@@@3@@std@@QBEIXZ 0040e1a0 f i AuthSocket.obj
 0001:0000d1d0       ??A?$vector@V?$_Iterator@$00@?$list@U?$pair@QAVThread@ACE_Based@@PAVSqlResultQueue@@@std@@V?$allocator@U?$pair@QAVThread@ACE_Based@@PAVSqlResultQueue@@@std@@@2@@std@@V?$allocator@V?$_Iterator@$00@?$list@U?$pair@QAVThread@ACE_Based@@PAVSqlResultQueue@@@std@@V?$allocator@U?$pair@QAVThread@ACE_Based@@PAVSqlResultQueue@@@std@@@2@@std@@@3@@std@@QBEABV?$_Iterator@$00@?$list@U?$pair@QAVThread@ACE_Based@@PAVSqlResultQueue@@@std@@V?$allocator@U?$pair@QAVThread@ACE_Based@@PAVSqlResultQueue@@@std@@@2@@1@I@Z 0040e1d0 f i AuthSocket.obj
 0001:0000d2f0       ??A?$vector@V?$_Iterator@$00@?$list@U?$pair@QAVThread@ACE_Based@@PAVSqlResultQueue@@@std@@V?$allocator@U?$pair@QAVThread@ACE_Based@@PAVSqlResultQueue@@@std@@@2@@std@@V?$allocator@V?$_Iterator@$00@?$list@U?$pair@QAVThread@ACE_Based@@PAVSqlResultQueue@@@std@@V?$allocator@U?$pair@QAVThread@ACE_Based@@PAVSqlResultQueue@@@std@@@2@@std@@@3@@std@@QAEAAV?$_Iterator@$00@?$list@U?$pair@QAVThread@ACE_Based@@PAVSqlResultQueue@@@std@@V?$allocator@U?$pair@QAVThread@ACE_Based@@PAVSqlResultQueue@@@std@@@2@@1@I@Z 0040e2f0 f i AuthSocket.obj
 0001:0000d410       ?_Buy@?$vector@V?$_Iterator@$00@?$list@U?$pair@QAVThread@ACE_Based@@PAVSqlResultQueue@@@std@@V?$allocator@U?$pair@QAVThread@ACE_Based@@PAVSqlResultQueue@@@std@@@2@@std@@V?$allocator@V?$_Iterator@$00@?$list@U?$pair@QAVThread@ACE_Based@@PAVSqlResultQueue@@@std@@V?$allocator@U?$pair@QAVThread@ACE_Based@@PAVSqlResultQueue@@@std@@@2@@std@@@3@@std@@IAE_NI@Z 0040e410 f i AuthSocket.obj
 0001:0000d4b0       ?_Tidy@?$vector@V?$_Iterator@$00@?$list@U?$pair@QAVThread@ACE_Based@@PAVSqlResultQueue@@@std@@V?$allocator@U?$pair@QAVThread@ACE_Based@@PAVSqlResultQueue@@@std@@@2@@std@@V?$allocator@V?$_Iterator@$00@?$list@U?$pair@QAVThread@ACE_Based@@PAVSqlResultQueue@@@std@@V?$allocator@U?$pair@QAVThread@ACE_Based@@PAVSqlResultQueue@@@std@@@2@@std@@@3@@std@@IAEXXZ 0040e4b0 f i AuthSocket.obj
 0001:0000d550       ??0?$_Vector_val@V?$_Iterator@$00@?$list@U?$pair@QAVThread@ACE_Based@@PAVSqlResultQueue@@@std@@V?$allocator@U?$pair@QAVThread@ACE_Based@@PAVSqlResultQueue@@@std@@@2@@std@@V?$allocator@V?$_Iterator@$00@?$list@U?$pair@QAVThread@ACE_Based@@PAVSqlResultQueue@@@std@@V?$allocator@U?$pair@QAVThread@ACE_Based@@PAVSqlResultQueue@@@std@@@2@@std@@@3@@std@@IAE@V?$allocator@V?$_Iterator@$00@?$list@U?$pair@QAVThread@ACE_Based@@PAVSqlResultQueue@@@std@@V?$allocator@U?$pair@QAVThread@ACE_Based@@PAVSqlResultQueue@@@std@@@2@@std@@@1@@Z 0040e550 f i AuthSocket.obj
 0001:0000d5a0       ??1?$_Container_base_aux_alloc_empty@V?$allocator@V?$_Iterator@$00@?$list@U?$pair@QAVThread@ACE_Based@@PAVSqlResultQueue@@@std@@V?$allocator@U?$pair@QAVThread@ACE_Based@@PAVSqlResultQueue@@@std@@@2@@std@@@std@@@std@@IAE@XZ 0040e5a0 f i AuthSocket.obj
 0001:0000d5d0       ??0?$allocator@V?$_Iterator@$00@?$list@U?$pair@QAVThread@ACE_Based@@PAVSqlResultQueue@@@std@@V?$allocator@U?$pair@QAVThread@ACE_Based@@PAVSqlResultQueue@@@std@@@2@@std@@@std@@QAE@ABV01@@Z 0040e5d0 f i AuthSocket.obj
 0001:0000d5f0       ?_Make_iter@?$vector@EV?$allocator@E@std@@@std@@QBE?AV?$_Vector_iterator@EV?$allocator@E@std@@@2@V?$_Vector_const_iterator@EV?$allocator@E@std@@@2@@Z 0040e5f0 f i AuthSocket.obj
 0001:0000d680       ?_Insert_n@?$vector@EV?$allocator@E@std@@@std@@IAEXV?$_Vector_const_iterator@EV?$allocator@E@std@@@2@IABE@Z 0040e680 f i AuthSocket.obj
 0001:0000dac0       ?_Orphan_range@?$vector@EV?$allocator@E@std@@@std@@IBEXPAE0@Z 0040eac0 f i AuthSocket.obj
 0001:0000dba0       ??0?$_Container_base_aux_alloc_empty@V?$allocator@E@std@@@std@@IAE@V?$allocator@E@1@@Z 0040eba0 f i AuthSocket.obj
 0001:0000dbe0       ?max_size@?$allocator@E@std@@QBEIXZ 0040ebe0 f i AuthSocket.obj
 0001:0000dc30       ?_Left@?$_Tree@V?$_Tmap_traits@V?$basic_string@DU?$char_traits@D@std@@V?$allocator@D@2@@std@@URealm@@U?$less@V?$basic_string@DU?$char_traits@D@std@@V?$allocator@D@2@@std@@@2@V?$allocator@U?$pair@$$CBV?$basic_string@DU?$char_traits@D@std@@V?$allocator@D@2@@std@@URealm@@@std@@@2@$0A@@std@@@std@@KAAAPAU_Node@?$_Tree_nod@V?$_Tmap_traits@V?$basic_string@DU?$char_traits@D@std@@V?$allocator@D@2@@std@@URealm@@U?$less@V?$basic_string@DU?$char_traits@D@std@@V?$allocator@D@2@@std@@@2@V?$allocator@U?$pair@$$CBV?$basic_string@DU?$char_traits@D@std@@V?$allocator@D@2@@std@@URealm@@@std@@@2@$0A@@std@@@2@PAU342@@Z 0040ec30 f i AuthSocket.obj
 0001:0000dc40       ?_Myval@?$_Tree@V?$_Tmap_traits@V?$basic_string@DU?$char_traits@D@std@@V?$allocator@D@2@@std@@URealm@@U?$less@V?$basic_string@DU?$char_traits@D@std@@V?$allocator@D@2@@std@@@2@V?$allocator@U?$pair@$$CBV?$basic_string@DU?$char_traits@D@std@@V?$allocator@D@2@@std@@URealm@@@std@@@2@$0A@@std@@@std@@KAAAU?$pair@$$CBV?$basic_string@DU?$char_traits@D@std@@V?$allocator@D@2@@std@@URealm@@@2@PAU_Node@?$_Tree_nod@V?$_Tmap_traits@V?$basic_string@DU?$char_traits@D@std@@V?$allocator@D@2@@std@@URealm@@U?$less@V?$basic_string@DU?$char_traits@D@std@@V?$allocator@D@2@@std@@@2@V?$allocator@U?$pair@$$CBV?$basic_string@DU?$char_traits@D@std@@V?$allocator@D@2@@std@@URealm@@@std@@@2@$0A@@std@@@2@@Z 0040ec40 f i AuthSocket.obj
 0001:0000dc50       ?_Inc@const_iterator@?$_Tree@V?$_Tmap_traits@V?$basic_string@DU?$char_traits@D@std@@V?$allocator@D@2@@std@@URealm@@U?$less@V?$basic_string@DU?$char_traits@D@std@@V?$allocator@D@2@@std@@@2@V?$allocator@U?$pair@$$CBV?$basic_string@DU?$char_traits@D@std@@V?$allocator@D@2@@std@@URealm@@@std@@@2@$0A@@std@@@std@@QAEXXZ 0040ec50 f i AuthSocket.obj
 0001:0000ddb0       ?_Parent@?$_Tree@V?$_Tmap_traits@V?$basic_string@DU?$char_traits@D@std@@V?$allocator@D@2@@std@@URealm@@U?$less@V?$basic_string@DU?$char_traits@D@std@@V?$allocator@D@2@@std@@@2@V?$allocator@U?$pair@$$CBV?$basic_string@DU?$char_traits@D@std@@V?$allocator@D@2@@std@@URealm@@@std@@@2@$0A@@std@@@std@@KAAAPAU_Node@?$_Tree_nod@V?$_Tmap_traits@V?$basic_string@DU?$char_traits@D@std@@V?$allocator@D@2@@std@@URealm@@U?$less@V?$basic_string@DU?$char_traits@D@std@@V?$allocator@D@2@@std@@@2@V?$allocator@U?$pair@$$CBV?$basic_string@DU?$char_traits@D@std@@V?$allocator@D@2@@std@@URealm@@@std@@@2@$0A@@std@@@2@PAU342@@Z 0040edb0 f i AuthSocket.obj
 0001:0000ddc0       ?_Right@?$_Tree@V?$_Tmap_traits@V?$basic_string@DU?$char_traits@D@std@@V?$allocator@D@2@@std@@URealm@@U?$less@V?$basic_string@DU?$char_traits@D@std@@V?$allocator@D@2@@std@@@2@V?$allocator@U?$pair@$$CBV?$basic_string@DU?$char_traits@D@std@@V?$allocator@D@2@@std@@URealm@@@std@@@2@$0A@@std@@@std@@KAAAPAU_Node@?$_Tree_nod@V?$_Tmap_traits@V?$basic_string@DU?$char_traits@D@std@@V?$allocator@D@2@@std@@URealm@@U?$less@V?$basic_string@DU?$char_traits@D@std@@V?$allocator@D@2@@std@@@2@V?$allocator@U?$pair@$$CBV?$basic_string@DU?$char_traits@D@std@@V?$allocator@D@2@@std@@URealm@@@std@@@2@$0A@@std@@@2@PAU342@@Z 0040edc0 f i AuthSocket.obj
 0001:0000ddd0       ?_Isnil@?$_Tree@V?$_Tmap_traits@V?$basic_string@DU?$char_traits@D@std@@V?$allocator@D@2@@std@@PAUPATCH_INFO@@U?$less@V?$basic_string@DU?$char_traits@D@std@@V?$allocator@D@2@@std@@@2@V?$allocator@U?$pair@$$CBV?$basic_string@DU?$char_traits@D@std@@V?$allocator@D@2@@std@@PAUPATCH_INFO@@@std@@@2@$0A@@std@@@std@@KAAADPAU_Node@?$_Tree_nod@V?$_Tmap_traits@V?$basic_string@DU?$char_traits@D@std@@V?$allocator@D@2@@std@@PAUPATCH_INFO@@U?$less@V?$basic_string@DU?$char_traits@D@std@@V?$allocator@D@2@@std@@@2@V?$allocator@U?$pair@$$CBV?$basic_string@DU?$char_traits@D@std@@V?$allocator@D@2@@std@@PAUPATCH_INFO@@@std@@@2@$0A@@std@@@2@@Z 0040edd0 f i AuthSocket.obj
 0001:0000dde0       ?_Left@?$_Tree@V?$_Tmap_traits@V?$basic_string@DU?$char_traits@D@std@@V?$allocator@D@2@@std@@PAUPATCH_INFO@@U?$less@V?$basic_string@DU?$char_traits@D@std@@V?$allocator@D@2@@std@@@2@V?$allocator@U?$pair@$$CBV?$basic_string@DU?$char_traits@D@std@@V?$allocator@D@2@@std@@PAUPATCH_INFO@@@std@@@2@$0A@@std@@@std@@KAAAPAU_Node@?$_Tree_nod@V?$_Tmap_traits@V?$basic_string@DU?$char_traits@D@std@@V?$allocator@D@2@@std@@PAUPATCH_INFO@@U?$less@V?$basic_string@DU?$char_traits@D@std@@V?$allocator@D@2@@std@@@2@V?$allocator@U?$pair@$$CBV?$basic_string@DU?$char_traits@D@std@@V?$allocator@D@2@@std@@PAUPATCH_INFO@@@std@@@2@$0A@@std@@@2@PAU342@@Z 0040ede0 f i AuthSocket.obj
 0001:0000ddf0       ?_Parent@?$_Tree@V?$_Tmap_traits@V?$basic_string@DU?$char_traits@D@std@@V?$allocator@D@2@@std@@PAUPATCH_INFO@@U?$less@V?$basic_string@DU?$char_traits@D@std@@V?$allocator@D@2@@std@@@2@V?$allocator@U?$pair@$$CBV?$basic_string@DU?$char_traits@D@std@@V?$allocator@D@2@@std@@PAUPATCH_INFO@@@std@@@2@$0A@@std@@@std@@KAAAPAU_Node@?$_Tree_nod@V?$_Tmap_traits@V?$basic_string@DU?$char_traits@D@std@@V?$allocator@D@2@@std@@PAUPATCH_INFO@@U?$less@V?$basic_string@DU?$char_traits@D@std@@V?$allocator@D@2@@std@@@2@V?$allocator@U?$pair@$$CBV?$basic_string@DU?$char_traits@D@std@@V?$allocator@D@2@@std@@PAUPATCH_INFO@@@std@@@2@$0A@@std@@@2@PAU342@@Z 0040edf0 f i AuthSocket.obj
 0001:0000de00       ?_Right@?$_Tree@V?$_Tmap_traits@V?$basic_string@DU?$char_traits@D@std@@V?$allocator@D@2@@std@@PAUPATCH_INFO@@U?$less@V?$basic_string@DU?$char_traits@D@std@@V?$allocator@D@2@@std@@@2@V?$allocator@U?$pair@$$CBV?$basic_string@DU?$char_traits@D@std@@V?$allocator@D@2@@std@@PAUPATCH_INFO@@@std@@@2@$0A@@std@@@std@@KAAAPAU_Node@?$_Tree_nod@V?$_Tmap_traits@V?$basic_string@DU?$char_traits@D@std@@V?$allocator@D@2@@std@@PAUPATCH_INFO@@U?$less@V?$basic_string@DU?$char_traits@D@std@@V?$allocator@D@2@@std@@@2@V?$allocator@U?$pair@$$CBV?$basic_string@DU?$char_traits@D@std@@V?$allocator@D@2@@std@@PAUPATCH_INFO@@@std@@@2@$0A@@std@@@2@PAU342@@Z 0040ee00 f i AuthSocket.obj
 0001:0000de10       ?_Myval@?$_Tree@V?$_Tmap_traits@V?$basic_string@DU?$char_traits@D@std@@V?$allocator@D@2@@std@@PAUPATCH_INFO@@U?$less@V?$basic_string@DU?$char_traits@D@std@@V?$allocator@D@2@@std@@@2@V?$allocator@U?$pair@$$CBV?$basic_string@DU?$char_traits@D@std@@V?$allocator@D@2@@std@@PAUPATCH_INFO@@@std@@@2@$0A@@std@@@std@@KAAAU?$pair@$$CBV?$basic_string@DU?$char_traits@D@std@@V?$allocator@D@2@@std@@PAUPATCH_INFO@@@2@PAU_Node@?$_Tree_nod@V?$_Tmap_traits@V?$basic_string@DU?$char_traits@D@std@@V?$allocator@D@2@@std@@PAUPATCH_INFO@@U?$less@V?$basic_string@DU?$char_traits@D@std@@V?$allocator@D@2@@std@@@2@V?$allocator@U?$pair@$$CBV?$basic_string@DU?$char_traits@D@std@@V?$allocator@D@2@@std@@PAUPATCH_INFO@@@std@@@2@$0A@@std@@@2@@Z 0040ee10 f i AuthSocket.obj
 0001:0000de20       ?size@?$_Tree@V?$_Tmap_traits@V?$basic_string@DU?$char_traits@D@std@@V?$allocator@D@2@@std@@PAUPATCH_INFO@@U?$less@V?$basic_string@DU?$char_traits@D@std@@V?$allocator@D@2@@std@@@2@V?$allocator@U?$pair@$$CBV?$basic_string@DU?$char_traits@D@std@@V?$allocator@D@2@@std@@PAUPATCH_INFO@@@std@@@2@$0A@@std@@@std@@QBEIXZ 0040ee20 f i AuthSocket.obj
 0001:0000de40       ?insert@?$_Tree@V?$_Tmap_traits@V?$basic_string@DU?$char_traits@D@std@@V?$allocator@D@2@@std@@PAUPATCH_INFO@@U?$less@V?$basic_string@DU?$char_traits@D@std@@V?$allocator@D@2@@std@@@2@V?$allocator@U?$pair@$$CBV?$basic_string@DU?$char_traits@D@std@@V?$allocator@D@2@@std@@PAUPATCH_INFO@@@std@@@2@$0A@@std@@@std@@QAE?AU?$pair@Viterator@?$_Tree@V?$_Tmap_traits@V?$basic_string@DU?$char_traits@D@std@@V?$allocator@D@2@@std@@PAUPATCH_INFO@@U?$less@V?$basic_string@DU?$char_traits@D@std@@V?$allocator@D@2@@std@@@2@V?$allocator@U?$pair@$$CBV?$basic_string@DU?$char_traits@D@std@@V?$allocator@D@2@@std@@PAUPATCH_INFO@@@std@@@2@$0A@@std@@@std@@_N@2@ABU?$pair@$$CBV?$basic_string@DU?$char_traits@D@std@@V?$allocator@D@2@@std@@PAUPATCH_INFO@@@2@@Z 0040ee40 f i AuthSocket.obj
 0001:0000e1b0       ?erase@?$_Tree@V?$_Tmap_traits@V?$basic_string@DU?$char_traits@D@std@@V?$allocator@D@2@@std@@PAUPATCH_INFO@@U?$less@V?$basic_string@DU?$char_traits@D@std@@V?$allocator@D@2@@std@@@2@V?$allocator@U?$pair@$$CBV?$basic_string@DU?$char_traits@D@std@@V?$allocator@D@2@@std@@PAUPATCH_INFO@@@std@@@2@$0A@@std@@@std@@QAE?AViterator@12@Vconst_iterator@12@0@Z 0040f1b0 f i AuthSocket.obj
 0001:0000e3c0       ?_Init@?$_Tree@V?$_Tmap_traits@V?$basic_string@DU?$char_traits@D@std@@V?$allocator@D@2@@std@@PAUPATCH_INFO@@U?$less@V?$basic_string@DU?$char_traits@D@std@@V?$allocator@D@2@@std@@@2@V?$allocator@U?$pair@$$CBV?$basic_string@DU?$char_traits@D@std@@V?$allocator@D@2@@std@@PAUPATCH_INFO@@@std@@@2@$0A@@std@@@std@@IAEXXZ 0040f3c0 f i AuthSocket.obj
 0001:0000e440       ?_Insert@?$_Tree@V?$_Tmap_traits@V?$basic_string@DU?$char_traits@D@std@@V?$allocator@D@2@@std@@PAUPATCH_INFO@@U?$less@V?$basic_string@DU?$char_traits@D@std@@V?$allocator@D@2@@std@@@2@V?$allocator@U?$pair@$$CBV?$basic_string@DU?$char_traits@D@std@@V?$allocator@D@2@@std@@PAUPATCH_INFO@@@std@@@2@$0A@@std@@@std@@IAE?AViterator@12@_NPAU_Node@?$_Tree_nod@V?$_Tmap_traits@V?$basic_string@DU?$char_traits@D@std@@V?$allocator@D@2@@std@@PAUPATCH_INFO@@U?$less@V?$basic_string@DU?$char_traits@D@std@@V?$allocator@D@2@@std@@@2@V?$allocator@U?$pair@$$CBV?$basic_string@DU?$char_traits@D@std@@V?$allocator@D@2@@std@@PAUPATCH_INFO@@@std@@@2@$0A@@std@@@2@ABU?$pair@$$CBV?$basic_string@DU?$char_traits@D@std@@V?$allocator@D@2@@std@@PAUPATCH_INFO@@@2@@Z 0040f440 f i AuthSocket.obj
 0001:0000e900       ?_Lbound@?$_Tree@V?$_Tmap_traits@V?$basic_string@DU?$char_traits@D@std@@V?$allocator@D@2@@std@@PAUPATCH_INFO@@U?$less@V?$basic_string@DU?$char_traits@D@std@@V?$allocator@D@2@@std@@@2@V?$allocator@U?$pair@$$CBV?$basic_string@DU?$char_traits@D@std@@V?$allocator@D@2@@std@@PAUPATCH_INFO@@@std@@@2@$0A@@std@@@std@@IBEPAU_Node@?$_Tree_nod@V?$_Tmap_traits@V?$basic_string@DU?$char_traits@D@std@@V?$allocator@D@2@@std@@PAUPATCH_INFO@@U?$less@V?$basic_string@DU?$char_traits@D@std@@V?$allocator@D@2@@std@@@2@V?$allocator@U?$pair@$$CBV?$basic_string@DU?$char_traits@D@std@@V?$allocator@D@2@@std@@PAUPATCH_INFO@@@std@@@2@$0A@@std@@@2@ABV?$basic_string@DU?$char_traits@D@std@@V?$allocator@D@2@@2@@Z 0040f900 f i AuthSocket.obj
 0001:0000e9c0       ?_Rmost@?$_Tree@V?$_Tmap_traits@V?$basic_string@DU?$char_traits@D@std@@V?$allocator@D@2@@std@@PAUPATCH_INFO@@U?$less@V?$basic_string@DU?$char_traits@D@std@@V?$allocator@D@2@@std@@@2@V?$allocator@U?$pair@$$CBV?$basic_string@DU?$char_traits@D@std@@V?$allocator@D@2@@std@@PAUPATCH_INFO@@@std@@@2@$0A@@std@@@std@@IBEAAPAU_Node@?$_Tree_nod@V?$_Tmap_traits@V?$basic_string@DU?$char_traits@D@std@@V?$allocator@D@2@@std@@PAUPATCH_INFO@@U?$less@V?$basic_string@DU?$char_traits@D@std@@V?$allocator@D@2@@std@@@2@V?$allocator@U?$pair@$$CBV?$basic_string@DU?$char_traits@D@std@@V?$allocator@D@2@@std@@PAUPATCH_INFO@@@std@@@2@$0A@@std@@@2@XZ 0040f9c0 f i AuthSocket.obj
 0001:0000e9f0       ??0?$_Tree_val@V?$_Tmap_traits@V?$basic_string@DU?$char_traits@D@std@@V?$allocator@D@2@@std@@PAUPATCH_INFO@@U?$less@V?$basic_string@DU?$char_traits@D@std@@V?$allocator@D@2@@std@@@2@V?$allocator@U?$pair@$$CBV?$basic_string@DU?$char_traits@D@std@@V?$allocator@D@2@@std@@PAUPATCH_INFO@@@std@@@2@$0A@@std@@@std@@IAE@ABU?$less@V?$basic_string@DU?$char_traits@D@std@@V?$allocator@D@2@@std@@@1@V?$allocator@U?$pair@$$CBV?$basic_string@DU?$char_traits@D@std@@V?$allocator@D@2@@std@@PAUPATCH_INFO@@@std@@@1@@Z 0040f9f0 f i AuthSocket.obj
 0001:0000ea50       ?_Kfn@?$_Tmap_traits@V?$basic_string@DU?$char_traits@D@std@@V?$allocator@D@2@@std@@PAUPATCH_INFO@@U?$less@V?$basic_string@DU?$char_traits@D@std@@V?$allocator@D@2@@std@@@2@V?$allocator@U?$pair@$$CBV?$basic_string@DU?$char_traits@D@std@@V?$allocator@D@2@@std@@PAUPATCH_INFO@@@std@@@2@$0A@@std@@SAABV?$basic_string@DU?$char_traits@D@std@@V?$allocator@D@2@@2@ABU?$pair@$$CBV?$basic_string@DU?$char_traits@D@std@@V?$allocator@D@2@@std@@PAUPATCH_INFO@@@2@@Z 0040fa50 f i AuthSocket.obj
 0001:0000ea60       ??0?$allocator@U?$pair@$$CBV?$basic_string@DU?$char_traits@D@std@@V?$allocator@D@2@@std@@PAUPATCH_INFO@@@std@@@std@@QAE@ABV01@@Z 0040fa60 f i AuthSocket.obj
 0001:0000ea80       ?deallocate@?$allocator@U_Node@?$_Tree_nod@V?$_Tmap_traits@V?$basic_string@DU?$char_traits@D@std@@V?$allocator@D@2@@std@@PAUPATCH_INFO@@U?$less@V?$basic_string@DU?$char_traits@D@std@@V?$allocator@D@2@@std@@@2@V?$allocator@U?$pair@$$CBV?$basic_string@DU?$char_traits@D@std@@V?$allocator@D@2@@std@@PAUPATCH_INFO@@@std@@@2@$0A@@std@@@std@@@std@@QAEXPAU_Node@?$_Tree_nod@V?$_Tmap_traits@V?$basic_string@DU?$char_traits@D@std@@V?$allocator@D@2@@std@@PAUPATCH_INFO@@U?$less@V?$basic_string@DU?$char_traits@D@std@@V?$allocator@D@2@@std@@@2@V?$allocator@U?$pair@$$CBV?$basic_string@DU?$char_traits@D@std@@V?$allocator@D@2@@std@@PAUPATCH_INFO@@@std@@@2@$0A@@std@@@2@I@Z 0040fa80 f i AuthSocket.obj
 0001:0000eab0       ?destroy@?$allocator@PAU_Node@?$_Tree_nod@V?$_Tmap_traits@V?$basic_string@DU?$char_traits@D@std@@V?$allocator@D@2@@std@@PAUPATCH_INFO@@U?$less@V?$basic_string@DU?$char_traits@D@std@@V?$allocator@D@2@@std@@@2@V?$allocator@U?$pair@$$CBV?$basic_string@DU?$char_traits@D@std@@V?$allocator@D@2@@std@@PAUPATCH_INFO@@@std@@@2@$0A@@std@@@std@@@std@@QAEXPAPAU_Node@?$_Tree_nod@V?$_Tmap_traits@V?$basic_string@DU?$char_traits@D@std@@V?$allocator@D@2@@std@@PAUPATCH_INFO@@U?$less@V?$basic_string@DU?$char_traits@D@std@@V?$allocator@D@2@@std@@@2@V?$allocator@U?$pair@$$CBV?$basic_string@DU?$char_traits@D@std@@V?$allocator@D@2@@std@@PAUPATCH_INFO@@@std@@@2@$0A@@std@@@2@@Z 0040fab0 f i AuthSocket.obj
 0001:0000eae0       ??0const_iterator@?$_Tree@V?$_Tmap_traits@V?$basic_string@DU?$char_traits@D@std@@V?$allocator@D@2@@std@@PAUPATCH_INFO@@U?$less@V?$basic_string@DU?$char_traits@D@std@@V?$allocator@D@2@@std@@@2@V?$allocator@U?$pair@$$CBV?$basic_string@DU?$char_traits@D@std@@V?$allocator@D@2@@std@@PAUPATCH_INFO@@@std@@@2@$0A@@std@@@std@@QAE@XZ 0040fae0 f i AuthSocket.obj
 0001:0000eb20       ??Dconst_iterator@?$_Tree@V?$_Tmap_traits@V?$basic_string@DU?$char_traits@D@std@@V?$allocator@D@2@@std@@PAUPATCH_INFO@@U?$less@V?$basic_string@DU?$char_traits@D@std@@V?$allocator@D@2@@std@@@2@V?$allocator@U?$pair@$$CBV?$basic_string@DU?$char_traits@D@std@@V?$allocator@D@2@@std@@PAUPATCH_INFO@@@std@@@2@$0A@@std@@@std@@QBEABU?$pair@$$CBV?$basic_string@DU?$char_traits@D@std@@V?$allocator@D@2@@std@@PAUPATCH_INFO@@@2@XZ 0040fb20 f i AuthSocket.obj
 0001:0000ebf0       ??Econst_iterator@?$_Tree@V?$_Tmap_traits@V?$basic_string@DU?$char_traits@D@std@@V?$allocator@D@2@@std@@PAUPATCH_INFO@@U?$less@V?$basic_string@DU?$char_traits@D@std@@V?$allocator@D@2@@std@@@2@V?$allocator@U?$pair@$$CBV?$basic_string@DU?$char_traits@D@std@@V?$allocator@D@2@@std@@PAUPATCH_INFO@@@std@@@2@$0A@@std@@@std@@QAEAAV012@XZ 0040fbf0 f i AuthSocket.obj
 0001:0000ec20       ??Fconst_iterator@?$_Tree@V?$_Tmap_traits@V?$basic_string@DU?$char_traits@D@std@@V?$allocator@D@2@@std@@PAUPATCH_INFO@@U?$less@V?$basic_string@DU?$char_traits@D@std@@V?$allocator@D@2@@std@@@2@V?$allocator@U?$pair@$$CBV?$basic_string@DU?$char_traits@D@std@@V?$allocator@D@2@@std@@PAUPATCH_INFO@@@std@@@2@$0A@@std@@@std@@QAEAAV012@XZ 0040fc20 f i AuthSocket.obj
 0001:0000ec50       ??0?$_Vector_const_iterator@V?$basic_string@DU?$char_traits@D@std@@V?$allocator@D@2@@std@@V?$allocator@V?$basic_string@DU?$char_traits@D@std@@V?$allocator@D@2@@std@@@2@@std@@QAE@PAV?$basic_string@DU?$char_traits@D@std@@V?$allocator@D@2@@1@PBV_Container_base_secure@1@@Z 0040fc50 f i AuthSocket.obj
 0001:0000ed40       ??9?$_Vector_const_iterator@EV?$allocator@E@std@@@std@@QBE_NABV01@@Z 0040fd40 f i AuthSocket.obj
 0001:0000ed80       ??M?$_Vector_const_iterator@EV?$allocator@E@std@@@std@@QBE_NABV01@@Z 0040fd80 f i AuthSocket.obj
 0001:0000edc0       ??0?$_Vector_iterator@EV?$allocator@E@std@@@std@@QAE@PAEPBV_Container_base_secure@1@@Z 0040fdc0 f i AuthSocket.obj
 0001:0000ee00       ??0?$_Vector_const_iterator@EV?$allocator@E@std@@@std@@QAE@PAEPBV_Container_base_secure@1@@Z 0040fe00 f i AuthSocket.obj
 0001:0000eef0       ??H?$_Vector_iterator@EV?$allocator@E@std@@@std@@QBE?AV01@H@Z 0040fef0 f i AuthSocket.obj
 0001:0000efd0       ??E?$_Iterator@$00@?$list@U?$pair@QAVThread@ACE_Based@@PAVSqlTransaction@@@std@@V?$allocator@U?$pair@QAVThread@ACE_Based@@PAVSqlTransaction@@@std@@@2@@std@@QAEAAV012@XZ 0040ffd0 f i AuthSocket.obj
 0001:0000f000       ??E?$_Const_iterator@$00@?$list@U?$pair@QAVThread@ACE_Based@@PAVSqlTransaction@@@std@@V?$allocator@U?$pair@QAVThread@ACE_Based@@PAVSqlTransaction@@@std@@@2@@std@@QAEAAV012@XZ 00410000 f i AuthSocket.obj
 0001:0000f0e0       ??8?$_Const_iterator@$00@?$list@U?$pair@QAVThread@ACE_Based@@PAVSqlTransaction@@@std@@V?$allocator@U?$pair@QAVThread@ACE_Based@@PAVSqlTransaction@@@std@@@2@@std@@QBE_NABV012@@Z 004100e0 f i AuthSocket.obj
 0001:0000f120       ??E?$_Iterator@$00@?$list@U?$pair@QAVThread@ACE_Based@@PAVSqlResultQueue@@@std@@V?$allocator@U?$pair@QAVThread@ACE_Based@@PAVSqlResultQueue@@@std@@@2@@std@@QAEAAV012@XZ 00410120 f i AuthSocket.obj
 0001:0000f150       ??E?$_Const_iterator@$00@?$list@U?$pair@QAVThread@ACE_Based@@PAVSqlResultQueue@@@std@@V?$allocator@U?$pair@QAVThread@ACE_Based@@PAVSqlResultQueue@@@std@@@2@@std@@QAEAAV012@XZ 00410150 f i AuthSocket.obj
 0001:0000f230       ??8?$_Const_iterator@$00@?$list@U?$pair@QAVThread@ACE_Based@@PAVSqlResultQueue@@@std@@V?$allocator@U?$pair@QAVThread@ACE_Based@@PAVSqlResultQueue@@@std@@@2@@std@@QBE_NABV012@@Z 00410230 f i AuthSocket.obj
 0001:0000f270       ??0?$_Vector_const_iterator@V?$_Iterator@$00@?$list@U?$pair@QAVThread@ACE_Based@@PAVSqlTransaction@@@std@@V?$allocator@U?$pair@QAVThread@ACE_Based@@PAVSqlTransaction@@@std@@@2@@std@@V?$allocator@V?$_Iterator@$00@?$list@U?$pair@QAVThread@ACE_Based@@PAVSqlTransaction@@@std@@V?$allocator@U?$pair@QAVThread@ACE_Based@@PAVSqlTransaction@@@std@@@2@@std@@@3@@std@@QAE@ABV01@@Z 00410270 f i AuthSocket.obj
 0001:0000f2b0       ??0?$_Vector_const_iterator@V?$_Iterator@$00@?$list@U?$pair@QAVThread@ACE_Based@@PAVSqlResultQueue@@@std@@V?$allocator@U?$pair@QAVThread@ACE_Based@@PAVSqlResultQueue@@@std@@@2@@std@@V?$allocator@V?$_Iterator@$00@?$list@U?$pair@QAVThread@ACE_Based@@PAVSqlResultQueue@@@std@@V?$allocator@U?$pair@QAVThread@ACE_Based@@PAVSqlResultQueue@@@std@@@2@@std@@@3@@std@@QAE@ABV01@@Z 004102b0 f i AuthSocket.obj
 0001:0000f2f0       ??0?$_Ranit@V?$basic_string@DU?$char_traits@D@std@@V?$allocator@D@2@@std@@HPBV12@ABV12@@std@@QAE@XZ 004102f0 f i AuthSocket.obj
 0001:0000f320       ??0?$_Ranit@EHPBEABE@std@@QAE@XZ 00410320 f i AuthSocket.obj
 0001:0000f350       ??0?$_Vector_iterator@EV?$allocator@E@std@@@std@@QAE@ABV01@@Z 00410350 f i AuthSocket.obj
 0001:0000f380       ??0?$_Ranit@V?$_Iterator@$00@?$list@U?$pair@QAVThread@ACE_Based@@PAVSqlTransaction@@@std@@V?$allocator@U?$pair@QAVThread@ACE_Based@@PAVSqlTransaction@@@std@@@2@@std@@HPBV123@ABV123@@std@@QAE@ABU01@@Z 00410380 f i AuthSocket.obj
 0001:0000f3b0       ??0?$_Ranit@V?$_Iterator@$00@?$list@U?$pair@QAVThread@ACE_Based@@PAVSqlResultQueue@@@std@@V?$allocator@U?$pair@QAVThread@ACE_Based@@PAVSqlResultQueue@@@std@@@2@@std@@HPBV123@ABV123@@std@@QAE@ABU01@@Z 004103b0 f i AuthSocket.obj
 0001:0000f3e0       ??0?$_Iterator_with_base@Urandom_access_iterator_tag@std@@V?$basic_string@DU?$char_traits@D@std@@V?$allocator@D@2@@2@HPBV32@ABV32@V_Iterator_base@2@@std@@QAE@XZ 004103e0 f i AuthSocket.obj
 0001:0000f410       ??0?$_Iterator_with_base@Urandom_access_iterator_tag@std@@EHPBEABEV_Iterator_base@2@@std@@QAE@XZ 00410410 f i AuthSocket.obj
 0001:0000f440       ??0?$_Iterator_with_base@Urandom_access_iterator_tag@std@@V?$_Iterator@$00@?$list@U?$pair@QAVThread@ACE_Based@@PAVSqlTransaction@@@std@@V?$allocator@U?$pair@QAVThread@ACE_Based@@PAVSqlTransaction@@@std@@@2@@2@HPBV342@ABV342@V_Iterator_base@2@@std@@QAE@ABU01@@Z 00410440 f i AuthSocket.obj
 0001:0000f470       ??0?$_Iterator_with_base@Urandom_access_iterator_tag@std@@V?$_Iterator@$00@?$list@U?$pair@QAVThread@ACE_Based@@PAVSqlResultQueue@@@std@@V?$allocator@U?$pair@QAVThread@ACE_Based@@PAVSqlResultQueue@@@std@@@2@@2@HPBV342@ABV342@V_Iterator_base@2@@std@@QAE@ABU01@@Z 00410470 f i AuthSocket.obj
 0001:0000f4a0       ?_Make_iter@?$vector@V?$basic_string@DU?$char_traits@D@std@@V?$allocator@D@2@@std@@V?$allocator@V?$basic_string@DU?$char_traits@D@std@@V?$allocator@D@2@@std@@@2@@std@@QBE?AV?$_Vector_iterator@V?$basic_string@DU?$char_traits@D@std@@V?$allocator@D@2@@std@@V?$allocator@V?$basic_string@DU?$char_traits@D@std@@V?$allocator@D@2@@std@@@2@@2@V?$_Vector_const_iterator@V?$basic_string@DU?$char_traits@D@std@@V?$allocator@D@2@@std@@V?$allocator@V?$basic_string@DU?$char_traits@D@std@@V?$allocator@D@2@@std@@@2@@2@@Z 004104a0 f i AuthSocket.obj
 0001:0000f530       ?_Orphan_range@?$vector@V?$basic_string@DU?$char_traits@D@std@@V?$allocator@D@2@@std@@V?$allocator@V?$basic_string@DU?$char_traits@D@std@@V?$allocator@D@2@@std@@@2@@std@@IBEXPAV?$basic_string@DU?$char_traits@D@std@@V?$allocator@D@2@@2@0@Z 00410530 f i AuthSocket.obj
 0001:0000f610       ?max_size@?$allocator@V?$basic_string@DU?$char_traits@D@std@@V?$allocator@D@2@@std@@@std@@QBEIXZ 00410610 f i AuthSocket.obj
 0001:0000f660       ?_Nextnode@?$list@U?$pair@QAVThread@ACE_Based@@PAVSqlTransaction@@@std@@V?$allocator@U?$pair@QAVThread@ACE_Based@@PAVSqlTransaction@@@std@@@2@@std@@KAAAPAU_Node@?$_List_nod@U?$pair@QAVThread@ACE_Based@@PAVSqlTransaction@@@std@@V?$allocator@U?$pair@QAVThread@ACE_Based@@PAVSqlTransaction@@@std@@@2@@2@PAU342@@Z 00410660 f i AuthSocket.obj
 0001:0000f670       ?_Prevnode@?$list@U?$pair@QAVThread@ACE_Based@@PAVSqlTransaction@@@std@@V?$allocator@U?$pair@QAVThread@ACE_Based@@PAVSqlTransaction@@@std@@@2@@std@@KAAAPAU_Node@?$_List_nod@U?$pair@QAVThread@ACE_Based@@PAVSqlTransaction@@@std@@V?$allocator@U?$pair@QAVThread@ACE_Based@@PAVSqlTransaction@@@std@@@2@@2@PAU342@@Z 00410670 f i AuthSocket.obj
 0001:0000f680       ?begin@?$list@U?$pair@QAVThread@ACE_Based@@PAVSqlTransaction@@@std@@V?$allocator@U?$pair@QAVThread@ACE_Based@@PAVSqlTransaction@@@std@@@2@@std@@QAE?AV?$_Iterator@$00@12@XZ 00410680 f i AuthSocket.obj
 0001:0000f6e0       ?end@?$list@U?$pair@QAVThread@ACE_Based@@PAVSqlTransaction@@@std@@V?$allocator@U?$pair@QAVThread@ACE_Based@@PAVSqlTransaction@@@std@@@2@@std@@QAE?AV?$_Iterator@$00@12@XZ 004106e0 f i AuthSocket.obj
 0001:0000f730       ?_Orphan_ptr@?$list@U?$pair@QAVThread@ACE_Based@@PAVSqlTransaction@@@std@@V?$allocator@U?$pair@QAVThread@ACE_Based@@PAVSqlTransaction@@@std@@@2@@std@@IBEXAAV12@PAU_Node@?$_List_nod@U?$pair@QAVThread@ACE_Based@@PAVSqlTransaction@@@std@@V?$allocator@U?$pair@QAVThread@ACE_Based@@PAVSqlTransaction@@@std@@@2@@2@@Z 00410730 f i AuthSocket.obj
 0001:0000f810       ??0?$_List_ptr@U?$pair@QAVThread@ACE_Based@@PAVSqlTransaction@@@std@@V?$allocator@U?$pair@QAVThread@ACE_Based@@PAVSqlTransaction@@@std@@@2@@std@@IAE@V?$allocator@U?$pair@QAVThread@ACE_Based@@PAVSqlTransaction@@@std@@@1@@Z 00410810 f i AuthSocket.obj
 0001:0000f860       ?deallocate@?$allocator@U_Node@?$_List_nod@U?$pair@QAVThread@ACE_Based@@PAVSqlTransaction@@@std@@V?$allocator@U?$pair@QAVThread@ACE_Based@@PAVSqlTransaction@@@std@@@2@@std@@@std@@QAEXPAU_Node@?$_List_nod@U?$pair@QAVThread@ACE_Based@@PAVSqlTransaction@@@std@@V?$allocator@U?$pair@QAVThread@ACE_Based@@PAVSqlTransaction@@@std@@@2@@2@I@Z 00410860 f i AuthSocket.obj
 0001:0000f890       ?allocate@?$allocator@U_Node@?$_List_nod@U?$pair@QAVThread@ACE_Based@@PAVSqlTransaction@@@std@@V?$allocator@U?$pair@QAVThread@ACE_Based@@PAVSqlTransaction@@@std@@@2@@std@@@std@@QAEPAU_Node@?$_List_nod@U?$pair@QAVThread@ACE_Based@@PAVSqlTransaction@@@std@@V?$allocator@U?$pair@QAVThread@ACE_Based@@PAVSqlTransaction@@@std@@@2@@2@I@Z 00410890 f i AuthSocket.obj
 0001:0000f8c0       ?destroy@?$allocator@U_Node@?$_List_nod@U?$pair@QAVThread@ACE_Based@@PAVSqlTransaction@@@std@@V?$allocator@U?$pair@QAVThread@ACE_Based@@PAVSqlTransaction@@@std@@@2@@std@@@std@@QAEXPAU_Node@?$_List_nod@U?$pair@QAVThread@ACE_Based@@PAVSqlTransaction@@@std@@V?$allocator@U?$pair@QAVThread@ACE_Based@@PAVSqlTransaction@@@std@@@2@@2@@Z 004108c0 f i AuthSocket.obj
 0001:0000f8f0       ?construct@?$allocator@PAU_Node@?$_List_nod@U?$pair@QAVThread@ACE_Based@@PAVSqlTransaction@@@std@@V?$allocator@U?$pair@QAVThread@ACE_Based@@PAVSqlTransaction@@@std@@@2@@std@@@std@@QAEXPAPAU_Node@?$_List_nod@U?$pair@QAVThread@ACE_Based@@PAVSqlTransaction@@@std@@V?$allocator@U?$pair@QAVThread@ACE_Based@@PAVSqlTransaction@@@std@@@2@@2@ABQAU342@@Z 004108f0 f i AuthSocket.obj
 0001:0000f920       ?destroy@?$allocator@PAU_Node@?$_List_nod@U?$pair@QAVThread@ACE_Based@@PAVSqlTransaction@@@std@@V?$allocator@U?$pair@QAVThread@ACE_Based@@PAVSqlTransaction@@@std@@@2@@std@@@std@@QAEXPAPAU_Node@?$_List_nod@U?$pair@QAVThread@ACE_Based@@PAVSqlTransaction@@@std@@V?$allocator@U?$pair@QAVThread@ACE_Based@@PAVSqlTransaction@@@std@@@2@@2@@Z 00410920 f i AuthSocket.obj
 0001:0000f950       ?max_size@?$vector@V?$_Iterator@$00@?$list@U?$pair@QAVThread@ACE_Based@@PAVSqlTransaction@@@std@@V?$allocator@U?$pair@QAVThread@ACE_Based@@PAVSqlTransaction@@@std@@@2@@std@@V?$allocator@V?$_Iterator@$00@?$list@U?$pair@QAVThread@ACE_Based@@PAVSqlTransaction@@@std@@V?$allocator@U?$pair@QAVThread@ACE_Based@@PAVSqlTransaction@@@std@@@2@@std@@@3@@std@@QBEIXZ 00410950 f i AuthSocket.obj
 0001:0000f980       ?assign@?$vector@V?$_Iterator@$00@?$list@U?$pair@QAVThread@ACE_Based@@PAVSqlTransaction@@@std@@V?$allocator@U?$pair@QAVThread@ACE_Based@@PAVSqlTransaction@@@std@@@2@@std@@V?$allocator@V?$_Iterator@$00@?$list@U?$pair@QAVThread@ACE_Based@@PAVSqlTransaction@@@std@@V?$allocator@U?$pair@QAVThread@ACE_Based@@PAVSqlTransaction@@@std@@@2@@std@@@3@@std@@QAEXIABV?$_Iterator@$00@?$list@U?$pair@QAVThread@ACE_Based@@PAVSqlTransaction@@@std@@V?$allocator@U?$pair@QAVThread@ACE_Based@@PAVSqlTransaction@@@std@@@2@@2@@Z 00410980 f i AuthSocket.obj
 0001:0000f9b0       ?erase@?$vector@V?$_Iterator@$00@?$list@U?$pair@QAVThread@ACE_Based@@PAVSqlTransaction@@@std@@V?$allocator@U?$pair@QAVThread@ACE_Based@@PAVSqlTransaction@@@std@@@2@@std@@V?$allocator@V?$_Iterator@$00@?$list@U?$pair@QAVThread@ACE_Based@@PAVSqlTransaction@@@std@@V?$allocator@U?$pair@QAVThread@ACE_Based@@PAVSqlTransaction@@@std@@@2@@std@@@3@@std@@QAE?AV?$_Vector_iterator@V?$_Iterator@$00@?$list@U?$pair@QAVThread@ACE_Based@@PAVSqlTransaction@@@std@@V?$allocator@U?$pair@QAVThread@ACE_Based@@PAVSqlTransaction@@@std@@@2@@std@@V?$allocator@V?$_Iterator@$00@?$list@U?$pair@QAVThread@ACE_Based@@PAVSqlTransaction@@@std@@V?$allocator@U?$pair@QAVThread@ACE_Based@@PAVSqlTransaction@@@std@@@2@@std@@@3@@2@V?$_Vector_const_iterator@V?$_Iterator@$00@?$list@U?$pair@QAVThread@ACE_Based@@PAVSqlTransaction@@@std@@V?$allocator@U?$pair@QAVThread@ACE_Based@@PAVSqlTransaction@@@std@@@2@@std@@V?$allocator@V?$_Iterator@$00@?$list@U?$pair@QAVThread@ACE_Based@@PAVSqlTransaction@@@std@@V?$allocator@U?$pair@QAVThread@ACE_Based@@PAVSqlTransaction@@@std@@@2@@std@@@3@@2@0@Z 004109b0 f i AuthSocket.obj
 0001:0000fbb0       ?_Destroy@?$vector@V?$_Iterator@$00@?$list@U?$pair@QAVThread@ACE_Based@@PAVSqlTransaction@@@std@@V?$allocator@U?$pair@QAVThread@ACE_Based@@PAVSqlTransaction@@@std@@@2@@std@@V?$allocator@V?$_Iterator@$00@?$list@U?$pair@QAVThread@ACE_Based@@PAVSqlTransaction@@@std@@V?$allocator@U?$pair@QAVThread@ACE_Based@@PAVSqlTransaction@@@std@@@2@@std@@@3@@std@@IAEXPAV?$_Iterator@$00@?$list@U?$pair@QAVThread@ACE_Based@@PAVSqlTransaction@@@std@@V?$allocator@U?$pair@QAVThread@ACE_Based@@PAVSqlTransaction@@@std@@@2@@2@0@Z 00410bb0 f i AuthSocket.obj
 0001:0000fbf0       ?_Insert_n@?$vector@V?$_Iterator@$00@?$list@U?$pair@QAVThread@ACE_Based@@PAVSqlTransaction@@@std@@V?$allocator@U?$pair@QAVThread@ACE_Based@@PAVSqlTransaction@@@std@@@2@@std@@V?$allocator@V?$_Iterator@$00@?$list@U?$pair@QAVThread@ACE_Based@@PAVSqlTransaction@@@std@@V?$allocator@U?$pair@QAVThread@ACE_Based@@PAVSqlTransaction@@@std@@@2@@std@@@3@@std@@IAEXV?$_Vector_const_iterator@V?$_Iterator@$00@?$list@U?$pair@QAVThread@ACE_Based@@PAVSqlTransaction@@@std@@V?$allocator@U?$pair@QAVThread@ACE_Based@@PAVSqlTransaction@@@std@@@2@@std@@V?$allocator@V?$_Iterator@$00@?$list@U?$pair@QAVThread@ACE_Based@@PAVSqlTransaction@@@std@@V?$allocator@U?$pair@QAVThread@ACE_Based@@PAVSqlTransaction@@@std@@@2@@std@@@3@@2@IABV?$_Iterator@$00@?$list@U?$pair@QAVThread@ACE_Based@@PAVSqlTransaction@@@std@@V?$allocator@U?$pair@QAVThread@ACE_Based@@PAVSqlTransaction@@@std@@@2@@2@@Z 00410bf0 f i AuthSocket.obj
 0001:000100c0       ?_Xlen@?$vector@V?$_Iterator@$00@?$list@U?$pair@QAVThread@ACE_Based@@PAVSqlTransaction@@@std@@V?$allocator@U?$pair@QAVThread@ACE_Based@@PAVSqlTransaction@@@std@@@2@@std@@V?$allocator@V?$_Iterator@$00@?$list@U?$pair@QAVThread@ACE_Based@@PAVSqlTransaction@@@std@@V?$allocator@U?$pair@QAVThread@ACE_Based@@PAVSqlTransaction@@@std@@@2@@std@@@3@@std@@KAXXZ 004110c0 f i AuthSocket.obj
 0001:00010170       ??0?$_Container_base_aux_alloc_empty@V?$allocator@V?$_Iterator@$00@?$list@U?$pair@QAVThread@ACE_Based@@PAVSqlTransaction@@@std@@V?$allocator@U?$pair@QAVThread@ACE_Based@@PAVSqlTransaction@@@std@@@2@@std@@@std@@@std@@IAE@V?$allocator@V?$_Iterator@$00@?$list@U?$pair@QAVThread@ACE_Based@@PAVSqlTransaction@@@std@@V?$allocator@U?$pair@QAVThread@ACE_Based@@PAVSqlTransaction@@@std@@@2@@std@@@1@@Z 00411170 f i AuthSocket.obj
 0001:000101b0       ?deallocate@?$allocator@V?$_Iterator@$00@?$list@U?$pair@QAVThread@ACE_Based@@PAVSqlTransaction@@@std@@V?$allocator@U?$pair@QAVThread@ACE_Based@@PAVSqlTransaction@@@std@@@2@@std@@@std@@QAEXPAV?$_Iterator@$00@?$list@U?$pair@QAVThread@ACE_Based@@PAVSqlTransaction@@@std@@V?$allocator@U?$pair@QAVThread@ACE_Based@@PAVSqlTransaction@@@std@@@2@@2@I@Z 004111b0 f i AuthSocket.obj
 0001:000101e0       ?allocate@?$allocator@V?$_Iterator@$00@?$list@U?$pair@QAVThread@ACE_Based@@PAVSqlTransaction@@@std@@V?$allocator@U?$pair@QAVThread@ACE_Based@@PAVSqlTransaction@@@std@@@2@@std@@@std@@QAEPAV?$_Iterator@$00@?$list@U?$pair@QAVThread@ACE_Based@@PAVSqlTransaction@@@std@@V?$allocator@U?$pair@QAVThread@ACE_Based@@PAVSqlTransaction@@@std@@@2@@2@I@Z 004111e0 f i AuthSocket.obj
 0001:00010210       ?_Nextnode@?$list@U?$pair@QAVThread@ACE_Based@@PAVSqlResultQueue@@@std@@V?$allocator@U?$pair@QAVThread@ACE_Based@@PAVSqlResultQueue@@@std@@@2@@std@@KAAAPAU_Node@?$_List_nod@U?$pair@QAVThread@ACE_Based@@PAVSqlResultQueue@@@std@@V?$allocator@U?$pair@QAVThread@ACE_Based@@PAVSqlResultQueue@@@std@@@2@@2@PAU342@@Z 00411210 f i AuthSocket.obj
 0001:00010220       ?_Prevnode@?$list@U?$pair@QAVThread@ACE_Based@@PAVSqlResultQueue@@@std@@V?$allocator@U?$pair@QAVThread@ACE_Based@@PAVSqlResultQueue@@@std@@@2@@std@@KAAAPAU_Node@?$_List_nod@U?$pair@QAVThread@ACE_Based@@PAVSqlResultQueue@@@std@@V?$allocator@U?$pair@QAVThread@ACE_Based@@PAVSqlResultQueue@@@std@@@2@@2@PAU342@@Z 00411220 f i AuthSocket.obj
 0001:00010230       ?begin@?$list@U?$pair@QAVThread@ACE_Based@@PAVSqlResultQueue@@@std@@V?$allocator@U?$pair@QAVThread@ACE_Based@@PAVSqlResultQueue@@@std@@@2@@std@@QAE?AV?$_Iterator@$00@12@XZ 00411230 f i AuthSocket.obj
 0001:00010290       ?end@?$list@U?$pair@QAVThread@ACE_Based@@PAVSqlResultQueue@@@std@@V?$allocator@U?$pair@QAVThread@ACE_Based@@PAVSqlResultQueue@@@std@@@2@@std@@QAE?AV?$_Iterator@$00@12@XZ 00411290 f i AuthSocket.obj
 0001:000102e0       ?_Orphan_ptr@?$list@U?$pair@QAVThread@ACE_Based@@PAVSqlResultQueue@@@std@@V?$allocator@U?$pair@QAVThread@ACE_Based@@PAVSqlResultQueue@@@std@@@2@@std@@IBEXAAV12@PAU_Node@?$_List_nod@U?$pair@QAVThread@ACE_Based@@PAVSqlResultQueue@@@std@@V?$allocator@U?$pair@QAVThread@ACE_Based@@PAVSqlResultQueue@@@std@@@2@@2@@Z 004112e0 f i AuthSocket.obj
 0001:000103c0       ??0?$_List_ptr@U?$pair@QAVThread@ACE_Based@@PAVSqlResultQueue@@@std@@V?$allocator@U?$pair@QAVThread@ACE_Based@@PAVSqlResultQueue@@@std@@@2@@std@@IAE@V?$allocator@U?$pair@QAVThread@ACE_Based@@PAVSqlResultQueue@@@std@@@1@@Z 004113c0 f i AuthSocket.obj
 0001:00010410       ?deallocate@?$allocator@U_Node@?$_List_nod@U?$pair@QAVThread@ACE_Based@@PAVSqlResultQueue@@@std@@V?$allocator@U?$pair@QAVThread@ACE_Based@@PAVSqlResultQueue@@@std@@@2@@std@@@std@@QAEXPAU_Node@?$_List_nod@U?$pair@QAVThread@ACE_Based@@PAVSqlResultQueue@@@std@@V?$allocator@U?$pair@QAVThread@ACE_Based@@PAVSqlResultQueue@@@std@@@2@@2@I@Z 00411410 f i AuthSocket.obj
 0001:00010440       ?allocate@?$allocator@U_Node@?$_List_nod@U?$pair@QAVThread@ACE_Based@@PAVSqlResultQueue@@@std@@V?$allocator@U?$pair@QAVThread@ACE_Based@@PAVSqlResultQueue@@@std@@@2@@std@@@std@@QAEPAU_Node@?$_List_nod@U?$pair@QAVThread@ACE_Based@@PAVSqlResultQueue@@@std@@V?$allocator@U?$pair@QAVThread@ACE_Based@@PAVSqlResultQueue@@@std@@@2@@2@I@Z 00411440 f i AuthSocket.obj
 0001:00010470       ?destroy@?$allocator@U_Node@?$_List_nod@U?$pair@QAVThread@ACE_Based@@PAVSqlResultQueue@@@std@@V?$allocator@U?$pair@QAVThread@ACE_Based@@PAVSqlResultQueue@@@std@@@2@@std@@@std@@QAEXPAU_Node@?$_List_nod@U?$pair@QAVThread@ACE_Based@@PAVSqlResultQueue@@@std@@V?$allocator@U?$pair@QAVThread@ACE_Based@@PAVSqlResultQueue@@@std@@@2@@2@@Z 00411470 f i AuthSocket.obj
 0001:000104a0       ?construct@?$allocator@PAU_Node@?$_List_nod@U?$pair@QAVThread@ACE_Based@@PAVSqlResultQueue@@@std@@V?$allocator@U?$pair@QAVThread@ACE_Based@@PAVSqlResultQueue@@@std@@@2@@std@@@std@@QAEXPAPAU_Node@?$_List_nod@U?$pair@QAVThread@ACE_Based@@PAVSqlResultQueue@@@std@@V?$allocator@U?$pair@QAVThread@ACE_Based@@PAVSqlResultQueue@@@std@@@2@@2@ABQAU342@@Z 004114a0 f i AuthSocket.obj
 0001:000104d0       ?destroy@?$allocator@PAU_Node@?$_List_nod@U?$pair@QAVThread@ACE_Based@@PAVSqlResultQueue@@@std@@V?$allocator@U?$pair@QAVThread@ACE_Based@@PAVSqlResultQueue@@@std@@@2@@std@@@std@@QAEXPAPAU_Node@?$_List_nod@U?$pair@QAVThread@ACE_Based@@PAVSqlResultQueue@@@std@@V?$allocator@U?$pair@QAVThread@ACE_Based@@PAVSqlResultQueue@@@std@@@2@@2@@Z 004114d0 f i AuthSocket.obj
 0001:00010500       ?max_size@?$vector@V?$_Iterator@$00@?$list@U?$pair@QAVThread@ACE_Based@@PAVSqlResultQueue@@@std@@V?$allocator@U?$pair@QAVThread@ACE_Based@@PAVSqlResultQueue@@@std@@@2@@std@@V?$allocator@V?$_Iterator@$00@?$list@U?$pair@QAVThread@ACE_Based@@PAVSqlResultQueue@@@std@@V?$allocator@U?$pair@QAVThread@ACE_Based@@PAVSqlResultQueue@@@std@@@2@@std@@@3@@std@@QBEIXZ 00411500 f i AuthSocket.obj
 0001:00010530       ?assign@?$vector@V?$_Iterator@$00@?$list@U?$pair@QAVThread@ACE_Based@@PAVSqlResultQueue@@@std@@V?$allocator@U?$pair@QAVThread@ACE_Based@@PAVSqlResultQueue@@@std@@@2@@std@@V?$allocator@V?$_Iterator@$00@?$list@U?$pair@QAVThread@ACE_Based@@PAVSqlResultQueue@@@std@@V?$allocator@U?$pair@QAVThread@ACE_Based@@PAVSqlResultQueue@@@std@@@2@@std@@@3@@std@@QAEXIABV?$_Iterator@$00@?$list@U?$pair@QAVThread@ACE_Based@@PAVSqlResultQueue@@@std@@V?$allocator@U?$pair@QAVThread@ACE_Based@@PAVSqlResultQueue@@@std@@@2@@2@@Z 00411530 f i AuthSocket.obj
 0001:00010560       ?erase@?$vector@V?$_Iterator@$00@?$list@U?$pair@QAVThread@ACE_Based@@PAVSqlResultQueue@@@std@@V?$allocator@U?$pair@QAVThread@ACE_Based@@PAVSqlResultQueue@@@std@@@2@@std@@V?$allocator@V?$_Iterator@$00@?$list@U?$pair@QAVThread@ACE_Based@@PAVSqlResultQueue@@@std@@V?$allocator@U?$pair@QAVThread@ACE_Based@@PAVSqlResultQueue@@@std@@@2@@std@@@3@@std@@QAE?AV?$_Vector_iterator@V?$_Iterator@$00@?$list@U?$pair@QAVThread@ACE_Based@@PAVSqlResultQueue@@@std@@V?$allocator@U?$pair@QAVThread@ACE_Based@@PAVSqlResultQueue@@@std@@@2@@std@@V?$allocator@V?$_Iterator@$00@?$list@U?$pair@QAVThread@ACE_Based@@PAVSqlResultQueue@@@std@@V?$allocator@U?$pair@QAVThread@ACE_Based@@PAVSqlResultQueue@@@std@@@2@@std@@@3@@2@V?$_Vector_const_iterator@V?$_Iterator@$00@?$list@U?$pair@QAVThread@ACE_Based@@PAVSqlResultQueue@@@std@@V?$allocator@U?$pair@QAVThread@ACE_Based@@PAVSqlResultQueue@@@std@@@2@@std@@V?$allocator@V?$_Iterator@$00@?$list@U?$pair@QAVThread@ACE_Based@@PAVSqlResultQueue@@@std@@V?$allocator@U?$pair@QAVThread@ACE_Based@@PAVSqlResultQueue@@@std@@@2@@std@@@3@@2@0@Z 00411560 f i AuthSocket.obj
 0001:00010760       ?_Destroy@?$vector@V?$_Iterator@$00@?$list@U?$pair@QAVThread@ACE_Based@@PAVSqlResultQueue@@@std@@V?$allocator@U?$pair@QAVThread@ACE_Based@@PAVSqlResultQueue@@@std@@@2@@std@@V?$allocator@V?$_Iterator@$00@?$list@U?$pair@QAVThread@ACE_Based@@PAVSqlResultQueue@@@std@@V?$allocator@U?$pair@QAVThread@ACE_Based@@PAVSqlResultQueue@@@std@@@2@@std@@@3@@std@@IAEXPAV?$_Iterator@$00@?$list@U?$pair@QAVThread@ACE_Based@@PAVSqlResultQueue@@@std@@V?$allocator@U?$pair@QAVThread@ACE_Based@@PAVSqlResultQueue@@@std@@@2@@2@0@Z 00411760 f i AuthSocket.obj
 0001:000107a0       ?_Insert_n@?$vector@V?$_Iterator@$00@?$list@U?$pair@QAVThread@ACE_Based@@PAVSqlResultQueue@@@std@@V?$allocator@U?$pair@QAVThread@ACE_Based@@PAVSqlResultQueue@@@std@@@2@@std@@V?$allocator@V?$_Iterator@$00@?$list@U?$pair@QAVThread@ACE_Based@@PAVSqlResultQueue@@@std@@V?$allocator@U?$pair@QAVThread@ACE_Based@@PAVSqlResultQueue@@@std@@@2@@std@@@3@@std@@IAEXV?$_Vector_const_iterator@V?$_Iterator@$00@?$list@U?$pair@QAVThread@ACE_Based@@PAVSqlResultQueue@@@std@@V?$allocator@U?$pair@QAVThread@ACE_Based@@PAVSqlResultQueue@@@std@@@2@@std@@V?$allocator@V?$_Iterator@$00@?$list@U?$pair@QAVThread@ACE_Based@@PAVSqlResultQueue@@@std@@V?$allocator@U?$pair@QAVThread@ACE_Based@@PAVSqlResultQueue@@@std@@@2@@std@@@3@@2@IABV?$_Iterator@$00@?$list@U?$pair@QAVThread@ACE_Based@@PAVSqlResultQueue@@@std@@V?$allocator@U?$pair@QAVThread@ACE_Based@@PAVSqlResultQueue@@@std@@@2@@2@@Z 004117a0 f i AuthSocket.obj
 0001:00010c70       ?_Xlen@?$vector@V?$_Iterator@$00@?$list@U?$pair@QAVThread@ACE_Based@@PAVSqlResultQueue@@@std@@V?$allocator@U?$pair@QAVThread@ACE_Based@@PAVSqlResultQueue@@@std@@@2@@std@@V?$allocator@V?$_Iterator@$00@?$list@U?$pair@QAVThread@ACE_Based@@PAVSqlResultQueue@@@std@@V?$allocator@U?$pair@QAVThread@ACE_Based@@PAVSqlResultQueue@@@std@@@2@@std@@@3@@std@@KAXXZ 00411c70 f i AuthSocket.obj
 0001:00010d20       ??0?$_Container_base_aux_alloc_empty@V?$allocator@V?$_Iterator@$00@?$list@U?$pair@QAVThread@ACE_Based@@PAVSqlResultQueue@@@std@@V?$allocator@U?$pair@QAVThread@ACE_Based@@PAVSqlResultQueue@@@std@@@2@@std@@@std@@@std@@IAE@V?$allocator@V?$_Iterator@$00@?$list@U?$pair@QAVThread@ACE_Based@@PAVSqlResultQueue@@@std@@V?$allocator@U?$pair@QAVThread@ACE_Based@@PAVSqlResultQueue@@@std@@@2@@std@@@1@@Z 00411d20 f i AuthSocket.obj
 0001:00010d60       ?deallocate@?$allocator@V?$_Iterator@$00@?$list@U?$pair@QAVThread@ACE_Based@@PAVSqlResultQueue@@@std@@V?$allocator@U?$pair@QAVThread@ACE_Based@@PAVSqlResultQueue@@@std@@@2@@std@@@std@@QAEXPAV?$_Iterator@$00@?$list@U?$pair@QAVThread@ACE_Based@@PAVSqlResultQueue@@@std@@V?$allocator@U?$pair@QAVThread@ACE_Based@@PAVSqlResultQueue@@@std@@@2@@2@I@Z 00411d60 f i AuthSocket.obj
 0001:00010d90       ?allocate@?$allocator@V?$_Iterator@$00@?$list@U?$pair@QAVThread@ACE_Based@@PAVSqlResultQueue@@@std@@V?$allocator@U?$pair@QAVThread@ACE_Based@@PAVSqlResultQueue@@@std@@@2@@std@@@std@@QAEPAV?$_Iterator@$00@?$list@U?$pair@QAVThread@ACE_Based@@PAVSqlResultQueue@@@std@@V?$allocator@U?$pair@QAVThread@ACE_Based@@PAVSqlResultQueue@@@std@@@2@@2@I@Z 00411d90 f i AuthSocket.obj
 0001:00010dc0       ?_Ufill@?$vector@EV?$allocator@E@std@@@std@@IAEPAEPAEIABE@Z 00411dc0 f i AuthSocket.obj
 0001:00010e00       ?_Isnil@?$_Tree@V?$_Tmap_traits@V?$basic_string@DU?$char_traits@D@std@@V?$allocator@D@2@@std@@URealm@@U?$less@V?$basic_string@DU?$char_traits@D@std@@V?$allocator@D@2@@std@@@2@V?$allocator@U?$pair@$$CBV?$basic_string@DU?$char_traits@D@std@@V?$allocator@D@2@@std@@URealm@@@std@@@2@$0A@@std@@@std@@KAAADPAU_Node@?$_Tree_nod@V?$_Tmap_traits@V?$basic_string@DU?$char_traits@D@std@@V?$allocator@D@2@@std@@URealm@@U?$less@V?$basic_string@DU?$char_traits@D@std@@V?$allocator@D@2@@std@@@2@V?$allocator@U?$pair@$$CBV?$basic_string@DU?$char_traits@D@std@@V?$allocator@D@2@@std@@URealm@@@std@@@2@$0A@@std@@@2@@Z 00411e00 f i AuthSocket.obj
 0001:00010e10       ?_Min@?$_Tree@V?$_Tmap_traits@V?$basic_string@DU?$char_traits@D@std@@V?$allocator@D@2@@std@@URealm@@U?$less@V?$basic_string@DU?$char_traits@D@std@@V?$allocator@D@2@@std@@@2@V?$allocator@U?$pair@$$CBV?$basic_string@DU?$char_traits@D@std@@V?$allocator@D@2@@std@@URealm@@@std@@@2@$0A@@std@@@std@@KAPAU_Node@?$_Tree_nod@V?$_Tmap_traits@V?$basic_string@DU?$char_traits@D@std@@V?$allocator@D@2@@std@@URealm@@U?$less@V?$basic_string@DU?$char_traits@D@std@@V?$allocator@D@2@@std@@@2@V?$allocator@U?$pair@$$CBV?$basic_string@DU?$char_traits@D@std@@V?$allocator@D@2@@std@@URealm@@@std@@@2@$0A@@std@@@2@PAU342@@Z 00411e10 f i AuthSocket.obj
 0001:00010e50       ?_Color@?$_Tree@V?$_Tmap_traits@V?$basic_string@DU?$char_traits@D@std@@V?$allocator@D@2@@std@@PAUPATCH_INFO@@U?$less@V?$basic_string@DU?$char_traits@D@std@@V?$allocator@D@2@@std@@@2@V?$allocator@U?$pair@$$CBV?$basic_string@DU?$char_traits@D@std@@V?$allocator@D@2@@std@@PAUPATCH_INFO@@@std@@@2@$0A@@std@@@std@@KAAADPAU_Node@?$_Tree_nod@V?$_Tmap_traits@V?$basic_string@DU?$char_traits@D@std@@V?$allocator@D@2@@std@@PAUPATCH_INFO@@U?$less@V?$basic_string@DU?$char_traits@D@std@@V?$allocator@D@2@@std@@@2@V?$allocator@U?$pair@$$CBV?$basic_string@DU?$char_traits@D@std@@V?$allocator@D@2@@std@@PAUPATCH_INFO@@@std@@@2@$0A@@std@@@2@@Z 00411e50 f i AuthSocket.obj
 0001:00010e60       ?_Make_iter@?$_Tree@V?$_Tmap_traits@V?$basic_string@DU?$char_traits@D@std@@V?$allocator@D@2@@std@@PAUPATCH_INFO@@U?$less@V?$basic_string@DU?$char_traits@D@std@@V?$allocator@D@2@@std@@@2@V?$allocator@U?$pair@$$CBV?$basic_string@DU?$char_traits@D@std@@V?$allocator@D@2@@std@@PAUPATCH_INFO@@@std@@@2@$0A@@std@@@std@@QBE?AViterator@12@Vconst_iterator@12@@Z 00411e60 f i AuthSocket.obj
 0001:00010f20       ?max_size@?$_Tree@V?$_Tmap_traits@V?$basic_string@DU?$char_traits@D@std@@V?$allocator@D@2@@std@@PAUPATCH_INFO@@U?$less@V?$basic_string@DU?$char_traits@D@std@@V?$allocator@D@2@@std@@@2@V?$allocator@U?$pair@$$CBV?$basic_string@DU?$char_traits@D@std@@V?$allocator@D@2@@std@@PAUPATCH_INFO@@@std@@@2@$0A@@std@@@std@@QBEIXZ 00411f20 f i AuthSocket.obj
 0001:00010f50       ?erase@?$_Tree@V?$_Tmap_traits@V?$basic_string@DU?$char_traits@D@std@@V?$allocator@D@2@@std@@PAUPATCH_INFO@@U?$less@V?$basic_string@DU?$char_traits@D@std@@V?$allocator@D@2@@std@@@2@V?$allocator@U?$pair@$$CBV?$basic_string@DU?$char_traits@D@std@@V?$allocator@D@2@@std@@PAUPATCH_INFO@@@std@@@2@$0A@@std@@@std@@QAE?AViterator@12@Vconst_iterator@12@@Z 00411f50 f i AuthSocket.obj
 0001:00011770       ?clear@?$_Tree@V?$_Tmap_traits@V?$basic_string@DU?$char_traits@D@std@@V?$allocator@D@2@@std@@PAUPATCH_INFO@@U?$less@V?$basic_string@DU?$char_traits@D@std@@V?$allocator@D@2@@std@@@2@V?$allocator@U?$pair@$$CBV?$basic_string@DU?$char_traits@D@std@@V?$allocator@D@2@@std@@PAUPATCH_INFO@@@std@@@2@$0A@@std@@@std@@QAEXXZ 00412770 f i AuthSocket.obj
 0001:000117f0       ?_Lrotate@?$_Tree@V?$_Tmap_traits@V?$basic_string@DU?$char_traits@D@std@@V?$allocator@D@2@@std@@PAUPATCH_INFO@@U?$less@V?$basic_string@DU?$char_traits@D@std@@V?$allocator@D@2@@std@@@2@V?$allocator@U?$pair@$$CBV?$basic_string@DU?$char_traits@D@std@@V?$allocator@D@2@@std@@PAUPATCH_INFO@@@std@@@2@$0A@@std@@@std@@IAEXPAU_Node@?$_Tree_nod@V?$_Tmap_traits@V?$basic_string@DU?$char_traits@D@std@@V?$allocator@D@2@@std@@PAUPATCH_INFO@@U?$less@V?$basic_string@DU?$char_traits@D@std@@V?$allocator@D@2@@std@@@2@V?$allocator@U?$pair@$$CBV?$basic_string@DU?$char_traits@D@std@@V?$allocator@D@2@@std@@PAUPATCH_INFO@@@std@@@2@$0A@@std@@@2@@Z 004127f0 f i AuthSocket.obj
 0001:00011940       ?_Root@?$_Tree@V?$_Tmap_traits@V?$basic_string@DU?$char_traits@D@std@@V?$allocator@D@2@@std@@PAUPATCH_INFO@@U?$less@V?$basic_string@DU?$char_traits@D@std@@V?$allocator@D@2@@std@@@2@V?$allocator@U?$pair@$$CBV?$basic_string@DU?$char_traits@D@std@@V?$allocator@D@2@@std@@PAUPATCH_INFO@@@std@@@2@$0A@@std@@@std@@IBEAAPAU_Node@?$_Tree_nod@V?$_Tmap_traits@V?$basic_string@DU?$char_traits@D@std@@V?$allocator@D@2@@std@@PAUPATCH_INFO@@U?$less@V?$basic_string@DU?$char_traits@D@std@@V?$allocator@D@2@@std@@@2@V?$allocator@U?$pair@$$CBV?$basic_string@DU?$char_traits@D@std@@V?$allocator@D@2@@std@@PAUPATCH_INFO@@@std@@@2@$0A@@std@@@2@XZ 00412940 f i AuthSocket.obj
 0001:00011970       ?_Rrotate@?$_Tree@V?$_Tmap_traits@V?$basic_string@DU?$char_traits@D@std@@V?$allocator@D@2@@std@@PAUPATCH_INFO@@U?$less@V?$basic_string@DU?$char_traits@D@std@@V?$allocator@D@2@@std@@@2@V?$allocator@U?$pair@$$CBV?$basic_string@DU?$char_traits@D@std@@V?$allocator@D@2@@std@@PAUPATCH_INFO@@@std@@@2@$0A@@std@@@std@@IAEXPAU_Node@?$_Tree_nod@V?$_Tmap_traits@V?$basic_string@DU?$char_traits@D@std@@V?$allocator@D@2@@std@@PAUPATCH_INFO@@U?$less@V?$basic_string@DU?$char_traits@D@std@@V?$allocator@D@2@@std@@@2@V?$allocator@U?$pair@$$CBV?$basic_string@DU?$char_traits@D@std@@V?$allocator@D@2@@std@@PAUPATCH_INFO@@@std@@@2@$0A@@std@@@2@@Z 00412970 f i AuthSocket.obj
 0001:00011ac0       ?_Buynode@?$_Tree@V?$_Tmap_traits@V?$basic_string@DU?$char_traits@D@std@@V?$allocator@D@2@@std@@PAUPATCH_INFO@@U?$less@V?$basic_string@DU?$char_traits@D@std@@V?$allocator@D@2@@std@@@2@V?$allocator@U?$pair@$$CBV?$basic_string@DU?$char_traits@D@std@@V?$allocator@D@2@@std@@PAUPATCH_INFO@@@std@@@2@$0A@@std@@@std@@IAEPAU_Node@?$_Tree_nod@V?$_Tmap_traits@V?$basic_string@DU?$char_traits@D@std@@V?$allocator@D@2@@std@@PAUPATCH_INFO@@U?$less@V?$basic_string@DU?$char_traits@D@std@@V?$allocator@D@2@@std@@@2@V?$allocator@U?$pair@$$CBV?$basic_string@DU?$char_traits@D@std@@V?$allocator@D@2@@std@@PAUPATCH_INFO@@@std@@@2@$0A@@std@@@2@XZ 00412ac0 f i AuthSocket.obj
 0001:00011c70       ?_Buynode@?$_Tree@V?$_Tmap_traits@V?$basic_string@DU?$char_traits@D@std@@V?$allocator@D@2@@std@@PAUPATCH_INFO@@U?$less@V?$basic_string@DU?$char_traits@D@std@@V?$allocator@D@2@@std@@@2@V?$allocator@U?$pair@$$CBV?$basic_string@DU?$char_traits@D@std@@V?$allocator@D@2@@std@@PAUPATCH_INFO@@@std@@@2@$0A@@std@@@std@@IAEPAU_Node@?$_Tree_nod@V?$_Tmap_traits@V?$basic_string@DU?$char_traits@D@std@@V?$allocator@D@2@@std@@PAUPATCH_INFO@@U?$less@V?$basic_string@DU?$char_traits@D@std@@V?$allocator@D@2@@std@@@2@V?$allocator@U?$pair@$$CBV?$basic_string@DU?$char_traits@D@std@@V?$allocator@D@2@@std@@PAUPATCH_INFO@@@std@@@2@$0A@@std@@@2@PAU342@00ABU?$pair@$$CBV?$basic_string@DU?$char_traits@D@std@@V?$allocator@D@2@@std@@PAUPATCH_INFO@@@2@D@Z 00412c70 f i AuthSocket.obj
 0001:00011d80       ??2@YAPAXIPAX@Z            00412d80 f i AuthSocket.obj
 0001:00011d90       ??3@YAXPAX0@Z              00412d90 f i AuthSocket.obj
 0001:00011da0       ??0?$_Tree_ptr@V?$_Tmap_traits@V?$basic_string@DU?$char_traits@D@std@@V?$allocator@D@2@@std@@PAUPATCH_INFO@@U?$less@V?$basic_string@DU?$char_traits@D@std@@V?$allocator@D@2@@std@@@2@V?$allocator@U?$pair@$$CBV?$basic_string@DU?$char_traits@D@std@@V?$allocator@D@2@@std@@PAUPATCH_INFO@@@std@@@2@$0A@@std@@@std@@QAE@ABU?$less@V?$basic_string@DU?$char_traits@D@std@@V?$allocator@D@2@@std@@@1@V?$allocator@U?$pair@$$CBV?$basic_string@DU?$char_traits@D@std@@V?$allocator@D@2@@std@@PAUPATCH_INFO@@@std@@@1@@Z 00412da0 f i AuthSocket.obj
 0001:00011e00       ??Econst_iterator@?$_Tree@V?$_Tmap_traits@V?$basic_string@DU?$char_traits@D@std@@V?$allocator@D@2@@std@@PAUPATCH_INFO@@U?$less@V?$basic_string@DU?$char_traits@D@std@@V?$allocator@D@2@@std@@@2@V?$allocator@U?$pair@$$CBV?$basic_string@DU?$char_traits@D@std@@V?$allocator@D@2@@std@@PAUPATCH_INFO@@@std@@@2@$0A@@std@@@std@@QAE?AV012@H@Z 00412e00 f i AuthSocket.obj
 0001:00011ed0       ?_Dec@const_iterator@?$_Tree@V?$_Tmap_traits@V?$basic_string@DU?$char_traits@D@std@@V?$allocator@D@2@@std@@PAUPATCH_INFO@@U?$less@V?$basic_string@DU?$char_traits@D@std@@V?$allocator@D@2@@std@@@2@V?$allocator@U?$pair@$$CBV?$basic_string@DU?$char_traits@D@std@@V?$allocator@D@2@@std@@PAUPATCH_INFO@@@std@@@2@$0A@@std@@@std@@QAEXXZ 00412ed0 f i AuthSocket.obj
 0001:00012170       ?_Inc@const_iterator@?$_Tree@V?$_Tmap_traits@V?$basic_string@DU?$char_traits@D@std@@V?$allocator@D@2@@std@@PAUPATCH_INFO@@U?$less@V?$basic_string@DU?$char_traits@D@std@@V?$allocator@D@2@@std@@@2@V?$allocator@U?$pair@$$CBV?$basic_string@DU?$char_traits@D@std@@V?$allocator@D@2@@std@@PAUPATCH_INFO@@@std@@@2@$0A@@std@@@std@@QAEXXZ 00413170 f i AuthSocket.obj
 0001:000122d0       ??Fiterator@?$_Tree@V?$_Tmap_traits@V?$basic_string@DU?$char_traits@D@std@@V?$allocator@D@2@@std@@PAUPATCH_INFO@@U?$less@V?$basic_string@DU?$char_traits@D@std@@V?$allocator@D@2@@std@@@2@V?$allocator@U?$pair@$$CBV?$basic_string@DU?$char_traits@D@std@@V?$allocator@D@2@@std@@PAUPATCH_INFO@@@std@@@2@$0A@@std@@@std@@QAEAAV012@XZ 004132d0 f i AuthSocket.obj
 0001:00012300       ??9?$_Vector_const_iterator@V?$basic_string@DU?$char_traits@D@std@@V?$allocator@D@2@@std@@V?$allocator@V?$basic_string@DU?$char_traits@D@std@@V?$allocator@D@2@@std@@@2@@std@@QBE_NABV01@@Z 00413300 f i AuthSocket.obj
 0001:00012340       ??M?$_Vector_const_iterator@V?$basic_string@DU?$char_traits@D@std@@V?$allocator@D@2@@std@@V?$allocator@V?$basic_string@DU?$char_traits@D@std@@V?$allocator@D@2@@std@@@2@@std@@QBE_NABV01@@Z 00413340 f i AuthSocket.obj
 0001:00012380       ??8?$_Vector_const_iterator@EV?$allocator@E@std@@@std@@QBE_NABV01@@Z 00413380 f i AuthSocket.obj
 0001:000123c0       ?_Compat@?$_Vector_const_iterator@EV?$allocator@E@std@@@std@@QBEXABV12@@Z 004133c0 f i AuthSocket.obj
 0001:00012470       ??Y?$_Vector_iterator@EV?$allocator@E@std@@@std@@QAEAAV01@H@Z 00413470 f i AuthSocket.obj
 0001:000124a0       ??0?$_Vector_iterator@V?$basic_string@DU?$char_traits@D@std@@V?$allocator@D@2@@std@@V?$allocator@V?$basic_string@DU?$char_traits@D@std@@V?$allocator@D@2@@std@@@2@@std@@QAE@PAV?$basic_string@DU?$char_traits@D@std@@V?$allocator@D@2@@1@PBV_Container_base_secure@1@@Z 004134a0 f i AuthSocket.obj
 0001:000124e0       ??0?$_Const_iterator@$00@?$list@U?$pair@QAVThread@ACE_Based@@PAVSqlTransaction@@@std@@V?$allocator@U?$pair@QAVThread@ACE_Based@@PAVSqlTransaction@@@std@@@2@@std@@QAE@PAU_Node@?$_List_nod@U?$pair@QAVThread@ACE_Based@@PAVSqlTransaction@@@std@@V?$allocator@U?$pair@QAVThread@ACE_Based@@PAVSqlTransaction@@@std@@@2@@2@PBV12@@Z 004134e0 f i AuthSocket.obj
 0001:00012560       ?_Compat@?$_Const_iterator@$00@?$list@U?$pair@QAVThread@ACE_Based@@PAVSqlTransaction@@@std@@V?$allocator@U?$pair@QAVThread@ACE_Based@@PAVSqlTransaction@@@std@@@2@@std@@QBEXABV123@@Z 00413560 f i AuthSocket.obj
 0001:00012620       ??0?$_Vector_iterator@V?$_Iterator@$00@?$list@U?$pair@QAVThread@ACE_Based@@PAVSqlTransaction@@@std@@V?$allocator@U?$pair@QAVThread@ACE_Based@@PAVSqlTransaction@@@std@@@2@@std@@V?$allocator@V?$_Iterator@$00@?$list@U?$pair@QAVThread@ACE_Based@@PAVSqlTransaction@@@std@@V?$allocator@U?$pair@QAVThread@ACE_Based@@PAVSqlTransaction@@@std@@@2@@std@@@3@@std@@QAE@PAV?$_Iterator@$00@?$list@U?$pair@QAVThread@ACE_Based@@PAVSqlTransaction@@@std@@V?$allocator@U?$pair@QAVThread@ACE_Based@@PAVSqlTransaction@@@std@@@2@@1@PBV_Container_base_secure@1@@Z 00413620 f i AuthSocket.obj
 0001:00012660       ??H?$_Vector_iterator@V?$_Iterator@$00@?$list@U?$pair@QAVThread@ACE_Based@@PAVSqlTransaction@@@std@@V?$allocator@U?$pair@QAVThread@ACE_Based@@PAVSqlTransaction@@@std@@@2@@std@@V?$allocator@V?$_Iterator@$00@?$list@U?$pair@QAVThread@ACE_Based@@PAVSqlTransaction@@@std@@V?$allocator@U?$pair@QAVThread@ACE_Based@@PAVSqlTransaction@@@std@@@2@@std@@@3@@std@@QBE?AV01@H@Z 00413660 f i AuthSocket.obj
 0001:00012740       ??0?$_Const_iterator@$00@?$list@U?$pair@QAVThread@ACE_Based@@PAVSqlResultQueue@@@std@@V?$allocator@U?$pair@QAVThread@ACE_Based@@PAVSqlResultQueue@@@std@@@2@@std@@QAE@PAU_Node@?$_List_nod@U?$pair@QAVThread@ACE_Based@@PAVSqlResultQueue@@@std@@V?$allocator@U?$pair@QAVThread@ACE_Based@@PAVSqlResultQueue@@@std@@@2@@2@PBV12@@Z 00413740 f i AuthSocket.obj
 0001:000127c0       ?_Compat@?$_Const_iterator@$00@?$list@U?$pair@QAVThread@ACE_Based@@PAVSqlResultQueue@@@std@@V?$allocator@U?$pair@QAVThread@ACE_Based@@PAVSqlResultQueue@@@std@@@2@@std@@QBEXABV123@@Z 004137c0 f i AuthSocket.obj
 0001:00012880       ??0?$_Vector_iterator@V?$_Iterator@$00@?$list@U?$pair@QAVThread@ACE_Based@@PAVSqlResultQueue@@@std@@V?$allocator@U?$pair@QAVThread@ACE_Based@@PAVSqlResultQueue@@@std@@@2@@std@@V?$allocator@V?$_Iterator@$00@?$list@U?$pair@QAVThread@ACE_Based@@PAVSqlResultQueue@@@std@@V?$allocator@U?$pair@QAVThread@ACE_Based@@PAVSqlResultQueue@@@std@@@2@@std@@@3@@std@@QAE@PAV?$_Iterator@$00@?$list@U?$pair@QAVThread@ACE_Based@@PAVSqlResultQueue@@@std@@V?$allocator@U?$pair@QAVThread@ACE_Based@@PAVSqlResultQueue@@@std@@@2@@1@PBV_Container_base_secure@1@@Z 00413880 f i AuthSocket.obj
 0001:000128c0       ??H?$_Vector_iterator@V?$_Iterator@$00@?$list@U?$pair@QAVThread@ACE_Based@@PAVSqlResultQueue@@@std@@V?$allocator@U?$pair@QAVThread@ACE_Based@@PAVSqlResultQueue@@@std@@@2@@std@@V?$allocator@V?$_Iterator@$00@?$list@U?$pair@QAVThread@ACE_Based@@PAVSqlResultQueue@@@std@@V?$allocator@U?$pair@QAVThread@ACE_Based@@PAVSqlResultQueue@@@std@@@2@@std@@@3@@std@@QBE?AV01@H@Z 004138c0 f i AuthSocket.obj
 0001:000129a0       ??0?$pair@Viterator@?$_Tree@V?$_Tmap_traits@V?$basic_string@DU?$char_traits@D@std@@V?$allocator@D@2@@std@@PAUPATCH_INFO@@U?$less@V?$basic_string@DU?$char_traits@D@std@@V?$allocator@D@2@@std@@@2@V?$allocator@U?$pair@$$CBV?$basic_string@DU?$char_traits@D@std@@V?$allocator@D@2@@std@@PAUPATCH_INFO@@@std@@@2@$0A@@std@@@std@@_N@std@@QAE@ABViterator@?$_Tree@V?$_Tmap_traits@V?$basic_string@DU?$char_traits@D@std@@V?$allocator@D@2@@std@@PAUPATCH_INFO@@U?$less@V?$basic_string@DU?$char_traits@D@std@@V?$allocator@D@2@@std@@@2@V?$allocator@U?$pair@$$CBV?$basic_string@DU?$char_traits@D@std@@V?$allocator@D@2@@std@@PAUPATCH_INFO@@@std@@@2@$0A@@std@@@1@AB_N@Z 004139a0 f i AuthSocket.obj
 0001:000129e0       ??0?$_Iterator@$00@?$list@U?$pair@QAVThread@ACE_Based@@PAVSqlTransaction@@@std@@V?$allocator@U?$pair@QAVThread@ACE_Based@@PAVSqlTransaction@@@std@@@2@@std@@QAE@ABV012@@Z 004139e0 f i AuthSocket.obj
 0001:00012a10       ??0?$_Iterator@$00@?$list@U?$pair@QAVThread@ACE_Based@@PAVSqlResultQueue@@@std@@V?$allocator@U?$pair@QAVThread@ACE_Based@@PAVSqlResultQueue@@@std@@@2@@std@@QAE@ABV012@@Z 00413a10 f i AuthSocket.obj
 0001:00012a40       ??0?$_Bidit@U?$pair@QAVThread@ACE_Based@@PAVSqlTransaction@@@std@@HPBU12@ABU12@@std@@QAE@XZ 00413a40 f i AuthSocket.obj
 0001:00012a70       ??0?$_Vector_iterator@V?$_Iterator@$00@?$list@U?$pair@QAVThread@ACE_Based@@PAVSqlTransaction@@@std@@V?$allocator@U?$pair@QAVThread@ACE_Based@@PAVSqlTransaction@@@std@@@2@@std@@V?$allocator@V?$_Iterator@$00@?$list@U?$pair@QAVThread@ACE_Based@@PAVSqlTransaction@@@std@@V?$allocator@U?$pair@QAVThread@ACE_Based@@PAVSqlTransaction@@@std@@@2@@std@@@3@@std@@QAE@ABV01@@Z 00413a70 f i AuthSocket.obj
 0001:00012aa0       ??0?$_Bidit@U?$pair@QAVThread@ACE_Based@@PAVSqlResultQueue@@@std@@HPBU12@ABU12@@std@@QAE@XZ 00413aa0 f i AuthSocket.obj
 0001:00012ad0       ??0?$_Vector_iterator@V?$_Iterator@$00@?$list@U?$pair@QAVThread@ACE_Based@@PAVSqlResultQueue@@@std@@V?$allocator@U?$pair@QAVThread@ACE_Based@@PAVSqlResultQueue@@@std@@@2@@std@@V?$allocator@V?$_Iterator@$00@?$list@U?$pair@QAVThread@ACE_Based@@PAVSqlResultQueue@@@std@@V?$allocator@U?$pair@QAVThread@ACE_Based@@PAVSqlResultQueue@@@std@@@2@@std@@@3@@std@@QAE@ABV01@@Z 00413ad0 f i AuthSocket.obj
 0001:00012b00       ??0?$_Iterator_with_base@Ubidirectional_iterator_tag@std@@U?$pair@QAVThread@ACE_Based@@PAVSqlTransaction@@@2@HPBU32@ABU32@V_Iterator_base@2@@std@@QAE@XZ 00413b00 f i AuthSocket.obj
 0001:00012b30       ??0?$_Iterator_with_base@Ubidirectional_iterator_tag@std@@U?$pair@QAVThread@ACE_Based@@PAVSqlResultQueue@@@2@HPBU32@ABU32@V_Iterator_base@2@@std@@QAE@XZ 00413b30 f i AuthSocket.obj
 0001:00012b60       ??0?$_List_nod@U?$pair@QAVThread@ACE_Based@@PAVSqlTransaction@@@std@@V?$allocator@U?$pair@QAVThread@ACE_Based@@PAVSqlTransaction@@@std@@@2@@std@@IAE@V?$allocator@U?$pair@QAVThread@ACE_Based@@PAVSqlTransaction@@@std@@@1@@Z 00413b60 f i AuthSocket.obj
 0001:00012bb0       ?capacity@?$vector@V?$_Iterator@$00@?$list@U?$pair@QAVThread@ACE_Based@@PAVSqlTransaction@@@std@@V?$allocator@U?$pair@QAVThread@ACE_Based@@PAVSqlTransaction@@@std@@@2@@std@@V?$allocator@V?$_Iterator@$00@?$list@U?$pair@QAVThread@ACE_Based@@PAVSqlTransaction@@@std@@V?$allocator@U?$pair@QAVThread@ACE_Based@@PAVSqlTransaction@@@std@@@2@@std@@@3@@std@@QBEIXZ 00413bb0 f i AuthSocket.obj
 0001:00012c00       ?_Make_iter@?$vector@V?$_Iterator@$00@?$list@U?$pair@QAVThread@ACE_Based@@PAVSqlTransaction@@@std@@V?$allocator@U?$pair@QAVThread@ACE_Based@@PAVSqlTransaction@@@std@@@2@@std@@V?$allocator@V?$_Iterator@$00@?$list@U?$pair@QAVThread@ACE_Based@@PAVSqlTransaction@@@std@@V?$allocator@U?$pair@QAVThread@ACE_Based@@PAVSqlTransaction@@@std@@@2@@std@@@3@@std@@QBE?AV?$_Vector_iterator@V?$_Iterator@$00@?$list@U?$pair@QAVThread@ACE_Based@@PAVSqlTransaction@@@std@@V?$allocator@U?$pair@QAVThread@ACE_Based@@PAVSqlTransaction@@@std@@@2@@std@@V?$allocator@V?$_Iterator@$00@?$list@U?$pair@QAVThread@ACE_Based@@PAVSqlTransaction@@@std@@V?$allocator@U?$pair@QAVThread@ACE_Based@@PAVSqlTransaction@@@std@@@2@@std@@@3@@2@V?$_Vector_const_iterator@V?$_Iterator@$00@?$list@U?$pair@QAVThread@ACE_Based@@PAVSqlTransaction@@@std@@V?$allocator@U?$pair@QAVThread@ACE_Based@@PAVSqlTransaction@@@std@@@2@@std@@V?$allocator@V?$_Iterator@$00@?$list@U?$pair@QAVThread@ACE_Based@@PAVSqlTransaction@@@std@@V?$allocator@U?$pair@QAVThread@ACE_Based@@PAVSqlTransaction@@@std@@@2@@std@@@3@@2@@Z 00413c00 f i AuthSocket.obj
 0001:00012c90       ?_Assign_n@?$vector@V?$_Iterator@$00@?$list@U?$pair@QAVThread@ACE_Based@@PAVSqlTransaction@@@std@@V?$allocator@U?$pair@QAVThread@ACE_Based@@PAVSqlTransaction@@@std@@@2@@std@@V?$allocator@V?$_Iterator@$00@?$list@U?$pair@QAVThread@ACE_Based@@PAVSqlTransaction@@@std@@V?$allocator@U?$pair@QAVThread@ACE_Based@@PAVSqlTransaction@@@std@@@2@@std@@@3@@std@@IAEXIABV?$_Iterator@$00@?$list@U?$pair@QAVThread@ACE_Based@@PAVSqlTransaction@@@std@@V?$allocator@U?$pair@QAVThread@ACE_Based@@PAVSqlTransaction@@@std@@@2@@2@@Z 00413c90 f i AuthSocket.obj
 0001:00012e30       ?_Ufill@?$vector@V?$_Iterator@$00@?$list@U?$pair@QAVThread@ACE_Based@@PAVSqlTransaction@@@std@@V?$allocator@U?$pair@QAVThread@ACE_Based@@PAVSqlTransaction@@@std@@@2@@std@@V?$allocator@V?$_Iterator@$00@?$list@U?$pair@QAVThread@ACE_Based@@PAVSqlTransaction@@@std@@V?$allocator@U?$pair@QAVThread@ACE_Based@@PAVSqlTransaction@@@std@@@2@@std@@@3@@std@@IAEPAV?$_Iterator@$00@?$list@U?$pair@QAVThread@ACE_Based@@PAVSqlTransaction@@@std@@V?$allocator@U?$pair@QAVThread@ACE_Based@@PAVSqlTransaction@@@std@@@2@@2@PAV342@IABV342@@Z 00413e30 f i AuthSocket.obj
 0001:00012e80       ?_Orphan_range@?$vector@V?$_Iterator@$00@?$list@U?$pair@QAVThread@ACE_Based@@PAVSqlTransaction@@@std@@V?$allocator@U?$pair@QAVThread@ACE_Based@@PAVSqlTransaction@@@std@@@2@@std@@V?$allocator@V?$_Iterator@$00@?$list@U?$pair@QAVThread@ACE_Based@@PAVSqlTransaction@@@std@@V?$allocator@U?$pair@QAVThread@ACE_Based@@PAVSqlTransaction@@@std@@@2@@std@@@3@@std@@IBEXPAV?$_Iterator@$00@?$list@U?$pair@QAVThread@ACE_Based@@PAVSqlTransaction@@@std@@V?$allocator@U?$pair@QAVThread@ACE_Based@@PAVSqlTransaction@@@std@@@2@@2@0@Z 00413e80 f i AuthSocket.obj
 0001:00012f60       ?max_size@?$allocator@V?$_Iterator@$00@?$list@U?$pair@QAVThread@ACE_Based@@PAVSqlTransaction@@@std@@V?$allocator@U?$pair@QAVThread@ACE_Based@@PAVSqlTransaction@@@std@@@2@@std@@@std@@QBEIXZ 00413f60 f i AuthSocket.obj
 0001:00012fb0       ??0?$_List_nod@U?$pair@QAVThread@ACE_Based@@PAVSqlResultQueue@@@std@@V?$allocator@U?$pair@QAVThread@ACE_Based@@PAVSqlResultQueue@@@std@@@2@@std@@IAE@V?$allocator@U?$pair@QAVThread@ACE_Based@@PAVSqlResultQueue@@@std@@@1@@Z 00413fb0 f i AuthSocket.obj
 0001:00013000       ?capacity@?$vector@V?$_Iterator@$00@?$list@U?$pair@QAVThread@ACE_Based@@PAVSqlResultQueue@@@std@@V?$allocator@U?$pair@QAVThread@ACE_Based@@PAVSqlResultQueue@@@std@@@2@@std@@V?$allocator@V?$_Iterator@$00@?$list@U?$pair@QAVThread@ACE_Based@@PAVSqlResultQueue@@@std@@V?$allocator@U?$pair@QAVThread@ACE_Based@@PAVSqlResultQueue@@@std@@@2@@std@@@3@@std@@QBEIXZ 00414000 f i AuthSocket.obj
 0001:00013050       ?_Make_iter@?$vector@V?$_Iterator@$00@?$list@U?$pair@QAVThread@ACE_Based@@PAVSqlResultQueue@@@std@@V?$allocator@U?$pair@QAVThread@ACE_Based@@PAVSqlResultQueue@@@std@@@2@@std@@V?$allocator@V?$_Iterator@$00@?$list@U?$pair@QAVThread@ACE_Based@@PAVSqlResultQueue@@@std@@V?$allocator@U?$pair@QAVThread@ACE_Based@@PAVSqlResultQueue@@@std@@@2@@std@@@3@@std@@QBE?AV?$_Vector_iterator@V?$_Iterator@$00@?$list@U?$pair@QAVThread@ACE_Based@@PAVSqlResultQueue@@@std@@V?$allocator@U?$pair@QAVThread@ACE_Based@@PAVSqlResultQueue@@@std@@@2@@std@@V?$allocator@V?$_Iterator@$00@?$list@U?$pair@QAVThread@ACE_Based@@PAVSqlResultQueue@@@std@@V?$allocator@U?$pair@QAVThread@ACE_Based@@PAVSqlResultQueue@@@std@@@2@@std@@@3@@2@V?$_Vector_const_iterator@V?$_Iterator@$00@?$list@U?$pair@QAVThread@ACE_Based@@PAVSqlResultQueue@@@std@@V?$allocator@U?$pair@QAVThread@ACE_Based@@PAVSqlResultQueue@@@std@@@2@@std@@V?$allocator@V?$_Iterator@$00@?$list@U?$pair@QAVThread@ACE_Based@@PAVSqlResultQueue@@@std@@V?$allocator@U?$pair@QAVThread@ACE_Based@@PAVSqlResultQueue@@@std@@@2@@std@@@3@@2@@Z 00414050 f i AuthSocket.obj
 0001:000130e0       ?_Assign_n@?$vector@V?$_Iterator@$00@?$list@U?$pair@QAVThread@ACE_Based@@PAVSqlResultQueue@@@std@@V?$allocator@U?$pair@QAVThread@ACE_Based@@PAVSqlResultQueue@@@std@@@2@@std@@V?$allocator@V?$_Iterator@$00@?$list@U?$pair@QAVThread@ACE_Based@@PAVSqlResultQueue@@@std@@V?$allocator@U?$pair@QAVThread@ACE_Based@@PAVSqlResultQueue@@@std@@@2@@std@@@3@@std@@IAEXIABV?$_Iterator@$00@?$list@U?$pair@QAVThread@ACE_Based@@PAVSqlResultQueue@@@std@@V?$allocator@U?$pair@QAVThread@ACE_Based@@PAVSqlResultQueue@@@std@@@2@@2@@Z 004140e0 f i AuthSocket.obj
 0001:00013280       ?_Ufill@?$vector@V?$_Iterator@$00@?$list@U?$pair@QAVThread@ACE_Based@@PAVSqlResultQueue@@@std@@V?$allocator@U?$pair@QAVThread@ACE_Based@@PAVSqlResultQueue@@@std@@@2@@std@@V?$allocator@V?$_Iterator@$00@?$list@U?$pair@QAVThread@ACE_Based@@PAVSqlResultQueue@@@std@@V?$allocator@U?$pair@QAVThread@ACE_Based@@PAVSqlResultQueue@@@std@@@2@@std@@@3@@std@@IAEPAV?$_Iterator@$00@?$list@U?$pair@QAVThread@ACE_Based@@PAVSqlResultQueue@@@std@@V?$allocator@U?$pair@QAVThread@ACE_Based@@PAVSqlResultQueue@@@std@@@2@@2@PAV342@IABV342@@Z 00414280 f i AuthSocket.obj
 0001:000132d0       ?_Orphan_range@?$vector@V?$_Iterator@$00@?$list@U?$pair@QAVThread@ACE_Based@@PAVSqlResultQueue@@@std@@V?$allocator@U?$pair@QAVThread@ACE_Based@@PAVSqlResultQueue@@@std@@@2@@std@@V?$allocator@V?$_Iterator@$00@?$list@U?$pair@QAVThread@ACE_Based@@PAVSqlResultQueue@@@std@@V?$allocator@U?$pair@QAVThread@ACE_Based@@PAVSqlResultQueue@@@std@@@2@@std@@@3@@std@@IBEXPAV?$_Iterator@$00@?$list@U?$pair@QAVThread@ACE_Based@@PAVSqlResultQueue@@@std@@V?$allocator@U?$pair@QAVThread@ACE_Based@@PAVSqlResultQueue@@@std@@@2@@2@0@Z 004142d0 f i AuthSocket.obj
 0001:000133b0       ?max_size@?$allocator@V?$_Iterator@$00@?$list@U?$pair@QAVThread@ACE_Based@@PAVSqlResultQueue@@@std@@V?$allocator@U?$pair@QAVThread@ACE_Based@@PAVSqlResultQueue@@@std@@@2@@std@@@std@@QBEIXZ 004143b0 f i AuthSocket.obj
 0001:00013400       ?_Erase@?$_Tree@V?$_Tmap_traits@V?$basic_string@DU?$char_traits@D@std@@V?$allocator@D@2@@std@@PAUPATCH_INFO@@U?$less@V?$basic_string@DU?$char_traits@D@std@@V?$allocator@D@2@@std@@@2@V?$allocator@U?$pair@$$CBV?$basic_string@DU?$char_traits@D@std@@V?$allocator@D@2@@std@@PAUPATCH_INFO@@@std@@@2@$0A@@std@@@std@@IAEXPAU_Node@?$_Tree_nod@V?$_Tmap_traits@V?$basic_string@DU?$char_traits@D@std@@V?$allocator@D@2@@std@@PAUPATCH_INFO@@U?$less@V?$basic_string@DU?$char_traits@D@std@@V?$allocator@D@2@@std@@@2@V?$allocator@U?$pair@$$CBV?$basic_string@DU?$char_traits@D@std@@V?$allocator@D@2@@std@@PAUPATCH_INFO@@@std@@@2@$0A@@std@@@2@@Z 00414400 f i AuthSocket.obj
 0001:000134a0       ?_Max@?$_Tree@V?$_Tmap_traits@V?$basic_string@DU?$char_traits@D@std@@V?$allocator@D@2@@std@@PAUPATCH_INFO@@U?$less@V?$basic_string@DU?$char_traits@D@std@@V?$allocator@D@2@@std@@@2@V?$allocator@U?$pair@$$CBV?$basic_string@DU?$char_traits@D@std@@V?$allocator@D@2@@std@@PAUPATCH_INFO@@@std@@@2@$0A@@std@@@std@@KAPAU_Node@?$_Tree_nod@V?$_Tmap_traits@V?$basic_string@DU?$char_traits@D@std@@V?$allocator@D@2@@std@@PAUPATCH_INFO@@U?$less@V?$basic_string@DU?$char_traits@D@std@@V?$allocator@D@2@@std@@@2@V?$allocator@U?$pair@$$CBV?$basic_string@DU?$char_traits@D@std@@V?$allocator@D@2@@std@@PAUPATCH_INFO@@@std@@@2@$0A@@std@@@2@PAU342@@Z 004144a0 f i AuthSocket.obj
 0001:000134e0       ?_Min@?$_Tree@V?$_Tmap_traits@V?$basic_string@DU?$char_traits@D@std@@V?$allocator@D@2@@std@@PAUPATCH_INFO@@U?$less@V?$basic_string@DU?$char_traits@D@std@@V?$allocator@D@2@@std@@@2@V?$allocator@U?$pair@$$CBV?$basic_string@DU?$char_traits@D@std@@V?$allocator@D@2@@std@@PAUPATCH_INFO@@@std@@@2@$0A@@std@@@std@@KAPAU_Node@?$_Tree_nod@V?$_Tmap_traits@V?$basic_string@DU?$char_traits@D@std@@V?$allocator@D@2@@std@@PAUPATCH_INFO@@U?$less@V?$basic_string@DU?$char_traits@D@std@@V?$allocator@D@2@@std@@@2@V?$allocator@U?$pair@$$CBV?$basic_string@DU?$char_traits@D@std@@V?$allocator@D@2@@std@@PAUPATCH_INFO@@@std@@@2@$0A@@std@@@2@PAU342@@Z 004144e0 f i AuthSocket.obj
 0001:00013520       ?_Orphan_ptr@?$_Tree@V?$_Tmap_traits@V?$basic_string@DU?$char_traits@D@std@@V?$allocator@D@2@@std@@PAUPATCH_INFO@@U?$less@V?$basic_string@DU?$char_traits@D@std@@V?$allocator@D@2@@std@@@2@V?$allocator@U?$pair@$$CBV?$basic_string@DU?$char_traits@D@std@@V?$allocator@D@2@@std@@PAUPATCH_INFO@@@std@@@2@$0A@@std@@@std@@IBEXAAV12@PAU_Node@?$_Tree_nod@V?$_Tmap_traits@V?$basic_string@DU?$char_traits@D@std@@V?$allocator@D@2@@std@@PAUPATCH_INFO@@U?$less@V?$basic_string@DU?$char_traits@D@std@@V?$allocator@D@2@@std@@@2@V?$allocator@U?$pair@$$CBV?$basic_string@DU?$char_traits@D@std@@V?$allocator@D@2@@std@@PAUPATCH_INFO@@@std@@@2@$0A@@std@@@2@@Z 00414520 f i AuthSocket.obj
 0001:00013600       ??0?$_Tree_nod@V?$_Tmap_traits@V?$basic_string@DU?$char_traits@D@std@@V?$allocator@D@2@@std@@PAUPATCH_INFO@@U?$less@V?$basic_string@DU?$char_traits@D@std@@V?$allocator@D@2@@std@@@2@V?$allocator@U?$pair@$$CBV?$basic_string@DU?$char_traits@D@std@@V?$allocator@D@2@@std@@PAUPATCH_INFO@@@std@@@2@$0A@@std@@@std@@IAE@ABU?$less@V?$basic_string@DU?$char_traits@D@std@@V?$allocator@D@2@@std@@@1@V?$allocator@U?$pair@$$CBV?$basic_string@DU?$char_traits@D@std@@V?$allocator@D@2@@std@@PAUPATCH_INFO@@@std@@@1@@Z 00414600 f i AuthSocket.obj
 0001:00013660       ?max_size@?$allocator@U?$pair@$$CBV?$basic_string@DU?$char_traits@D@std@@V?$allocator@D@2@@std@@PAUPATCH_INFO@@@std@@@std@@QBEIXZ 00414660 f i AuthSocket.obj
 0001:000136b0       ?allocate@?$allocator@U_Node@?$_Tree_nod@V?$_Tmap_traits@V?$basic_string@DU?$char_traits@D@std@@V?$allocator@D@2@@std@@PAUPATCH_INFO@@U?$less@V?$basic_string@DU?$char_traits@D@std@@V?$allocator@D@2@@std@@@2@V?$allocator@U?$pair@$$CBV?$basic_string@DU?$char_traits@D@std@@V?$allocator@D@2@@std@@PAUPATCH_INFO@@@std@@@2@$0A@@std@@@std@@@std@@QAEPAU_Node@?$_Tree_nod@V?$_Tmap_traits@V?$basic_string@DU?$char_traits@D@std@@V?$allocator@D@2@@std@@PAUPATCH_INFO@@U?$less@V?$basic_string@DU?$char_traits@D@std@@V?$allocator@D@2@@std@@@2@V?$allocator@U?$pair@$$CBV?$basic_string@DU?$char_traits@D@std@@V?$allocator@D@2@@std@@PAUPATCH_INFO@@@std@@@2@$0A@@std@@@2@I@Z 004146b0 f i AuthSocket.obj
 0001:000136e0       ?destroy@?$allocator@U_Node@?$_Tree_nod@V?$_Tmap_traits@V?$basic_string@DU?$char_traits@D@std@@V?$allocator@D@2@@std@@PAUPATCH_INFO@@U?$less@V?$basic_string@DU?$char_traits@D@std@@V?$allocator@D@2@@std@@@2@V?$allocator@U?$pair@$$CBV?$basic_string@DU?$char_traits@D@std@@V?$allocator@D@2@@std@@PAUPATCH_INFO@@@std@@@2@$0A@@std@@@std@@@std@@QAEXPAU_Node@?$_Tree_nod@V?$_Tmap_traits@V?$basic_string@DU?$char_traits@D@std@@V?$allocator@D@2@@std@@PAUPATCH_INFO@@U?$less@V?$basic_string@DU?$char_traits@D@std@@V?$allocator@D@2@@std@@@2@V?$allocator@U?$pair@$$CBV?$basic_string@DU?$char_traits@D@std@@V?$allocator@D@2@@std@@PAUPATCH_INFO@@@std@@@2@$0A@@std@@@2@@Z 004146e0 f i AuthSocket.obj
 0001:00013710       ?construct@?$allocator@PAU_Node@?$_Tree_nod@V?$_Tmap_traits@V?$basic_string@DU?$char_traits@D@std@@V?$allocator@D@2@@std@@PAUPATCH_INFO@@U?$less@V?$basic_string@DU?$char_traits@D@std@@V?$allocator@D@2@@std@@@2@V?$allocator@U?$pair@$$CBV?$basic_string@DU?$char_traits@D@std@@V?$allocator@D@2@@std@@PAUPATCH_INFO@@@std@@@2@$0A@@std@@@std@@@std@@QAEXPAPAU_Node@?$_Tree_nod@V?$_Tmap_traits@V?$basic_string@DU?$char_traits@D@std@@V?$allocator@D@2@@std@@PAUPATCH_INFO@@U?$less@V?$basic_string@DU?$char_traits@D@std@@V?$allocator@D@2@@std@@@2@V?$allocator@U?$pair@$$CBV?$basic_string@DU?$char_traits@D@std@@V?$allocator@D@2@@std@@PAUPATCH_INFO@@@std@@@2@$0A@@std@@@2@ABQAU342@@Z 00414710 f i AuthSocket.obj
 0001:00013740       ??8?$_Vector_const_iterator@V?$basic_string@DU?$char_traits@D@std@@V?$allocator@D@2@@std@@V?$allocator@V?$basic_string@DU?$char_traits@D@std@@V?$allocator@D@2@@std@@@2@@std@@QBE_NABV01@@Z 00414740 f i AuthSocket.obj
 0001:00013780       ?_Compat@?$_Vector_const_iterator@V?$basic_string@DU?$char_traits@D@std@@V?$allocator@D@2@@std@@V?$allocator@V?$basic_string@DU?$char_traits@D@std@@V?$allocator@D@2@@std@@@2@@std@@QBEXABV12@@Z 00414780 f i AuthSocket.obj
 0001:00013830       ??Y?$_Vector_const_iterator@EV?$allocator@E@std@@@std@@QAEAAV01@H@Z 00414830 f i AuthSocket.obj
 0001:00013960       ?_Getmycont@_Iterator_base@std@@QBEPBV_Container_base_secure@2@XZ 00414960 f i AuthSocket.obj
 0001:00013980       ?_Has_container@_Iterator_base@std@@QBE_NXZ 00414980 f i AuthSocket.obj
 0001:000139a0       ??0?$_Iterator@$00@?$list@U?$pair@QAVThread@ACE_Based@@PAVSqlTransaction@@@std@@V?$allocator@U?$pair@QAVThread@ACE_Based@@PAVSqlTransaction@@@std@@@2@@std@@QAE@PAU_Node@?$_List_nod@U?$pair@QAVThread@ACE_Based@@PAVSqlTransaction@@@std@@V?$allocator@U?$pair@QAVThread@ACE_Based@@PAVSqlTransaction@@@std@@@2@@2@PBV12@@Z 004149a0 f i AuthSocket.obj
 0001:000139e0       ??Y?$_Vector_iterator@V?$_Iterator@$00@?$list@U?$pair@QAVThread@ACE_Based@@PAVSqlTransaction@@@std@@V?$allocator@U?$pair@QAVThread@ACE_Based@@PAVSqlTransaction@@@std@@@2@@std@@V?$allocator@V?$_Iterator@$00@?$list@U?$pair@QAVThread@ACE_Based@@PAVSqlTransaction@@@std@@V?$allocator@U?$pair@QAVThread@ACE_Based@@PAVSqlTransaction@@@std@@@2@@std@@@3@@std@@QAEAAV01@H@Z 004149e0 f i AuthSocket.obj
 0001:00013a10       ??0?$_Vector_const_iterator@V?$_Iterator@$00@?$list@U?$pair@QAVThread@ACE_Based@@PAVSqlTransaction@@@std@@V?$allocator@U?$pair@QAVThread@ACE_Based@@PAVSqlTransaction@@@std@@@2@@std@@V?$allocator@V?$_Iterator@$00@?$list@U?$pair@QAVThread@ACE_Based@@PAVSqlTransaction@@@std@@V?$allocator@U?$pair@QAVThread@ACE_Based@@PAVSqlTransaction@@@std@@@2@@std@@@3@@std@@QAE@PAV?$_Iterator@$00@?$list@U?$pair@QAVThread@ACE_Based@@PAVSqlTransaction@@@std@@V?$allocator@U?$pair@QAVThread@ACE_Based@@PAVSqlTransaction@@@std@@@2@@1@PBV_Container_base_secure@1@@Z 00414a10 f i AuthSocket.obj
 0001:00013b00       ??9?$_Vector_const_iterator@V?$_Iterator@$00@?$list@U?$pair@QAVThread@ACE_Based@@PAVSqlTransaction@@@std@@V?$allocator@U?$pair@QAVThread@ACE_Based@@PAVSqlTransaction@@@std@@@2@@std@@V?$allocator@V?$_Iterator@$00@?$list@U?$pair@QAVThread@ACE_Based@@PAVSqlTransaction@@@std@@V?$allocator@U?$pair@QAVThread@ACE_Based@@PAVSqlTransaction@@@std@@@2@@std@@@3@@std@@QBE_NABV01@@Z 00414b00 f i AuthSocket.obj
 0001:00013b40       ??M?$_Vector_const_iterator@V?$_Iterator@$00@?$list@U?$pair@QAVThread@ACE_Based@@PAVSqlTransaction@@@std@@V?$allocator@U?$pair@QAVThread@ACE_Based@@PAVSqlTransaction@@@std@@@2@@std@@V?$allocator@V?$_Iterator@$00@?$list@U?$pair@QAVThread@ACE_Based@@PAVSqlTransaction@@@std@@V?$allocator@U?$pair@QAVThread@ACE_Based@@PAVSqlTransaction@@@std@@@2@@std@@@3@@std@@QBE_NABV01@@Z 00414b40 f i AuthSocket.obj
 0001:00013b80       ??0?$_Iterator@$00@?$list@U?$pair@QAVThread@ACE_Based@@PAVSqlResultQueue@@@std@@V?$allocator@U?$pair@QAVThread@ACE_Based@@PAVSqlResultQueue@@@std@@@2@@std@@QAE@PAU_Node@?$_List_nod@U?$pair@QAVThread@ACE_Based@@PAVSqlResultQueue@@@std@@V?$allocator@U?$pair@QAVThread@ACE_Based@@PAVSqlResultQueue@@@std@@@2@@2@PBV12@@Z 00414b80 f i AuthSocket.obj
 0001:00013bc0       ??Y?$_Vector_iterator@V?$_Iterator@$00@?$list@U?$pair@QAVThread@ACE_Based@@PAVSqlResultQueue@@@std@@V?$allocator@U?$pair@QAVThread@ACE_Based@@PAVSqlResultQueue@@@std@@@2@@std@@V?$allocator@V?$_Iterator@$00@?$list@U?$pair@QAVThread@ACE_Based@@PAVSqlResultQueue@@@std@@V?$allocator@U?$pair@QAVThread@ACE_Based@@PAVSqlResultQueue@@@std@@@2@@std@@@3@@std@@QAEAAV01@H@Z 00414bc0 f i AuthSocket.obj
 0001:00013bf0       ??0?$_Vector_const_iterator@V?$_Iterator@$00@?$list@U?$pair@QAVThread@ACE_Based@@PAVSqlResultQueue@@@std@@V?$allocator@U?$pair@QAVThread@ACE_Based@@PAVSqlResultQueue@@@std@@@2@@std@@V?$allocator@V?$_Iterator@$00@?$list@U?$pair@QAVThread@ACE_Based@@PAVSqlResultQueue@@@std@@V?$allocator@U?$pair@QAVThread@ACE_Based@@PAVSqlResultQueue@@@std@@@2@@std@@@3@@std@@QAE@PAV?$_Iterator@$00@?$list@U?$pair@QAVThread@ACE_Based@@PAVSqlResultQueue@@@std@@V?$allocator@U?$pair@QAVThread@ACE_Based@@PAVSqlResultQueue@@@std@@@2@@1@PBV_Container_base_secure@1@@Z 00414bf0 f i AuthSocket.obj
 0001:00013ce0       ??9?$_Vector_const_iterator@V?$_Iterator@$00@?$list@U?$pair@QAVThread@ACE_Based@@PAVSqlResultQueue@@@std@@V?$allocator@U?$pair@QAVThread@ACE_Based@@PAVSqlResultQueue@@@std@@@2@@std@@V?$allocator@V?$_Iterator@$00@?$list@U?$pair@QAVThread@ACE_Based@@PAVSqlResultQueue@@@std@@V?$allocator@U?$pair@QAVThread@ACE_Based@@PAVSqlResultQueue@@@std@@@2@@std@@@3@@std@@QBE_NABV01@@Z 00414ce0 f i AuthSocket.obj
 0001:00013d20       ??M?$_Vector_const_iterator@V?$_Iterator@$00@?$list@U?$pair@QAVThread@ACE_Based@@PAVSqlResultQueue@@@std@@V?$allocator@U?$pair@QAVThread@ACE_Based@@PAVSqlResultQueue@@@std@@@2@@std@@V?$allocator@V?$_Iterator@$00@?$list@U?$pair@QAVThread@ACE_Based@@PAVSqlResultQueue@@@std@@V?$allocator@U?$pair@QAVThread@ACE_Based@@PAVSqlResultQueue@@@std@@@2@@std@@@3@@std@@QBE_NABV01@@Z 00414d20 f i AuthSocket.obj
 0001:00013d60       ??0_Node@?$_Tree_nod@V?$_Tmap_traits@V?$basic_string@DU?$char_traits@D@std@@V?$allocator@D@2@@std@@PAUPATCH_INFO@@U?$less@V?$basic_string@DU?$char_traits@D@std@@V?$allocator@D@2@@std@@@2@V?$allocator@U?$pair@$$CBV?$basic_string@DU?$char_traits@D@std@@V?$allocator@D@2@@std@@PAUPATCH_INFO@@@std@@@2@$0A@@std@@@std@@QAE@PAU012@00ABU?$pair@$$CBV?$basic_string@DU?$char_traits@D@std@@V?$allocator@D@2@@std@@PAUPATCH_INFO@@@2@D@Z 00414d60 f i AuthSocket.obj
 0001:00013dc0       ??0?$_Ranit@V?$_Iterator@$00@?$list@U?$pair@QAVThread@ACE_Based@@PAVSqlTransaction@@@std@@V?$allocator@U?$pair@QAVThread@ACE_Based@@PAVSqlTransaction@@@std@@@2@@std@@HPBV123@ABV123@@std@@QAE@XZ 00414dc0 f i AuthSocket.obj
 0001:00013df0       ??0?$_Ranit@V?$_Iterator@$00@?$list@U?$pair@QAVThread@ACE_Based@@PAVSqlResultQueue@@@std@@V?$allocator@U?$pair@QAVThread@ACE_Based@@PAVSqlResultQueue@@@std@@@2@@std@@HPBV123@ABV123@@std@@QAE@XZ 00414df0 f i AuthSocket.obj
 0001:00013e20       ??0?$pair@$$CBV?$basic_string@DU?$char_traits@D@std@@V?$allocator@D@2@@std@@PAUPATCH_INFO@@@std@@QAE@ABU01@@Z 00414e20 f i AuthSocket.obj
 0001:00013e70       ??0?$_Iterator_with_base@Urandom_access_iterator_tag@std@@V?$_Iterator@$00@?$list@U?$pair@QAVThread@ACE_Based@@PAVSqlTransaction@@@std@@V?$allocator@U?$pair@QAVThread@ACE_Based@@PAVSqlTransaction@@@std@@@2@@2@HPBV342@ABV342@V_Iterator_base@2@@std@@QAE@XZ 00414e70 f i AuthSocket.obj
 0001:00013ea0       ??0?$_Iterator_with_base@Urandom_access_iterator_tag@std@@V?$_Iterator@$00@?$list@U?$pair@QAVThread@ACE_Based@@PAVSqlResultQueue@@@std@@V?$allocator@U?$pair@QAVThread@ACE_Based@@PAVSqlResultQueue@@@std@@@2@@2@HPBV342@ABV342@V_Iterator_base@2@@std@@QAE@XZ 00414ea0 f i AuthSocket.obj
 0001:00013ed0       ??0?$_Container_base_aux_alloc_empty@V?$allocator@U?$pair@QAVThread@ACE_Based@@PAVSqlTransaction@@@std@@@std@@@std@@IAE@V?$allocator@U?$pair@QAVThread@ACE_Based@@PAVSqlTransaction@@@std@@@1@@Z 00414ed0 f i AuthSocket.obj
 0001:00013f10       ?insert@?$vector@V?$_Iterator@$00@?$list@U?$pair@QAVThread@ACE_Based@@PAVSqlTransaction@@@std@@V?$allocator@U?$pair@QAVThread@ACE_Based@@PAVSqlTransaction@@@std@@@2@@std@@V?$allocator@V?$_Iterator@$00@?$list@U?$pair@QAVThread@ACE_Based@@PAVSqlTransaction@@@std@@V?$allocator@U?$pair@QAVThread@ACE_Based@@PAVSqlTransaction@@@std@@@2@@std@@@3@@std@@QAEXV?$_Vector_const_iterator@V?$_Iterator@$00@?$list@U?$pair@QAVThread@ACE_Based@@PAVSqlTransaction@@@std@@V?$allocator@U?$pair@QAVThread@ACE_Based@@PAVSqlTransaction@@@std@@@2@@std@@V?$allocator@V?$_Iterator@$00@?$list@U?$pair@QAVThread@ACE_Based@@PAVSqlTransaction@@@std@@V?$allocator@U?$pair@QAVThread@ACE_Based@@PAVSqlTransaction@@@std@@@2@@std@@@3@@2@IABV?$_Iterator@$00@?$list@U?$pair@QAVThread@ACE_Based@@PAVSqlTransaction@@@std@@V?$allocator@U?$pair@QAVThread@ACE_Based@@PAVSqlTransaction@@@std@@@2@@2@@Z 00414f10 f i AuthSocket.obj
 0001:00013fb0       ??0?$_Container_base_aux_alloc_empty@V?$allocator@U?$pair@QAVThread@ACE_Based@@PAVSqlResultQueue@@@std@@@std@@@std@@IAE@V?$allocator@U?$pair@QAVThread@ACE_Based@@PAVSqlResultQueue@@@std@@@1@@Z 00414fb0 f i AuthSocket.obj
 0001:00013ff0       ?insert@?$vector@V?$_Iterator@$00@?$list@U?$pair@QAVThread@ACE_Based@@PAVSqlResultQueue@@@std@@V?$allocator@U?$pair@QAVThread@ACE_Based@@PAVSqlResultQueue@@@std@@@2@@std@@V?$allocator@V?$_Iterator@$00@?$list@U?$pair@QAVThread@ACE_Based@@PAVSqlResultQueue@@@std@@V?$allocator@U?$pair@QAVThread@ACE_Based@@PAVSqlResultQueue@@@std@@@2@@std@@@3@@std@@QAEXV?$_Vector_const_iterator@V?$_Iterator@$00@?$list@U?$pair@QAVThread@ACE_Based@@PAVSqlResultQueue@@@std@@V?$allocator@U?$pair@QAVThread@ACE_Based@@PAVSqlResultQueue@@@std@@@2@@std@@V?$allocator@V?$_Iterator@$00@?$list@U?$pair@QAVThread@ACE_Based@@PAVSqlResultQueue@@@std@@V?$allocator@U?$pair@QAVThread@ACE_Based@@PAVSqlResultQueue@@@std@@@2@@std@@@3@@2@IABV?$_Iterator@$00@?$list@U?$pair@QAVThread@ACE_Based@@PAVSqlResultQueue@@@std@@V?$allocator@U?$pair@QAVThread@ACE_Based@@PAVSqlResultQueue@@@std@@@2@@2@@Z 00414ff0 f i AuthSocket.obj
 0001:00014090       ??0?$_Tmap_traits@V?$basic_string@DU?$char_traits@D@std@@V?$allocator@D@2@@std@@PAUPATCH_INFO@@U?$less@V?$basic_string@DU?$char_traits@D@std@@V?$allocator@D@2@@std@@@2@V?$allocator@U?$pair@$$CBV?$basic_string@DU?$char_traits@D@std@@V?$allocator@D@2@@std@@PAUPATCH_INFO@@@std@@@2@$0A@@std@@QAE@U?$less@V?$basic_string@DU?$char_traits@D@std@@V?$allocator@D@2@@std@@@1@V?$allocator@U?$pair@$$CBV?$basic_string@DU?$char_traits@D@std@@V?$allocator@D@2@@std@@PAUPATCH_INFO@@@std@@@1@@Z 00415090 f i AuthSocket.obj
 0001:000140e0       ??Y?$_Vector_const_iterator@V?$_Iterator@$00@?$list@U?$pair@QAVThread@ACE_Based@@PAVSqlTransaction@@@std@@V?$allocator@U?$pair@QAVThread@ACE_Based@@PAVSqlTransaction@@@std@@@2@@std@@V?$allocator@V?$_Iterator@$00@?$list@U?$pair@QAVThread@ACE_Based@@PAVSqlTransaction@@@std@@V?$allocator@U?$pair@QAVThread@ACE_Based@@PAVSqlTransaction@@@std@@@2@@std@@@3@@std@@QAEAAV01@H@Z 004150e0 f i AuthSocket.obj
 0001:00014210       ??8?$_Vector_const_iterator@V?$_Iterator@$00@?$list@U?$pair@QAVThread@ACE_Based@@PAVSqlTransaction@@@std@@V?$allocator@U?$pair@QAVThread@ACE_Based@@PAVSqlTransaction@@@std@@@2@@std@@V?$allocator@V?$_Iterator@$00@?$list@U?$pair@QAVThread@ACE_Based@@PAVSqlTransaction@@@std@@V?$allocator@U?$pair@QAVThread@ACE_Based@@PAVSqlTransaction@@@std@@@2@@std@@@3@@std@@QBE_NABV01@@Z 00415210 f i AuthSocket.obj
 0001:00014250       ?_Compat@?$_Vector_const_iterator@V?$_Iterator@$00@?$list@U?$pair@QAVThread@ACE_Based@@PAVSqlTransaction@@@std@@V?$allocator@U?$pair@QAVThread@ACE_Based@@PAVSqlTransaction@@@std@@@2@@std@@V?$allocator@V?$_Iterator@$00@?$list@U?$pair@QAVThread@ACE_Based@@PAVSqlTransaction@@@std@@V?$allocator@U?$pair@QAVThread@ACE_Based@@PAVSqlTransaction@@@std@@@2@@std@@@3@@std@@QBEXABV12@@Z 00415250 f i AuthSocket.obj
 0001:00014300       ??Y?$_Vector_const_iterator@V?$_Iterator@$00@?$list@U?$pair@QAVThread@ACE_Based@@PAVSqlResultQueue@@@std@@V?$allocator@U?$pair@QAVThread@ACE_Based@@PAVSqlResultQueue@@@std@@@2@@std@@V?$allocator@V?$_Iterator@$00@?$list@U?$pair@QAVThread@ACE_Based@@PAVSqlResultQueue@@@std@@V?$allocator@U?$pair@QAVThread@ACE_Based@@PAVSqlResultQueue@@@std@@@2@@std@@@3@@std@@QAEAAV01@H@Z 00415300 f i AuthSocket.obj
 0001:00014430       ??8?$_Vector_const_iterator@V?$_Iterator@$00@?$list@U?$pair@QAVThread@ACE_Based@@PAVSqlResultQueue@@@std@@V?$allocator@U?$pair@QAVThread@ACE_Based@@PAVSqlResultQueue@@@std@@@2@@std@@V?$allocator@V?$_Iterator@$00@?$list@U?$pair@QAVThread@ACE_Based@@PAVSqlResultQueue@@@std@@V?$allocator@U?$pair@QAVThread@ACE_Based@@PAVSqlResultQueue@@@std@@@2@@std@@@3@@std@@QBE_NABV01@@Z 00415430 f i AuthSocket.obj
 0001:00014470       ?_Compat@?$_Vector_const_iterator@V?$_Iterator@$00@?$list@U?$pair@QAVThread@ACE_Based@@PAVSqlResultQueue@@@std@@V?$allocator@U?$pair@QAVThread@ACE_Based@@PAVSqlResultQueue@@@std@@@2@@std@@V?$allocator@V?$_Iterator@$00@?$list@U?$pair@QAVThread@ACE_Based@@PAVSqlResultQueue@@@std@@V?$allocator@U?$pair@QAVThread@ACE_Based@@PAVSqlResultQueue@@@std@@@2@@std@@@3@@std@@QBEXABV12@@Z 00415470 f i AuthSocket.obj
 0001:00014520       ??0?$_Container_base_aux_alloc_empty@V?$allocator@U?$pair@$$CBV?$basic_string@DU?$char_traits@D@std@@V?$allocator@D@2@@std@@PAUPATCH_INFO@@@std@@@std@@@std@@IAE@V?$allocator@U?$pair@$$CBV?$basic_string@DU?$char_traits@D@std@@V?$allocator@D@2@@std@@PAUPATCH_INFO@@@std@@@1@@Z 00415520 f i AuthSocket.obj
 0001:00014560       ??$EndianConvert@I@@YAXAAI@Z 00415560 f i AuthSocket.obj
 0001:00014570       ??$append@E@ByteBuffer@@QAEXE@Z 00415570 f i AuthSocket.obj
 0001:000145b0       ?EndianConvert@@YAXAAE@Z   004155b0 f i AuthSocket.obj
 0001:000145c0       ??$append@G@ByteBuffer@@QAEXG@Z 004155c0 f i AuthSocket.obj
 0001:00014600       ??$append@I@ByteBuffer@@QAEXI@Z 00415600 f i AuthSocket.obj
 0001:00014640       ??$append@_K@ByteBuffer@@QAEX_K@Z 00415640 f i AuthSocket.obj
 0001:00014680       ??$append@M@ByteBuffer@@QAEXM@Z 00415680 f i AuthSocket.obj
 0001:000146c0       ??$EndianConvert@M@@YAXAAM@Z 004156c0 f i AuthSocket.obj
 0001:000146d0       ??0?$ACE_Guard@VACE_Thread_Mutex@@@@QAE@AAVACE_Thread_Mutex@@@Z 004156d0 f i AuthSocket.obj
 0001:00014710       ??1?$ACE_Guard@VACE_Thread_Mutex@@@@QAE@XZ 00415710 f i AuthSocket.obj
 0001:00014740       ??$reverse@PAE@std@@YAXPAE0@Z 00415740 f i AuthSocket.obj
 0001:00014790       ??$EndianConvert@G@@YAXAAG@Z 00415790 f i AuthSocket.obj
 0001:000147a0       ??0?$ACE_Refcounted_Auto_Ptr@VQueryResult@@VACE_Null_Mutex@@@@QAE@PAVQueryResult@@@Z 004157a0 f i AuthSocket.obj
 0001:000147e0       ??1?$ACE_Refcounted_Auto_Ptr@VQueryResult@@VACE_Null_Mutex@@@@UAE@XZ 004157e0 f i AuthSocket.obj
 0001:00014820       ??4?$ACE_Refcounted_Auto_Ptr@VQueryResult@@VACE_Null_Mutex@@@@QAEXABV0@@Z 00415820 f i AuthSocket.obj
 0001:000148d0       ??C?$ACE_Refcounted_Auto_Ptr@VQueryResult@@VACE_Null_Mutex@@@@QBEPAVQueryResult@@XZ 004158d0 f i AuthSocket.obj
 0001:00014900       ??D?$ACE_Refcounted_Auto_Ptr@VQueryResult@@VACE_Null_Mutex@@@@QBEAAVQueryResult@@XZ 00415900 f i AuthSocket.obj
 0001:00014930       ??7?$ACE_Refcounted_Auto_Ptr@VQueryResult@@VACE_Null_Mutex@@@@QBE_NXZ 00415930 f i AuthSocket.obj
 0001:00014960       ??B?$ACE_Refcounted_Auto_Ptr@VQueryResult@@VACE_Null_Mutex@@@@QBE_NXZ 00415960 f i AuthSocket.obj
 0001:00014990       ??$_Ucopy@V?$_Vector_const_iterator@V?$basic_string@DU?$char_traits@D@std@@V?$allocator@D@2@@std@@V?$allocator@V?$basic_string@DU?$char_traits@D@std@@V?$allocator@D@2@@std@@@2@@std@@@?$vector@V?$basic_string@DU?$char_traits@D@std@@V?$allocator@D@2@@std@@V?$allocator@V?$basic_string@DU?$char_traits@D@std@@V?$allocator@D@2@@std@@@2@@std@@IAEPAV?$basic_string@DU?$char_traits@D@std@@V?$allocator@D@2@@1@V?$_Vector_const_iterator@V?$basic_string@DU?$char_traits@D@std@@V?$allocator@D@2@@std@@V?$allocator@V?$basic_string@DU?$char_traits@D@std@@V?$allocator@D@2@@std@@@2@@1@0PAV21@@Z 00415990 f i AuthSocket.obj
 0001:00014a70       ??$unchecked_copy@PAV?$basic_string@DU?$char_traits@D@std@@V?$allocator@D@2@@std@@PAV12@@stdext@@YAPAV?$basic_string@DU?$char_traits@D@std@@V?$allocator@D@2@@std@@PAV12@00@Z 00415a70 f i AuthSocket.obj
 0001:00014af0       ??$_Ucopy@PAV?$basic_string@DU?$char_traits@D@std@@V?$allocator@D@2@@std@@@?$vector@V?$basic_string@DU?$char_traits@D@std@@V?$allocator@D@2@@std@@V?$allocator@V?$basic_string@DU?$char_traits@D@std@@V?$allocator@D@2@@std@@@2@@std@@IAEPAV?$basic_string@DU?$char_traits@D@std@@V?$allocator@D@2@@1@PAV21@00@Z 00415af0 f i AuthSocket.obj
 0001:00014b30       ??$?0U?$pair@QAVThread@ACE_Based@@PAVSqlTransaction@@@std@@@?$allocator@V?$_Iterator@$00@?$list@U?$pair@QAVThread@ACE_Based@@PAVSqlTransaction@@@std@@V?$allocator@U?$pair@QAVThread@ACE_Based@@PAVSqlTransaction@@@std@@@2@@std@@@std@@QAE@ABV?$allocator@U?$pair@QAVThread@ACE_Based@@PAVSqlTransaction@@@std@@@1@@Z 00415b30 f i AuthSocket.obj
 0001:00014b50       ??$?0U?$pair@QAVThread@ACE_Based@@PAVSqlResultQueue@@@std@@@?$allocator@V?$_Iterator@$00@?$list@U?$pair@QAVThread@ACE_Based@@PAVSqlResultQueue@@@std@@V?$allocator@U?$pair@QAVThread@ACE_Based@@PAVSqlResultQueue@@@std@@@2@@std@@@std@@QAE@ABV?$allocator@U?$pair@QAVThread@ACE_Based@@PAVSqlResultQueue@@@std@@@1@@Z 00415b50 f i AuthSocket.obj
 0001:00014b70       ??$_Umove@V?$_Vector_iterator@EV?$allocator@E@std@@@std@@@?$vector@EV?$allocator@E@std@@@std@@IAEPAEV?$_Vector_iterator@EV?$allocator@E@std@@@1@0PAE@Z 00415b70 f i AuthSocket.obj
 0001:00014c50       ??$_Destroy_range@V?$allocator@V?$basic_string@DU?$char_traits@D@std@@V?$allocator@D@2@@std@@@std@@@std@@YAXPAV?$basic_string@DU?$char_traits@D@std@@V?$allocator@D@2@@0@0AAV?$allocator@V?$basic_string@DU?$char_traits@D@std@@V?$allocator@D@2@@std@@@0@@Z 00415c50 f i AuthSocket.obj
 0001:00014ca0       ??$insert@V?$_Const_iterator@$00@?$list@U?$pair@QAVThread@ACE_Based@@PAVSqlTransaction@@@std@@V?$allocator@U?$pair@QAVThread@ACE_Based@@PAVSqlTransaction@@@std@@@2@@std@@@?$list@U?$pair@QAVThread@ACE_Based@@PAVSqlTransaction@@@std@@V?$allocator@U?$pair@QAVThread@ACE_Based@@PAVSqlTransaction@@@std@@@2@@std@@QAEXV?$_Const_iterator@$00@01@00@Z 00415ca0 f i AuthSocket.obj
 0001:00014da0       ??$fill@V?$_Vector_iterator@V?$_Iterator@$00@?$list@U?$pair@QAVThread@ACE_Based@@PAVSqlTransaction@@@std@@V?$allocator@U?$pair@QAVThread@ACE_Based@@PAVSqlTransaction@@@std@@@2@@std@@V?$allocator@V?$_Iterator@$00@?$list@U?$pair@QAVThread@ACE_Based@@PAVSqlTransaction@@@std@@V?$allocator@U?$pair@QAVThread@ACE_Based@@PAVSqlTransaction@@@std@@@2@@std@@@3@@std@@V?$_Iterator@$00@?$list@U?$pair@QAVThread@ACE_Based@@PAVSqlTransaction@@@std@@V?$allocator@U?$pair@QAVThread@ACE_Based@@PAVSqlTransaction@@@std@@@2@@2@@std@@YAXV?$_Vector_iterator@V?$_Iterator@$00@?$list@U?$pair@QAVThread@ACE_Based@@PAVSqlTransaction@@@std@@V?$allocator@U?$pair@QAVThread@ACE_Based@@PAVSqlTransaction@@@std@@@2@@std@@V?$allocator@V?$_Iterator@$00@?$list@U?$pair@QAVThread@ACE_Based@@PAVSqlTransaction@@@std@@V?$allocator@U?$pair@QAVThread@ACE_Based@@PAVSqlTransaction@@@std@@@2@@std@@@3@@0@0ABV?$_Iterator@$00@?$list@U?$pair@QAVThread@ACE_Based@@PAVSqlTransaction@@@std@@V?$allocator@U?$pair@QAVThread@ACE_Based@@PAVSqlTransaction@@@std@@@2@@0@@Z 00415da0 f i AuthSocket.obj
 0001:00014e60       ??$insert@V?$_Const_iterator@$00@?$list@U?$pair@QAVThread@ACE_Based@@PAVSqlResultQueue@@@std@@V?$allocator@U?$pair@QAVThread@ACE_Based@@PAVSqlResultQueue@@@std@@@2@@std@@@?$list@U?$pair@QAVThread@ACE_Based@@PAVSqlResultQueue@@@std@@V?$allocator@U?$pair@QAVThread@ACE_Based@@PAVSqlResultQueue@@@std@@@2@@std@@QAEXV?$_Const_iterator@$00@01@00@Z 00415e60 f i AuthSocket.obj
 0001:00014f60       ??$fill@V?$_Vector_iterator@V?$_Iterator@$00@?$list@U?$pair@QAVThread@ACE_Based@@PAVSqlResultQueue@@@std@@V?$allocator@U?$pair@QAVThread@ACE_Based@@PAVSqlResultQueue@@@std@@@2@@std@@V?$allocator@V?$_Iterator@$00@?$list@U?$pair@QAVThread@ACE_Based@@PAVSqlResultQueue@@@std@@V?$allocator@U?$pair@QAVThread@ACE_Based@@PAVSqlResultQueue@@@std@@@2@@std@@@3@@std@@V?$_Iterator@$00@?$list@U?$pair@QAVThread@ACE_Based@@PAVSqlResultQueue@@@std@@V?$allocator@U?$pair@QAVThread@ACE_Based@@PAVSqlResultQueue@@@std@@@2@@2@@std@@YAXV?$_Vector_iterator@V?$_Iterator@$00@?$list@U?$pair@QAVThread@ACE_Based@@PAVSqlResultQueue@@@std@@V?$allocator@U?$pair@QAVThread@ACE_Based@@PAVSqlResultQueue@@@std@@@2@@std@@V?$allocator@V?$_Iterator@$00@?$list@U?$pair@QAVThread@ACE_Based@@PAVSqlResultQueue@@@std@@V?$allocator@U?$pair@QAVThread@ACE_Based@@PAVSqlResultQueue@@@std@@@2@@std@@@3@@0@0ABV?$_Iterator@$00@?$list@U?$pair@QAVThread@ACE_Based@@PAVSqlResultQueue@@@std@@V?$allocator@U?$pair@QAVThread@ACE_Based@@PAVSqlResultQueue@@@std@@@2@@0@@Z 00415f60 f i AuthSocket.obj
 0001:00015020       ??$unchecked_copy@PAEPAE@stdext@@YAPAEPAE00@Z 00416020 f i AuthSocket.obj
 0001:000150a0       ??$_Destroy_range@V?$allocator@E@std@@@std@@YAXPAE0AAV?$allocator@E@0@@Z 004160a0 f i AuthSocket.obj
 0001:000150f0       ??$_Allocate@E@std@@YAPAEIPAE@Z 004160f0 f i AuthSocket.obj
 0001:00015160       ??0bad_alloc@std@@QAE@PBD@Z 00416160 f i AuthSocket.obj
 0001:000151b0       ??1bad_alloc@std@@UAE@XZ   004161b0 f i AuthSocket.obj
 0001:000151f0       ??_Gbad_alloc@std@@UAEPAXI@Z 004161f0 f i AuthSocket.obj
 0001:000151f0       ??_Ebad_alloc@std@@UAEPAXI@Z 004161f0 f i AuthSocket.obj
 0001:00015230       ??0bad_alloc@std@@QAE@ABV01@@Z 00416230 f i AuthSocket.obj
 0001:00015280       ??$_Debug_lt_pred@U?$less@V?$basic_string@DU?$char_traits@D@std@@V?$allocator@D@2@@std@@@std@@V?$basic_string@DU?$char_traits@D@std@@V?$allocator@D@2@@2@V32@@std@@YA_NU?$less@V?$basic_string@DU?$char_traits@D@std@@V?$allocator@D@2@@std@@@0@ABV?$basic_string@DU?$char_traits@D@std@@V?$allocator@D@2@@0@1PB_WI@Z 00416280 f i AuthSocket.obj
 0001:000152f0       ??$_Allocate@V?$basic_string@DU?$char_traits@D@std@@V?$allocator@D@2@@std@@@std@@YAPAV?$basic_string@DU?$char_traits@D@std@@V?$allocator@D@2@@0@IPAV10@@Z 004162f0 f i AuthSocket.obj
 0001:00015360       ??$_Umove@PAE@?$vector@EV?$allocator@E@std@@@std@@IAEPAEPAE00@Z 00416360 f i AuthSocket.obj
 0001:000153a0       ??$fill@PAEE@std@@YAXPAE0ABE@Z 004163a0 f i AuthSocket.obj
 0001:000153e0       ??$_Unchecked_move_backward@PAEPAE@stdext@@YAPAEPAE00@Z 004163e0 f i AuthSocket.obj
 0001:00015460       ??$_Destroy@PAU_Node@?$_Tree_nod@V?$_Tmap_traits@V?$basic_string@DU?$char_traits@D@std@@V?$allocator@D@2@@std@@PAUPATCH_INFO@@U?$less@V?$basic_string@DU?$char_traits@D@std@@V?$allocator@D@2@@std@@@2@V?$allocator@U?$pair@$$CBV?$basic_string@DU?$char_traits@D@std@@V?$allocator@D@2@@std@@PAUPATCH_INFO@@@std@@@2@$0A@@std@@@std@@@std@@YAXPAPAU_Node@?$_Tree_nod@V?$_Tmap_traits@V?$basic_string@DU?$char_traits@D@std@@V?$allocator@D@2@@std@@PAUPATCH_INFO@@U?$less@V?$basic_string@DU?$char_traits@D@std@@V?$allocator@D@2@@std@@@2@V?$allocator@U?$pair@$$CBV?$basic_string@DU?$char_traits@D@std@@V?$allocator@D@2@@std@@PAUPATCH_INFO@@@std@@@2@$0A@@std@@@0@@Z 00416460 f i AuthSocket.obj
 0001:00015470       ??$?0U?$pair@QAVThread@ACE_Based@@PAVSqlTransaction@@@std@@@?$allocator@PAU_Node@?$_List_nod@U?$pair@QAVThread@ACE_Based@@PAVSqlTransaction@@@std@@V?$allocator@U?$pair@QAVThread@ACE_Based@@PAVSqlTransaction@@@std@@@2@@std@@@std@@QAE@ABV?$allocator@U?$pair@QAVThread@ACE_Based@@PAVSqlTransaction@@@std@@@1@@Z 00416470 f i AuthSocket.obj
 0001:00015490       ??$_Allocate@U_Node@?$_List_nod@U?$pair@QAVThread@ACE_Based@@PAVSqlTransaction@@@std@@V?$allocator@U?$pair@QAVThread@ACE_Based@@PAVSqlTransaction@@@std@@@2@@std@@@std@@YAPAU_Node@?$_List_nod@U?$pair@QAVThread@ACE_Based@@PAVSqlTransaction@@@std@@V?$allocator@U?$pair@QAVThread@ACE_Based@@PAVSqlTransaction@@@std@@@2@@0@IPAU120@@Z 00416490 f i AuthSocket.obj
 0001:00015500       ??$_Destroy@U_Node@?$_List_nod@U?$pair@QAVThread@ACE_Based@@PAVSqlTransaction@@@std@@V?$allocator@U?$pair@QAVThread@ACE_Based@@PAVSqlTransaction@@@std@@@2@@std@@@std@@YAXPAU_Node@?$_List_nod@U?$pair@QAVThread@ACE_Based@@PAVSqlTransaction@@@std@@V?$allocator@U?$pair@QAVThread@ACE_Based@@PAVSqlTransaction@@@std@@@2@@0@@Z 00416500 f i AuthSocket.obj
 0001:00015510       ??$_Construct@PAU_Node@?$_List_nod@U?$pair@QAVThread@ACE_Based@@PAVSqlTransaction@@@std@@V?$allocator@U?$pair@QAVThread@ACE_Based@@PAVSqlTransaction@@@std@@@2@@std@@PAU123@@std@@YAXPAPAU_Node@?$_List_nod@U?$pair@QAVThread@ACE_Based@@PAVSqlTransaction@@@std@@V?$allocator@U?$pair@QAVThread@ACE_Based@@PAVSqlTransaction@@@std@@@2@@0@ABQAU120@@Z 00416510 f i AuthSocket.obj
 0001:00015570       ??$_Destroy@PAU_Node@?$_List_nod@U?$pair@QAVThread@ACE_Based@@PAVSqlTransaction@@@std@@V?$allocator@U?$pair@QAVThread@ACE_Based@@PAVSqlTransaction@@@std@@@2@@std@@@std@@YAXPAPAU_Node@?$_List_nod@U?$pair@QAVThread@ACE_Based@@PAVSqlTransaction@@@std@@V?$allocator@U?$pair@QAVThread@ACE_Based@@PAVSqlTransaction@@@std@@@2@@0@@Z 00416570 f i AuthSocket.obj
 0001:00015580       ??$unchecked_copy@PAV?$_Iterator@$00@?$list@U?$pair@QAVThread@ACE_Based@@PAVSqlTransaction@@@std@@V?$allocator@U?$pair@QAVThread@ACE_Based@@PAVSqlTransaction@@@std@@@2@@std@@PAV123@@stdext@@YAPAV?$_Iterator@$00@?$list@U?$pair@QAVThread@ACE_Based@@PAVSqlTransaction@@@std@@V?$allocator@U?$pair@QAVThread@ACE_Based@@PAVSqlTransaction@@@std@@@2@@std@@PAV123@00@Z 00416580 f i AuthSocket.obj
 0001:00015600       ??$_Destroy_range@V?$allocator@V?$_Iterator@$00@?$list@U?$pair@QAVThread@ACE_Based@@PAVSqlTransaction@@@std@@V?$allocator@U?$pair@QAVThread@ACE_Based@@PAVSqlTransaction@@@std@@@2@@std@@@std@@@std@@YAXPAV?$_Iterator@$00@?$list@U?$pair@QAVThread@ACE_Based@@PAVSqlTransaction@@@std@@V?$allocator@U?$pair@QAVThread@ACE_Based@@PAVSqlTransaction@@@std@@@2@@0@0AAV?$allocator@V?$_Iterator@$00@?$list@U?$pair@QAVThread@ACE_Based@@PAVSqlTransaction@@@std@@V?$allocator@U?$pair@QAVThread@ACE_Based@@PAVSqlTransaction@@@std@@@2@@std@@@0@@Z 00416600 f i AuthSocket.obj
 0001:00015650       ??$_Umove@PAV?$_Iterator@$00@?$list@U?$pair@QAVThread@ACE_Based@@PAVSqlTransaction@@@std@@V?$allocator@U?$pair@QAVThread@ACE_Based@@PAVSqlTransaction@@@std@@@2@@std@@@?$vector@V?$_Iterator@$00@?$list@U?$pair@QAVThread@ACE_Based@@PAVSqlTransaction@@@std@@V?$allocator@U?$pair@QAVThread@ACE_Based@@PAVSqlTransaction@@@std@@@2@@std@@V?$allocator@V?$_Iterator@$00@?$list@U?$pair@QAVThread@ACE_Based@@PAVSqlTransaction@@@std@@V?$allocator@U?$pair@QAVThread@ACE_Based@@PAVSqlTransaction@@@std@@@2@@std@@@3@@std@@IAEPAV?$_Iterator@$00@?$list@U?$pair@QAVThread@ACE_Based@@PAVSqlTransaction@@@std@@V?$allocator@U?$pair@QAVThread@ACE_Based@@PAVSqlTransaction@@@std@@@2@@1@PAV231@00@Z 00416650 f i AuthSocket.obj
 0001:00015690       ??$fill@PAV?$_Iterator@$00@?$list@U?$pair@QAVThread@ACE_Based@@PAVSqlTransaction@@@std@@V?$allocator@U?$pair@QAVThread@ACE_Based@@PAVSqlTransaction@@@std@@@2@@std@@V123@@std@@YAXPAV?$_Iterator@$00@?$list@U?$pair@QAVThread@ACE_Based@@PAVSqlTransaction@@@std@@V?$allocator@U?$pair@QAVThread@ACE_Based@@PAVSqlTransaction@@@std@@@2@@0@0ABV120@@Z 00416690 f i AuthSocket.obj
 0001:000156d0       ??$_Unchecked_move_backward@PAV?$_Iterator@$00@?$list@U?$pair@QAVThread@ACE_Based@@PAVSqlTransaction@@@std@@V?$allocator@U?$pair@QAVThread@ACE_Based@@PAVSqlTransaction@@@std@@@2@@std@@PAV123@@stdext@@YAPAV?$_Iterator@$00@?$list@U?$pair@QAVThread@ACE_Based@@PAVSqlTransaction@@@std@@V?$allocator@U?$pair@QAVThread@ACE_Based@@PAVSqlTransaction@@@std@@@2@@std@@PAV123@00@Z 004166d0 f i AuthSocket.obj
 0001:00015750       ??$_Allocate@V?$_Iterator@$00@?$list@U?$pair@QAVThread@ACE_Based@@PAVSqlTransaction@@@std@@V?$allocator@U?$pair@QAVThread@ACE_Based@@PAVSqlTransaction@@@std@@@2@@std@@@std@@YAPAV?$_Iterator@$00@?$list@U?$pair@QAVThread@ACE_Based@@PAVSqlTransaction@@@std@@V?$allocator@U?$pair@QAVThread@ACE_Based@@PAVSqlTransaction@@@std@@@2@@0@IPAV120@@Z 00416750 f i AuthSocket.obj
 0001:000157c0       ??$?0U?$pair@QAVThread@ACE_Based@@PAVSqlResultQueue@@@std@@@?$allocator@PAU_Node@?$_List_nod@U?$pair@QAVThread@ACE_Based@@PAVSqlResultQueue@@@std@@V?$allocator@U?$pair@QAVThread@ACE_Based@@PAVSqlResultQueue@@@std@@@2@@std@@@std@@QAE@ABV?$allocator@U?$pair@QAVThread@ACE_Based@@PAVSqlResultQueue@@@std@@@1@@Z 004167c0 f i AuthSocket.obj
 0001:000157e0       ??$_Allocate@U_Node@?$_List_nod@U?$pair@QAVThread@ACE_Based@@PAVSqlResultQueue@@@std@@V?$allocator@U?$pair@QAVThread@ACE_Based@@PAVSqlResultQueue@@@std@@@2@@std@@@std@@YAPAU_Node@?$_List_nod@U?$pair@QAVThread@ACE_Based@@PAVSqlResultQueue@@@std@@V?$allocator@U?$pair@QAVThread@ACE_Based@@PAVSqlResultQueue@@@std@@@2@@0@IPAU120@@Z 004167e0 f i AuthSocket.obj
 0001:00015850       ??$_Destroy@U_Node@?$_List_nod@U?$pair@QAVThread@ACE_Based@@PAVSqlResultQueue@@@std@@V?$allocator@U?$pair@QAVThread@ACE_Based@@PAVSqlResultQueue@@@std@@@2@@std@@@std@@YAXPAU_Node@?$_List_nod@U?$pair@QAVThread@ACE_Based@@PAVSqlResultQueue@@@std@@V?$allocator@U?$pair@QAVThread@ACE_Based@@PAVSqlResultQueue@@@std@@@2@@0@@Z 00416850 f i AuthSocket.obj
 0001:00015860       ??$_Construct@PAU_Node@?$_List_nod@U?$pair@QAVThread@ACE_Based@@PAVSqlResultQueue@@@std@@V?$allocator@U?$pair@QAVThread@ACE_Based@@PAVSqlResultQueue@@@std@@@2@@std@@PAU123@@std@@YAXPAPAU_Node@?$_List_nod@U?$pair@QAVThread@ACE_Based@@PAVSqlResultQueue@@@std@@V?$allocator@U?$pair@QAVThread@ACE_Based@@PAVSqlResultQueue@@@std@@@2@@0@ABQAU120@@Z 00416860 f i AuthSocket.obj
 0001:000158c0       ??$_Destroy@PAU_Node@?$_List_nod@U?$pair@QAVThread@ACE_Based@@PAVSqlResultQueue@@@std@@V?$allocator@U?$pair@QAVThread@ACE_Based@@PAVSqlResultQueue@@@std@@@2@@std@@@std@@YAXPAPAU_Node@?$_List_nod@U?$pair@QAVThread@ACE_Based@@PAVSqlResultQueue@@@std@@V?$allocator@U?$pair@QAVThread@ACE_Based@@PAVSqlResultQueue@@@std@@@2@@0@@Z 004168c0 f i AuthSocket.obj
 0001:000158d0       ??$unchecked_copy@PAV?$_Iterator@$00@?$list@U?$pair@QAVThread@ACE_Based@@PAVSqlResultQueue@@@std@@V?$allocator@U?$pair@QAVThread@ACE_Based@@PAVSqlResultQueue@@@std@@@2@@std@@PAV123@@stdext@@YAPAV?$_Iterator@$00@?$list@U?$pair@QAVThread@ACE_Based@@PAVSqlResultQueue@@@std@@V?$allocator@U?$pair@QAVThread@ACE_Based@@PAVSqlResultQueue@@@std@@@2@@std@@PAV123@00@Z 004168d0 f i AuthSocket.obj
 0001:00015950       ??$_Destroy_range@V?$allocator@V?$_Iterator@$00@?$list@U?$pair@QAVThread@ACE_Based@@PAVSqlResultQueue@@@std@@V?$allocator@U?$pair@QAVThread@ACE_Based@@PAVSqlResultQueue@@@std@@@2@@std@@@std@@@std@@YAXPAV?$_Iterator@$00@?$list@U?$pair@QAVThread@ACE_Based@@PAVSqlResultQueue@@@std@@V?$allocator@U?$pair@QAVThread@ACE_Based@@PAVSqlResultQueue@@@std@@@2@@0@0AAV?$allocator@V?$_Iterator@$00@?$list@U?$pair@QAVThread@ACE_Based@@PAVSqlResultQueue@@@std@@V?$allocator@U?$pair@QAVThread@ACE_Based@@PAVSqlResultQueue@@@std@@@2@@std@@@0@@Z 00416950 f i AuthSocket.obj
 0001:000159a0       ??$_Umove@PAV?$_Iterator@$00@?$list@U?$pair@QAVThread@ACE_Based@@PAVSqlResultQueue@@@std@@V?$allocator@U?$pair@QAVThread@ACE_Based@@PAVSqlResultQueue@@@std@@@2@@std@@@?$vector@V?$_Iterator@$00@?$list@U?$pair@QAVThread@ACE_Based@@PAVSqlResultQueue@@@std@@V?$allocator@U?$pair@QAVThread@ACE_Based@@PAVSqlResultQueue@@@std@@@2@@std@@V?$allocator@V?$_Iterator@$00@?$list@U?$pair@QAVThread@ACE_Based@@PAVSqlResultQueue@@@std@@V?$allocator@U?$pair@QAVThread@ACE_Based@@PAVSqlResultQueue@@@std@@@2@@std@@@3@@std@@IAEPAV?$_Iterator@$00@?$list@U?$pair@QAVThread@ACE_Based@@PAVSqlResultQueue@@@std@@V?$allocator@U?$pair@QAVThread@ACE_Based@@PAVSqlResultQueue@@@std@@@2@@1@PAV231@00@Z 004169a0 f i AuthSocket.obj
 0001:000159e0       ??$fill@PAV?$_Iterator@$00@?$list@U?$pair@QAVThread@ACE_Based@@PAVSqlResultQueue@@@std@@V?$allocator@U?$pair@QAVThread@ACE_Based@@PAVSqlResultQueue@@@std@@@2@@std@@V123@@std@@YAXPAV?$_Iterator@$00@?$list@U?$pair@QAVThread@ACE_Based@@PAVSqlResultQueue@@@std@@V?$allocator@U?$pair@QAVThread@ACE_Based@@PAVSqlResultQueue@@@std@@@2@@0@0ABV120@@Z 004169e0 f i AuthSocket.obj
 0001:00015a20       ??$_Unchecked_move_backward@PAV?$_Iterator@$00@?$list@U?$pair@QAVThread@ACE_Based@@PAVSqlResultQueue@@@std@@V?$allocator@U?$pair@QAVThread@ACE_Based@@PAVSqlResultQueue@@@std@@@2@@std@@PAV123@@stdext@@YAPAV?$_Iterator@$00@?$list@U?$pair@QAVThread@ACE_Based@@PAVSqlResultQueue@@@std@@V?$allocator@U?$pair@QAVThread@ACE_Based@@PAVSqlResultQueue@@@std@@@2@@std@@PAV123@00@Z 00416a20 f i AuthSocket.obj
 0001:00015aa0       ??$_Allocate@V?$_Iterator@$00@?$list@U?$pair@QAVThread@ACE_Based@@PAVSqlResultQueue@@@std@@V?$allocator@U?$pair@QAVThread@ACE_Based@@PAVSqlResultQueue@@@std@@@2@@std@@@std@@YAPAV?$_Iterator@$00@?$list@U?$pair@QAVThread@ACE_Based@@PAVSqlResultQueue@@@std@@V?$allocator@U?$pair@QAVThread@ACE_Based@@PAVSqlResultQueue@@@std@@@2@@0@IPAV120@@Z 00416aa0 f i AuthSocket.obj
 0001:00015b10       ??$unchecked_uninitialized_fill_n@PAEIEV?$allocator@E@std@@@stdext@@YAXPAEIABEAAV?$allocator@E@std@@@Z 00416b10 f i AuthSocket.obj
 0001:00015b70       ??$swap@D@std@@YAXAAD0@Z   00416b70 f i AuthSocket.obj
 0001:00015bb0       ??$?0U?$pair@$$CBV?$basic_string@DU?$char_traits@D@std@@V?$allocator@D@2@@std@@PAUPATCH_INFO@@@std@@@?$allocator@PAU_Node@?$_Tree_nod@V?$_Tmap_traits@V?$basic_string@DU?$char_traits@D@std@@V?$allocator@D@2@@std@@PAUPATCH_INFO@@U?$less@V?$basic_string@DU?$char_traits@D@std@@V?$allocator@D@2@@std@@@2@V?$allocator@U?$pair@$$CBV?$basic_string@DU?$char_traits@D@std@@V?$allocator@D@2@@std@@PAUPATCH_INFO@@@std@@@2@$0A@@std@@@std@@@std@@QAE@ABV?$allocator@U?$pair@$$CBV?$basic_string@DU?$char_traits@D@std@@V?$allocator@D@2@@std@@PAUPATCH_INFO@@@std@@@1@@Z 00416bb0 f i AuthSocket.obj
 0001:00015bd0       ??$?0U?$pair@QAVThread@ACE_Based@@PAVSqlTransaction@@@std@@@?$allocator@U_Node@?$_List_nod@U?$pair@QAVThread@ACE_Based@@PAVSqlTransaction@@@std@@V?$allocator@U?$pair@QAVThread@ACE_Based@@PAVSqlTransaction@@@std@@@2@@std@@@std@@QAE@ABV?$allocator@U?$pair@QAVThread@ACE_Based@@PAVSqlTransaction@@@std@@@1@@Z 00416bd0 f i AuthSocket.obj
 0001:00015bf0       ??$unchecked_uninitialized_fill_n@PAV?$_Iterator@$00@?$list@U?$pair@QAVThread@ACE_Based@@PAVSqlTransaction@@@std@@V?$allocator@U?$pair@QAVThread@ACE_Based@@PAVSqlTransaction@@@std@@@2@@std@@IV123@V?$allocator@V?$_Iterator@$00@?$list@U?$pair@QAVThread@ACE_Based@@PAVSqlTransaction@@@std@@V?$allocator@U?$pair@QAVThread@ACE_Based@@PAVSqlTransaction@@@std@@@2@@std@@@3@@stdext@@YAXPAV?$_Iterator@$00@?$list@U?$pair@QAVThread@ACE_Based@@PAVSqlTransaction@@@std@@V?$allocator@U?$pair@QAVThread@ACE_Based@@PAVSqlTransaction@@@std@@@2@@std@@IABV123@AAV?$allocator@V?$_Iterator@$00@?$list@U?$pair@QAVThread@ACE_Based@@PAVSqlTransaction@@@std@@V?$allocator@U?$pair@QAVThread@ACE_Based@@PAVSqlTransaction@@@std@@@2@@std@@@3@@Z 00416bf0 f i AuthSocket.obj
 0001:00015c50       ??$?0U?$pair@QAVThread@ACE_Based@@PAVSqlResultQueue@@@std@@@?$allocator@U_Node@?$_List_nod@U?$pair@QAVThread@ACE_Based@@PAVSqlResultQueue@@@std@@V?$allocator@U?$pair@QAVThread@ACE_Based@@PAVSqlResultQueue@@@std@@@2@@std@@@std@@QAE@ABV?$allocator@U?$pair@QAVThread@ACE_Based@@PAVSqlResultQueue@@@std@@@1@@Z 00416c50 f i AuthSocket.obj
 0001:00015c70       ??$unchecked_uninitialized_fill_n@PAV?$_Iterator@$00@?$list@U?$pair@QAVThread@ACE_Based@@PAVSqlResultQueue@@@std@@V?$allocator@U?$pair@QAVThread@ACE_Based@@PAVSqlResultQueue@@@std@@@2@@std@@IV123@V?$allocator@V?$_Iterator@$00@?$list@U?$pair@QAVThread@ACE_Based@@PAVSqlResultQueue@@@std@@V?$allocator@U?$pair@QAVThread@ACE_Based@@PAVSqlResultQueue@@@std@@@2@@std@@@3@@stdext@@YAXPAV?$_Iterator@$00@?$list@U?$pair@QAVThread@ACE_Based@@PAVSqlResultQueue@@@std@@V?$allocator@U?$pair@QAVThread@ACE_Based@@PAVSqlResultQueue@@@std@@@2@@std@@IABV123@AAV?$allocator@V?$_Iterator@$00@?$list@U?$pair@QAVThread@ACE_Based@@PAVSqlResultQueue@@@std@@V?$allocator@U?$pair@QAVThread@ACE_Based@@PAVSqlResultQueue@@@std@@@2@@std@@@3@@Z 00416c70 f i AuthSocket.obj
 0001:00015cd0       ??$?0U?$pair@$$CBV?$basic_string@DU?$char_traits@D@std@@V?$allocator@D@2@@std@@PAUPATCH_INFO@@@std@@@?$allocator@U_Node@?$_Tree_nod@V?$_Tmap_traits@V?$basic_string@DU?$char_traits@D@std@@V?$allocator@D@2@@std@@PAUPATCH_INFO@@U?$less@V?$basic_string@DU?$char_traits@D@std@@V?$allocator@D@2@@std@@@2@V?$allocator@U?$pair@$$CBV?$basic_string@DU?$char_traits@D@std@@V?$allocator@D@2@@std@@PAUPATCH_INFO@@@std@@@2@$0A@@std@@@std@@@std@@QAE@ABV?$allocator@U?$pair@$$CBV?$basic_string@DU?$char_traits@D@std@@V?$allocator@D@2@@std@@PAUPATCH_INFO@@@std@@@1@@Z 00416cd0 f i AuthSocket.obj
 0001:00015cf0       ??$_Allocate@U_Node@?$_Tree_nod@V?$_Tmap_traits@V?$basic_string@DU?$char_traits@D@std@@V?$allocator@D@2@@std@@PAUPATCH_INFO@@U?$less@V?$basic_string@DU?$char_traits@D@std@@V?$allocator@D@2@@std@@@2@V?$allocator@U?$pair@$$CBV?$basic_string@DU?$char_traits@D@std@@V?$allocator@D@2@@std@@PAUPATCH_INFO@@@std@@@2@$0A@@std@@@std@@@std@@YAPAU_Node@?$_Tree_nod@V?$_Tmap_traits@V?$basic_string@DU?$char_traits@D@std@@V?$allocator@D@2@@std@@PAUPATCH_INFO@@U?$less@V?$basic_string@DU?$char_traits@D@std@@V?$allocator@D@2@@std@@@2@V?$allocator@U?$pair@$$CBV?$basic_string@DU?$char_traits@D@std@@V?$allocator@D@2@@std@@PAUPATCH_INFO@@@std@@@2@$0A@@std@@@0@IPAU120@@Z 00416cf0 f i AuthSocket.obj
 0001:00015d60       ??$_Destroy@U_Node@?$_Tree_nod@V?$_Tmap_traits@V?$basic_string@DU?$char_traits@D@std@@V?$allocator@D@2@@std@@PAUPATCH_INFO@@U?$less@V?$basic_string@DU?$char_traits@D@std@@V?$allocator@D@2@@std@@@2@V?$allocator@U?$pair@$$CBV?$basic_string@DU?$char_traits@D@std@@V?$allocator@D@2@@std@@PAUPATCH_INFO@@@std@@@2@$0A@@std@@@std@@@std@@YAXPAU_Node@?$_Tree_nod@V?$_Tmap_traits@V?$basic_string@DU?$char_traits@D@std@@V?$allocator@D@2@@std@@PAUPATCH_INFO@@U?$less@V?$basic_string@DU?$char_traits@D@std@@V?$allocator@D@2@@std@@@2@V?$allocator@U?$pair@$$CBV?$basic_string@DU?$char_traits@D@std@@V?$allocator@D@2@@std@@PAUPATCH_INFO@@@std@@@2@$0A@@std@@@0@@Z 00416d60 f i AuthSocket.obj
 0001:00015d80       ??$_Construct@PAU_Node@?$_Tree_nod@V?$_Tmap_traits@V?$basic_string@DU?$char_traits@D@std@@V?$allocator@D@2@@std@@PAUPATCH_INFO@@U?$less@V?$basic_string@DU?$char_traits@D@std@@V?$allocator@D@2@@std@@@2@V?$allocator@U?$pair@$$CBV?$basic_string@DU?$char_traits@D@std@@V?$allocator@D@2@@std@@PAUPATCH_INFO@@@std@@@2@$0A@@std@@@std@@PAU123@@std@@YAXPAPAU_Node@?$_Tree_nod@V?$_Tmap_traits@V?$basic_string@DU?$char_traits@D@std@@V?$allocator@D@2@@std@@PAUPATCH_INFO@@U?$less@V?$basic_string@DU?$char_traits@D@std@@V?$allocator@D@2@@std@@@2@V?$allocator@U?$pair@$$CBV?$basic_string@DU?$char_traits@D@std@@V?$allocator@D@2@@std@@PAUPATCH_INFO@@@std@@@2@$0A@@std@@@0@ABQAU120@@Z 00416d80 f i AuthSocket.obj
 0001:00015de0       ??_G?$ACE_Refcounted_Auto_Ptr@VQueryResult@@VACE_Null_Mutex@@@@UAEPAXI@Z 00416de0 f i AuthSocket.obj
 0001:00015de0       ??_E?$ACE_Refcounted_Auto_Ptr@VQueryResult@@VACE_Null_Mutex@@@@UAEPAXI@Z 00416de0 f i AuthSocket.obj
 0001:00015e20       ??_G_Node@?$_Tree_nod@V?$_Tmap_traits@V?$basic_string@DU?$char_traits@D@std@@V?$allocator@D@2@@std@@PAUPATCH_INFO@@U?$less@V?$basic_string@DU?$char_traits@D@std@@V?$allocator@D@2@@std@@@2@V?$allocator@U?$pair@$$CBV?$basic_string@DU?$char_traits@D@std@@V?$allocator@D@2@@std@@PAUPATCH_INFO@@@std@@@2@$0A@@std@@@std@@QAEPAXI@Z 00416e20 f i AuthSocket.obj
 0001:00015e60       ??1_Node@?$_Tree_nod@V?$_Tmap_traits@V?$basic_string@DU?$char_traits@D@std@@V?$allocator@D@2@@std@@PAUPATCH_INFO@@U?$less@V?$basic_string@DU?$char_traits@D@std@@V?$allocator@D@2@@std@@@2@V?$allocator@U?$pair@$$CBV?$basic_string@DU?$char_traits@D@std@@V?$allocator@D@2@@std@@PAUPATCH_INFO@@@std@@@2@$0A@@std@@@std@@QAE@XZ 00416e60 f i AuthSocket.obj
 0001:00015e90       ??$_Iter_cat@PAE@std@@YA?AUrandom_access_iterator_tag@0@ABQAE@Z 00416e90 f i AuthSocket.obj
 0001:00015ee0       ??$EndianConvert@_K@@YAXAA_K@Z 00416ee0 f i AuthSocket.obj
 0001:00015ef0       ?acquire@?$ACE_Guard@VACE_Thread_Mutex@@@@QAEHXZ 00416ef0 f i AuthSocket.obj
 0001:00015f30       ?release@?$ACE_Guard@VACE_Thread_Mutex@@@@QAEHXZ 00416f30 f i AuthSocket.obj
 0001:00015f80       ??$_Checked_base@PAE@std@@YAPAEAAPAE@Z 00416f80 f i AuthSocket.obj
 0001:00015ff0       ??$_Reverse@PAE@std@@YAXPAE0Urandom_access_iterator_tag@0@@Z 00416ff0 f i AuthSocket.obj
 0001:00016050       ??$_Debug_range@PAE@std@@YAXPAE0PB_WI@Z 00417050 f i AuthSocket.obj
 0001:000160a0       ??$_Debug_range2@PAE@std@@YAXPAE0PB_WIUrandom_access_iterator_tag@0@@Z 004170a0 f i AuthSocket.obj
 0001:00016110       ??$_Debug_pointer@E@std@@YAXPAEPB_WI@Z 00417110 f i AuthSocket.obj
 0001:00016150       ?get@?$ACE_Refcounted_Auto_Ptr_Rep@VQueryResult@@VACE_Null_Mutex@@@@ABEPAVQueryResult@@XZ 00417150 f i AuthSocket.obj
 0001:00016180       ?create@?$ACE_Refcounted_Auto_Ptr_Rep@VQueryResult@@VACE_Null_Mutex@@@@CAPAV1@PAVQueryResult@@@Z 00417180 f i AuthSocket.obj
 0001:000161e0       ??0bad_alloc@std@@QAE@XZ   004171e0 f i AuthSocket.obj
 0001:00016230       ?attach@?$ACE_Refcounted_Auto_Ptr_Rep@VQueryResult@@VACE_Null_Mutex@@@@CAPAV1@AAPAV1@@Z 00417230 f i AuthSocket.obj
 0001:00016260       ?detach@?$ACE_Refcounted_Auto_Ptr_Rep@VQueryResult@@VACE_Null_Mutex@@@@CAXAAPAV1@@Z 00417260 f i AuthSocket.obj
 0001:000162d0       ??$unchecked_uninitialized_copy@V?$_Vector_const_iterator@V?$basic_string@DU?$char_traits@D@std@@V?$allocator@D@2@@std@@V?$allocator@V?$basic_string@DU?$char_traits@D@std@@V?$allocator@D@2@@std@@@2@@std@@PAV?$basic_string@DU?$char_traits@D@std@@V?$allocator@D@2@@2@V?$allocator@V?$basic_string@DU?$char_traits@D@std@@V?$allocator@D@2@@std@@@2@@stdext@@YAPAV?$basic_string@DU?$char_traits@D@std@@V?$allocator@D@2@@std@@V?$_Vector_const_iterator@V?$basic_string@DU?$char_traits@D@std@@V?$allocator@D@2@@std@@V?$allocator@V?$basic_string@DU?$char_traits@D@std@@V?$allocator@D@2@@std@@@2@@2@0PAV12@AAV?$allocator@V?$basic_string@DU?$char_traits@D@std@@V?$allocator@D@2@@std@@@2@@Z 004172d0 f i AuthSocket.obj
 0001:000163d0       ??$_Checked_base@PAV?$basic_string@DU?$char_traits@D@std@@V?$allocator@D@2@@std@@@std@@YAPAV?$basic_string@DU?$char_traits@D@std@@V?$allocator@D@2@@0@AAPAV10@@Z 004173d0 f i AuthSocket.obj
 0001:00016440       ??$_Iter_random@PAV?$basic_string@DU?$char_traits@D@std@@V?$allocator@D@2@@std@@PAV12@@std@@YA?AUrandom_access_iterator_tag@0@ABQAV?$basic_string@DU?$char_traits@D@std@@V?$allocator@D@2@@0@0@Z 00417440 f i AuthSocket.obj
 0001:00016490       ??$_Ptr_cat@PAV?$basic_string@DU?$char_traits@D@std@@V?$allocator@D@2@@std@@PAV12@@std@@YA?AU_Nonscalar_ptr_iterator_tag@0@AAPAV?$basic_string@DU?$char_traits@D@std@@V?$allocator@D@2@@0@0@Z 00417490 f i AuthSocket.obj
 0001:000164e0       ??$_Copy_opt@PAV?$basic_string@DU?$char_traits@D@std@@V?$allocator@D@2@@std@@PAV12@@std@@YAPAV?$basic_string@DU?$char_traits@D@std@@V?$allocator@D@2@@0@PAV10@00Urandom_access_iterator_tag@0@U_Nonscalar_ptr_iterator_tag@0@U_Range_checked_iterator_tag@0@@Z 004174e0 f i AuthSocket.obj
 0001:00016550       ??$unchecked_uninitialized_copy@PAV?$basic_string@DU?$char_traits@D@std@@V?$allocator@D@2@@std@@PAV12@V?$allocator@V?$basic_string@DU?$char_traits@D@std@@V?$allocator@D@2@@std@@@2@@stdext@@YAPAV?$basic_string@DU?$char_traits@D@std@@V?$allocator@D@2@@std@@PAV12@00AAV?$allocator@V?$basic_string@DU?$char_traits@D@std@@V?$allocator@D@2@@std@@@2@@Z 00417550 f i AuthSocket.obj
 0001:000165c0       ??$_Unchecked_uninitialized_move@V?$_Vector_iterator@EV?$allocator@E@std@@@std@@PAEV?$allocator@E@2@@stdext@@YAPAEV?$_Vector_iterator@EV?$allocator@E@std@@@std@@0PAEAAV?$allocator@E@2@@Z 004175c0 f i AuthSocket.obj
 0001:000166c0       ??$_Destroy_range@V?$allocator@V?$basic_string@DU?$char_traits@D@std@@V?$allocator@D@2@@std@@@std@@@std@@YAXPAV?$basic_string@DU?$char_traits@D@std@@V?$allocator@D@2@@0@0AAV?$allocator@V?$basic_string@DU?$char_traits@D@std@@V?$allocator@D@2@@std@@@0@U_Nonscalar_ptr_iterator_tag@0@@Z 004176c0 f i AuthSocket.obj
 0001:000166f0       ??$_Iter_cat@V?$_Const_iterator@$00@?$list@U?$pair@QAVThread@ACE_Based@@PAVSqlTransaction@@@std@@V?$allocator@U?$pair@QAVThread@ACE_Based@@PAVSqlTransaction@@@std@@@2@@std@@@std@@YA?AUbidirectional_iterator_tag@0@ABV?$_Const_iterator@$00@?$list@U?$pair@QAVThread@ACE_Based@@PAVSqlTransaction@@@std@@V?$allocator@U?$pair@QAVThread@ACE_Based@@PAVSqlTransaction@@@std@@@2@@0@@Z 004176f0 f i AuthSocket.obj
 0001:00016740       ??$_Insert@V?$_Const_iterator@$00@?$list@U?$pair@QAVThread@ACE_Based@@PAVSqlTransaction@@@std@@V?$allocator@U?$pair@QAVThread@ACE_Based@@PAVSqlTransaction@@@std@@@2@@std@@@?$list@U?$pair@QAVThread@ACE_Based@@PAVSqlTransaction@@@std@@V?$allocator@U?$pair@QAVThread@ACE_Based@@PAVSqlTransaction@@@std@@@2@@std@@QAEXV?$_Const_iterator@$00@01@00Uforward_iterator_tag@1@@Z 00417740 f i AuthSocket.obj
 0001:00016950       ??$_Checked_base@V?$_Vector_iterator@V?$_Iterator@$00@?$list@U?$pair@QAVThread@ACE_Based@@PAVSqlTransaction@@@std@@V?$allocator@U?$pair@QAVThread@ACE_Based@@PAVSqlTransaction@@@std@@@2@@std@@V?$allocator@V?$_Iterator@$00@?$list@U?$pair@QAVThread@ACE_Based@@PAVSqlTransaction@@@std@@V?$allocator@U?$pair@QAVThread@ACE_Based@@PAVSqlTransaction@@@std@@@2@@std@@@3@@std@@@std@@YA?AV?$_Vector_iterator@V?$_Iterator@$00@?$list@U?$pair@QAVThread@ACE_Based@@PAVSqlTransaction@@@std@@V?$allocator@U?$pair@QAVThread@ACE_Based@@PAVSqlTransaction@@@std@@@2@@std@@V?$allocator@V?$_Iterator@$00@?$list@U?$pair@QAVThread@ACE_Based@@PAVSqlTransaction@@@std@@V?$allocator@U?$pair@QAVThread@ACE_Based@@PAVSqlTransaction@@@std@@@2@@std@@@3@@0@AAV10@@Z 00417950 f i AuthSocket.obj
 0001:000169d0       ??$_Fill@V?$_Vector_iterator@V?$_Iterator@$00@?$list@U?$pair@QAVThread@ACE_Based@@PAVSqlTransaction@@@std@@V?$allocator@U?$pair@QAVThread@ACE_Based@@PAVSqlTransaction@@@std@@@2@@std@@V?$allocator@V?$_Iterator@$00@?$list@U?$pair@QAVThread@ACE_Based@@PAVSqlTransaction@@@std@@V?$allocator@U?$pair@QAVThread@ACE_Based@@PAVSqlTransaction@@@std@@@2@@std@@@3@@std@@V?$_Iterator@$00@?$list@U?$pair@QAVThread@ACE_Based@@PAVSqlTransaction@@@std@@V?$allocator@U?$pair@QAVThread@ACE_Based@@PAVSqlTransaction@@@std@@@2@@2@@std@@YAXV?$_Vector_iterator@V?$_Iterator@$00@?$list@U?$pair@QAVThread@ACE_Based@@PAVSqlTransaction@@@std@@V?$allocator@U?$pair@QAVThread@ACE_Based@@PAVSqlTransaction@@@std@@@2@@std@@V?$allocator@V?$_Iterator@$00@?$list@U?$pair@QAVThread@ACE_Based@@PAVSqlTransaction@@@std@@V?$allocator@U?$pair@QAVThread@ACE_Based@@PAVSqlTransaction@@@std@@@2@@std@@@3@@0@0ABV?$_Iterator@$00@?$list@U?$pair@QAVThread@ACE_Based@@PAVSqlTransaction@@@std@@V?$allocator@U?$pair@QAVThread@ACE_Based@@PAVSqlTransaction@@@std@@@2@@0@@Z 004179d0 f i AuthSocket.obj
 0001:00016ac0       ??$_Iter_cat@V?$_Const_iterator@$00@?$list@U?$pair@QAVThread@ACE_Based@@PAVSqlResultQueue@@@std@@V?$allocator@U?$pair@QAVThread@ACE_Based@@PAVSqlResultQueue@@@std@@@2@@std@@@std@@YA?AUbidirectional_iterator_tag@0@ABV?$_Const_iterator@$00@?$list@U?$pair@QAVThread@ACE_Based@@PAVSqlResultQueue@@@std@@V?$allocator@U?$pair@QAVThread@ACE_Based@@PAVSqlResultQueue@@@std@@@2@@0@@Z 00417ac0 f i AuthSocket.obj
 0001:00016b10       ??$_Insert@V?$_Const_iterator@$00@?$list@U?$pair@QAVThread@ACE_Based@@PAVSqlResultQueue@@@std@@V?$allocator@U?$pair@QAVThread@ACE_Based@@PAVSqlResultQueue@@@std@@@2@@std@@@?$list@U?$pair@QAVThread@ACE_Based@@PAVSqlResultQueue@@@std@@V?$allocator@U?$pair@QAVThread@ACE_Based@@PAVSqlResultQueue@@@std@@@2@@std@@QAEXV?$_Const_iterator@$00@01@00Uforward_iterator_tag@1@@Z 00417b10 f i AuthSocket.obj
 0001:00016d20       ??$_Checked_base@V?$_Vector_iterator@V?$_Iterator@$00@?$list@U?$pair@QAVThread@ACE_Based@@PAVSqlResultQueue@@@std@@V?$allocator@U?$pair@QAVThread@ACE_Based@@PAVSqlResultQueue@@@std@@@2@@std@@V?$allocator@V?$_Iterator@$00@?$list@U?$pair@QAVThread@ACE_Based@@PAVSqlResultQueue@@@std@@V?$allocator@U?$pair@QAVThread@ACE_Based@@PAVSqlResultQueue@@@std@@@2@@std@@@3@@std@@@std@@YA?AV?$_Vector_iterator@V?$_Iterator@$00@?$list@U?$pair@QAVThread@ACE_Based@@PAVSqlResultQueue@@@std@@V?$allocator@U?$pair@QAVThread@ACE_Based@@PAVSqlResultQueue@@@std@@@2@@std@@V?$allocator@V?$_Iterator@$00@?$list@U?$pair@QAVThread@ACE_Based@@PAVSqlResultQueue@@@std@@V?$allocator@U?$pair@QAVThread@ACE_Based@@PAVSqlResultQueue@@@std@@@2@@std@@@3@@0@AAV10@@Z 00417d20 f i AuthSocket.obj
 0001:00016da0       ??$_Fill@V?$_Vector_iterator@V?$_Iterator@$00@?$list@U?$pair@QAVThread@ACE_Based@@PAVSqlResultQueue@@@std@@V?$allocator@U?$pair@QAVThread@ACE_Based@@PAVSqlResultQueue@@@std@@@2@@std@@V?$allocator@V?$_Iterator@$00@?$list@U?$pair@QAVThread@ACE_Based@@PAVSqlResultQueue@@@std@@V?$allocator@U?$pair@QAVThread@ACE_Based@@PAVSqlResultQueue@@@std@@@2@@std@@@3@@std@@V?$_Iterator@$00@?$list@U?$pair@QAVThread@ACE_Based@@PAVSqlResultQueue@@@std@@V?$allocator@U?$pair@QAVThread@ACE_Based@@PAVSqlResultQueue@@@std@@@2@@2@@std@@YAXV?$_Vector_iterator@V?$_Iterator@$00@?$list@U?$pair@QAVThread@ACE_Based@@PAVSqlResultQueue@@@std@@V?$allocator@U?$pair@QAVThread@ACE_Based@@PAVSqlResultQueue@@@std@@@2@@std@@V?$allocator@V?$_Iterator@$00@?$list@U?$pair@QAVThread@ACE_Based@@PAVSqlResultQueue@@@std@@V?$allocator@U?$pair@QAVThread@ACE_Based@@PAVSqlResultQueue@@@std@@@2@@std@@@3@@0@0ABV?$_Iterator@$00@?$list@U?$pair@QAVThread@ACE_Based@@PAVSqlResultQueue@@@std@@V?$allocator@U?$pair@QAVThread@ACE_Based@@PAVSqlResultQueue@@@std@@@2@@0@@Z 00417da0 f i AuthSocket.obj
 0001:00016e90       ??$_Iter_random@PAEPAE@std@@YA?AUrandom_access_iterator_tag@0@ABQAE0@Z 00417e90 f i AuthSocket.obj
 0001:00016ee0       ??$_Ptr_cat@PAEPAE@std@@YA?AU_Scalar_ptr_iterator_tag@0@AAPAE0@Z 00417ee0 f i AuthSocket.obj
 0001:00016f30       ??$_Copy_opt@PAEPAEUrandom_access_iterator_tag@std@@@std@@YAPAEPAE00Urandom_access_iterator_tag@0@U_Scalar_ptr_iterator_tag@0@U_Range_checked_iterator_tag@0@@Z 00417f30 f i AuthSocket.obj
 0001:00016fd0       ??$_Destroy_range@V?$allocator@E@std@@@std@@YAXPAE0AAV?$allocator@E@0@U_Scalar_ptr_iterator_tag@0@@Z 00417fd0 f i AuthSocket.obj
 0001:00016fe0       ??$_Unchecked_uninitialized_move@PAEPAEV?$allocator@E@std@@@stdext@@YAPAEPAE00AAV?$allocator@E@std@@@Z 00417fe0 f i AuthSocket.obj
 0001:00017050       ??$_Fill@PAEE@std@@YAXPAE0ABE@Z 00418050 f i AuthSocket.obj
 0001:000170a0       ??$_Move_cat@PAE@std@@YA?AU_Undefined_move_tag@0@ABQAE@Z 004180a0 f i AuthSocket.obj
 0001:000170f0       ??$_Move_backward_opt@PAEPAEUrandom_access_iterator_tag@std@@U_Undefined_move_tag@2@@std@@YAPAEPAE00Urandom_access_iterator_tag@0@U_Undefined_move_tag@0@U_Range_checked_iterator_tag@0@@Z 004180f0 f i AuthSocket.obj
 0001:00017150       ??$_Checked_base@PAV?$_Iterator@$00@?$list@U?$pair@QAVThread@ACE_Based@@PAVSqlTransaction@@@std@@V?$allocator@U?$pair@QAVThread@ACE_Based@@PAVSqlTransaction@@@std@@@2@@std@@@std@@YAPAV?$_Iterator@$00@?$list@U?$pair@QAVThread@ACE_Based@@PAVSqlTransaction@@@std@@V?$allocator@U?$pair@QAVThread@ACE_Based@@PAVSqlTransaction@@@std@@@2@@0@AAPAV120@@Z 00418150 f i AuthSocket.obj
 0001:000171c0       ??$_Iter_random@PAV?$_Iterator@$00@?$list@U?$pair@QAVThread@ACE_Based@@PAVSqlTransaction@@@std@@V?$allocator@U?$pair@QAVThread@ACE_Based@@PAVSqlTransaction@@@std@@@2@@std@@PAV123@@std@@YA?AUrandom_access_iterator_tag@0@ABQAV?$_Iterator@$00@?$list@U?$pair@QAVThread@ACE_Based@@PAVSqlTransaction@@@std@@V?$allocator@U?$pair@QAVThread@ACE_Based@@PAVSqlTransaction@@@std@@@2@@0@0@Z 004181c0 f i AuthSocket.obj
 0001:00017210       ??$_Ptr_cat@PAV?$_Iterator@$00@?$list@U?$pair@QAVThread@ACE_Based@@PAVSqlTransaction@@@std@@V?$allocator@U?$pair@QAVThread@ACE_Based@@PAVSqlTransaction@@@std@@@2@@std@@PAV123@@std@@YA?AU_Nonscalar_ptr_iterator_tag@0@AAPAV?$_Iterator@$00@?$list@U?$pair@QAVThread@ACE_Based@@PAVSqlTransaction@@@std@@V?$allocator@U?$pair@QAVThread@ACE_Based@@PAVSqlTransaction@@@std@@@2@@0@0@Z 00418210 f i AuthSocket.obj
 0001:00017260       ??$_Copy_opt@PAV?$_Iterator@$00@?$list@U?$pair@QAVThread@ACE_Based@@PAVSqlTransaction@@@std@@V?$allocator@U?$pair@QAVThread@ACE_Based@@PAVSqlTransaction@@@std@@@2@@std@@PAV123@@std@@YAPAV?$_Iterator@$00@?$list@U?$pair@QAVThread@ACE_Based@@PAVSqlTransaction@@@std@@V?$allocator@U?$pair@QAVThread@ACE_Based@@PAVSqlTransaction@@@std@@@2@@0@PAV120@00Urandom_access_iterator_tag@0@U_Nonscalar_ptr_iterator_tag@0@U_Range_checked_iterator_tag@0@@Z 00418260 f i AuthSocket.obj
 0001:000172e0       ??$_Destroy_range@V?$allocator@V?$_Iterator@$00@?$list@U?$pair@QAVThread@ACE_Based@@PAVSqlTransaction@@@std@@V?$allocator@U?$pair@QAVThread@ACE_Based@@PAVSqlTransaction@@@std@@@2@@std@@@std@@@std@@YAXPAV?$_Iterator@$00@?$list@U?$pair@QAVThread@ACE_Based@@PAVSqlTransaction@@@std@@V?$allocator@U?$pair@QAVThread@ACE_Based@@PAVSqlTransaction@@@std@@@2@@0@0AAV?$allocator@V?$_Iterator@$00@?$list@U?$pair@QAVThread@ACE_Based@@PAVSqlTransaction@@@std@@V?$allocator@U?$pair@QAVThread@ACE_Based@@PAVSqlTransaction@@@std@@@2@@std@@@0@U_Nonscalar_ptr_iterator_tag@0@@Z 004182e0 f i AuthSocket.obj
 0001:00017310       ??$_Unchecked_uninitialized_move@PAV?$_Iterator@$00@?$list@U?$pair@QAVThread@ACE_Based@@PAVSqlTransaction@@@std@@V?$allocator@U?$pair@QAVThread@ACE_Based@@PAVSqlTransaction@@@std@@@2@@std@@PAV123@V?$allocator@V?$_Iterator@$00@?$list@U?$pair@QAVThread@ACE_Based@@PAVSqlTransaction@@@std@@V?$allocator@U?$pair@QAVThread@ACE_Based@@PAVSqlTransaction@@@std@@@2@@std@@@3@@stdext@@YAPAV?$_Iterator@$00@?$list@U?$pair@QAVThread@ACE_Based@@PAVSqlTransaction@@@std@@V?$allocator@U?$pair@QAVThread@ACE_Based@@PAVSqlTransaction@@@std@@@2@@std@@PAV123@00AAV?$allocator@V?$_Iterator@$00@?$list@U?$pair@QAVThread@ACE_Based@@PAVSqlTransaction@@@std@@V?$allocator@U?$pair@QAVThread@ACE_Based@@PAVSqlTransaction@@@std@@@2@@std@@@3@@Z 00418310 f i AuthSocket.obj
 0001:00017380       ??$_Fill@PAV?$_Iterator@$00@?$list@U?$pair@QAVThread@ACE_Based@@PAVSqlTransaction@@@std@@V?$allocator@U?$pair@QAVThread@ACE_Based@@PAVSqlTransaction@@@std@@@2@@std@@V123@@std@@YAXPAV?$_Iterator@$00@?$list@U?$pair@QAVThread@ACE_Based@@PAVSqlTransaction@@@std@@V?$allocator@U?$pair@QAVThread@ACE_Based@@PAVSqlTransaction@@@std@@@2@@0@0ABV120@@Z 00418380 f i AuthSocket.obj
 0001:000173d0       ??$_Move_cat@PAV?$_Iterator@$00@?$list@U?$pair@QAVThread@ACE_Based@@PAVSqlTransaction@@@std@@V?$allocator@U?$pair@QAVThread@ACE_Based@@PAVSqlTransaction@@@std@@@2@@std@@@std@@YA?AU_Undefined_move_tag@0@ABQAV?$_Iterator@$00@?$list@U?$pair@QAVThread@ACE_Based@@PAVSqlTransaction@@@std@@V?$allocator@U?$pair@QAVThread@ACE_Based@@PAVSqlTransaction@@@std@@@2@@0@@Z 004183d0 f i AuthSocket.obj
 0001:00017420       ??$_Move_backward_opt@PAV?$_Iterator@$00@?$list@U?$pair@QAVThread@ACE_Based@@PAVSqlTransaction@@@std@@V?$allocator@U?$pair@QAVThread@ACE_Based@@PAVSqlTransaction@@@std@@@2@@std@@PAV123@Urandom_access_iterator_tag@3@U_Undefined_move_tag@3@@std@@YAPAV?$_Iterator@$00@?$list@U?$pair@QAVThread@ACE_Based@@PAVSqlTransaction@@@std@@V?$allocator@U?$pair@QAVThread@ACE_Based@@PAVSqlTransaction@@@std@@@2@@0@PAV120@00Urandom_access_iterator_tag@0@U_Undefined_move_tag@0@U_Range_checked_iterator_tag@0@@Z 00418420 f i AuthSocket.obj
 0001:00017480       ??$_Checked_base@PAV?$_Iterator@$00@?$list@U?$pair@QAVThread@ACE_Based@@PAVSqlResultQueue@@@std@@V?$allocator@U?$pair@QAVThread@ACE_Based@@PAVSqlResultQueue@@@std@@@2@@std@@@std@@YAPAV?$_Iterator@$00@?$list@U?$pair@QAVThread@ACE_Based@@PAVSqlResultQueue@@@std@@V?$allocator@U?$pair@QAVThread@ACE_Based@@PAVSqlResultQueue@@@std@@@2@@0@AAPAV120@@Z 00418480 f i AuthSocket.obj
 0001:000174f0       ??$_Iter_random@PAV?$_Iterator@$00@?$list@U?$pair@QAVThread@ACE_Based@@PAVSqlResultQueue@@@std@@V?$allocator@U?$pair@QAVThread@ACE_Based@@PAVSqlResultQueue@@@std@@@2@@std@@PAV123@@std@@YA?AUrandom_access_iterator_tag@0@ABQAV?$_Iterator@$00@?$list@U?$pair@QAVThread@ACE_Based@@PAVSqlResultQueue@@@std@@V?$allocator@U?$pair@QAVThread@ACE_Based@@PAVSqlResultQueue@@@std@@@2@@0@0@Z 004184f0 f i AuthSocket.obj
 0001:00017540       ??$_Ptr_cat@PAV?$_Iterator@$00@?$list@U?$pair@QAVThread@ACE_Based@@PAVSqlResultQueue@@@std@@V?$allocator@U?$pair@QAVThread@ACE_Based@@PAVSqlResultQueue@@@std@@@2@@std@@PAV123@@std@@YA?AU_Nonscalar_ptr_iterator_tag@0@AAPAV?$_Iterator@$00@?$list@U?$pair@QAVThread@ACE_Based@@PAVSqlResultQueue@@@std@@V?$allocator@U?$pair@QAVThread@ACE_Based@@PAVSqlResultQueue@@@std@@@2@@0@0@Z 00418540 f i AuthSocket.obj
 0001:00017590       ??$_Copy_opt@PAV?$_Iterator@$00@?$list@U?$pair@QAVThread@ACE_Based@@PAVSqlResultQueue@@@std@@V?$allocator@U?$pair@QAVThread@ACE_Based@@PAVSqlResultQueue@@@std@@@2@@std@@PAV123@@std@@YAPAV?$_Iterator@$00@?$list@U?$pair@QAVThread@ACE_Based@@PAVSqlResultQueue@@@std@@V?$allocator@U?$pair@QAVThread@ACE_Based@@PAVSqlResultQueue@@@std@@@2@@0@PAV120@00Urandom_access_iterator_tag@0@U_Nonscalar_ptr_iterator_tag@0@U_Range_checked_iterator_tag@0@@Z 00418590 f i AuthSocket.obj
 0001:00017610       ??$_Destroy_range@V?$allocator@V?$_Iterator@$00@?$list@U?$pair@QAVThread@ACE_Based@@PAVSqlResultQueue@@@std@@V?$allocator@U?$pair@QAVThread@ACE_Based@@PAVSqlResultQueue@@@std@@@2@@std@@@std@@@std@@YAXPAV?$_Iterator@$00@?$list@U?$pair@QAVThread@ACE_Based@@PAVSqlResultQueue@@@std@@V?$allocator@U?$pair@QAVThread@ACE_Based@@PAVSqlResultQueue@@@std@@@2@@0@0AAV?$allocator@V?$_Iterator@$00@?$list@U?$pair@QAVThread@ACE_Based@@PAVSqlResultQueue@@@std@@V?$allocator@U?$pair@QAVThread@ACE_Based@@PAVSqlResultQueue@@@std@@@2@@std@@@0@U_Nonscalar_ptr_iterator_tag@0@@Z 00418610 f i AuthSocket.obj
 0001:00017640       ??$_Unchecked_uninitialized_move@PAV?$_Iterator@$00@?$list@U?$pair@QAVThread@ACE_Based@@PAVSqlResultQueue@@@std@@V?$allocator@U?$pair@QAVThread@ACE_Based@@PAVSqlResultQueue@@@std@@@2@@std@@PAV123@V?$allocator@V?$_Iterator@$00@?$list@U?$pair@QAVThread@ACE_Based@@PAVSqlResultQueue@@@std@@V?$allocator@U?$pair@QAVThread@ACE_Based@@PAVSqlResultQueue@@@std@@@2@@std@@@3@@stdext@@YAPAV?$_Iterator@$00@?$list@U?$pair@QAVThread@ACE_Based@@PAVSqlResultQueue@@@std@@V?$allocator@U?$pair@QAVThread@ACE_Based@@PAVSqlResultQueue@@@std@@@2@@std@@PAV123@00AAV?$allocator@V?$_Iterator@$00@?$list@U?$pair@QAVThread@ACE_Based@@PAVSqlResultQueue@@@std@@V?$allocator@U?$pair@QAVThread@ACE_Based@@PAVSqlResultQueue@@@std@@@2@@std@@@3@@Z 00418640 f i AuthSocket.obj
 0001:000176b0       ??$_Fill@PAV?$_Iterator@$00@?$list@U?$pair@QAVThread@ACE_Based@@PAVSqlResultQueue@@@std@@V?$allocator@U?$pair@QAVThread@ACE_Based@@PAVSqlResultQueue@@@std@@@2@@std@@V123@@std@@YAXPAV?$_Iterator@$00@?$list@U?$pair@QAVThread@ACE_Based@@PAVSqlResultQueue@@@std@@V?$allocator@U?$pair@QAVThread@ACE_Based@@PAVSqlResultQueue@@@std@@@2@@0@0ABV120@@Z 004186b0 f i AuthSocket.obj
 0001:00017700       ??$_Move_cat@PAV?$_Iterator@$00@?$list@U?$pair@QAVThread@ACE_Based@@PAVSqlResultQueue@@@std@@V?$allocator@U?$pair@QAVThread@ACE_Based@@PAVSqlResultQueue@@@std@@@2@@std@@@std@@YA?AU_Undefined_move_tag@0@ABQAV?$_Iterator@$00@?$list@U?$pair@QAVThread@ACE_Based@@PAVSqlResultQueue@@@std@@V?$allocator@U?$pair@QAVThread@ACE_Based@@PAVSqlResultQueue@@@std@@@2@@0@@Z 00418700 f i AuthSocket.obj
 0001:00017750       ??$_Move_backward_opt@PAV?$_Iterator@$00@?$list@U?$pair@QAVThread@ACE_Based@@PAVSqlResultQueue@@@std@@V?$allocator@U?$pair@QAVThread@ACE_Based@@PAVSqlResultQueue@@@std@@@2@@std@@PAV123@Urandom_access_iterator_tag@3@U_Undefined_move_tag@3@@std@@YAPAV?$_Iterator@$00@?$list@U?$pair@QAVThread@ACE_Based@@PAVSqlResultQueue@@@std@@V?$allocator@U?$pair@QAVThread@ACE_Based@@PAVSqlResultQueue@@@std@@@2@@0@PAV120@00Urandom_access_iterator_tag@0@U_Undefined_move_tag@0@U_Range_checked_iterator_tag@0@@Z 00418750 f i AuthSocket.obj
 0001:000177b0       ??$_Uninit_fill_n@PAEIEV?$allocator@E@std@@@std@@YAXPAEIABEAAV?$allocator@E@0@U_Scalar_ptr_iterator_tag@0@U_Range_checked_iterator_tag@0@@Z 004187b0 f i AuthSocket.obj
 0001:000177d0       ??$_Uninit_fill_n@PAV?$_Iterator@$00@?$list@U?$pair@QAVThread@ACE_Based@@PAVSqlTransaction@@@std@@V?$allocator@U?$pair@QAVThread@ACE_Based@@PAVSqlTransaction@@@std@@@2@@std@@IV123@V?$allocator@V?$_Iterator@$00@?$list@U?$pair@QAVThread@ACE_Based@@PAVSqlTransaction@@@std@@V?$allocator@U?$pair@QAVThread@ACE_Based@@PAVSqlTransaction@@@std@@@2@@std@@@3@@std@@YAXPAV?$_Iterator@$00@?$list@U?$pair@QAVThread@ACE_Based@@PAVSqlTransaction@@@std@@V?$allocator@U?$pair@QAVThread@ACE_Based@@PAVSqlTransaction@@@std@@@2@@0@IABV120@AAV?$allocator@V?$_Iterator@$00@?$list@U?$pair@QAVThread@ACE_Based@@PAVSqlTransaction@@@std@@V?$allocator@U?$pair@QAVThread@ACE_Based@@PAVSqlTransaction@@@std@@@2@@std@@@0@U_Nonscalar_ptr_iterator_tag@0@U_Range_checked_iterator_tag@0@@Z 004187d0 f i AuthSocket.obj
 0001:000178a0       ??$_Uninit_fill_n@PAV?$_Iterator@$00@?$list@U?$pair@QAVThread@ACE_Based@@PAVSqlResultQueue@@@std@@V?$allocator@U?$pair@QAVThread@ACE_Based@@PAVSqlResultQueue@@@std@@@2@@std@@IV123@V?$allocator@V?$_Iterator@$00@?$list@U?$pair@QAVThread@ACE_Based@@PAVSqlResultQueue@@@std@@V?$allocator@U?$pair@QAVThread@ACE_Based@@PAVSqlResultQueue@@@std@@@2@@std@@@3@@std@@YAXPAV?$_Iterator@$00@?$list@U?$pair@QAVThread@ACE_Based@@PAVSqlResultQueue@@@std@@V?$allocator@U?$pair@QAVThread@ACE_Based@@PAVSqlResultQueue@@@std@@@2@@0@IABV120@AAV?$allocator@V?$_Iterator@$00@?$list@U?$pair@QAVThread@ACE_Based@@PAVSqlResultQueue@@@std@@V?$allocator@U?$pair@QAVThread@ACE_Based@@PAVSqlResultQueue@@@std@@@2@@std@@@0@U_Nonscalar_ptr_iterator_tag@0@U_Range_checked_iterator_tag@0@@Z 004188a0 f i AuthSocket.obj
 0001:00017970       ??_G?$ACE_Refcounted_Auto_Ptr_Rep@VQueryResult@@VACE_Null_Mutex@@@@AAEPAXI@Z 00418970 f i AuthSocket.obj
 0001:000179b0       ?destroy@?$allocator@V?$basic_string@DU?$char_traits@D@std@@V?$allocator@D@2@@std@@@std@@QAEXPAV?$basic_string@DU?$char_traits@D@std@@V?$allocator@D@2@@2@@Z 004189b0 f i AuthSocket.obj
 0001:000179e0       ?_Insert@?$list@U?$pair@QAVThread@ACE_Based@@PAVSqlTransaction@@@std@@V?$allocator@U?$pair@QAVThread@ACE_Based@@PAVSqlTransaction@@@std@@@2@@std@@QAEXV?$_Const_iterator@$00@12@ABU?$pair@QAVThread@ACE_Based@@PAVSqlTransaction@@@2@@Z 004189e0 f i AuthSocket.obj
 0001:00017ae0       ?erase@?$list@U?$pair@QAVThread@ACE_Based@@PAVSqlTransaction@@@std@@V?$allocator@U?$pair@QAVThread@ACE_Based@@PAVSqlTransaction@@@std@@@2@@std@@QAE?AV?$_Iterator@$00@12@V?$_Const_iterator@$00@12@@Z 00418ae0 f i AuthSocket.obj
 0001:00017c90       ?construct@?$allocator@V?$_Iterator@$00@?$list@U?$pair@QAVThread@ACE_Based@@PAVSqlTransaction@@@std@@V?$allocator@U?$pair@QAVThread@ACE_Based@@PAVSqlTransaction@@@std@@@2@@std@@@std@@QAEXPAV?$_Iterator@$00@?$list@U?$pair@QAVThread@ACE_Based@@PAVSqlTransaction@@@std@@V?$allocator@U?$pair@QAVThread@ACE_Based@@PAVSqlTransaction@@@std@@@2@@2@ABV342@@Z 00418c90 f i AuthSocket.obj
 0001:00017cc0       ?destroy@?$allocator@V?$_Iterator@$00@?$list@U?$pair@QAVThread@ACE_Based@@PAVSqlTransaction@@@std@@V?$allocator@U?$pair@QAVThread@ACE_Based@@PAVSqlTransaction@@@std@@@2@@std@@@std@@QAEXPAV?$_Iterator@$00@?$list@U?$pair@QAVThread@ACE_Based@@PAVSqlTransaction@@@std@@V?$allocator@U?$pair@QAVThread@ACE_Based@@PAVSqlTransaction@@@std@@@2@@2@@Z 00418cc0 f i AuthSocket.obj
 0001:00017cf0       ?_Insert@?$list@U?$pair@QAVThread@ACE_Based@@PAVSqlResultQueue@@@std@@V?$allocator@U?$pair@QAVThread@ACE_Based@@PAVSqlResultQueue@@@std@@@2@@std@@QAEXV?$_Const_iterator@$00@12@ABU?$pair@QAVThread@ACE_Based@@PAVSqlResultQueue@@@2@@Z 00418cf0 f i AuthSocket.obj
 0001:00017df0       ?erase@?$list@U?$pair@QAVThread@ACE_Based@@PAVSqlResultQueue@@@std@@V?$allocator@U?$pair@QAVThread@ACE_Based@@PAVSqlResultQueue@@@std@@@2@@std@@QAE?AV?$_Iterator@$00@12@V?$_Const_iterator@$00@12@@Z 00418df0 f i AuthSocket.obj
 0001:00017fa0       ?construct@?$allocator@V?$_Iterator@$00@?$list@U?$pair@QAVThread@ACE_Based@@PAVSqlResultQueue@@@std@@V?$allocator@U?$pair@QAVThread@ACE_Based@@PAVSqlResultQueue@@@std@@@2@@std@@@std@@QAEXPAV?$_Iterator@$00@?$list@U?$pair@QAVThread@ACE_Based@@PAVSqlResultQueue@@@std@@V?$allocator@U?$pair@QAVThread@ACE_Based@@PAVSqlResultQueue@@@std@@@2@@2@ABV342@@Z 00418fa0 f i AuthSocket.obj
 0001:00017fd0       ?destroy@?$allocator@V?$_Iterator@$00@?$list@U?$pair@QAVThread@ACE_Based@@PAVSqlResultQueue@@@std@@V?$allocator@U?$pair@QAVThread@ACE_Based@@PAVSqlResultQueue@@@std@@@2@@std@@@std@@QAEXPAV?$_Iterator@$00@?$list@U?$pair@QAVThread@ACE_Based@@PAVSqlResultQueue@@@std@@V?$allocator@U?$pair@QAVThread@ACE_Based@@PAVSqlResultQueue@@@std@@@2@@2@@Z 00418fd0 f i AuthSocket.obj
 0001:00018000       ??D?$_Const_iterator@$00@?$list@U?$pair@QAVThread@ACE_Based@@PAVSqlTransaction@@@std@@V?$allocator@U?$pair@QAVThread@ACE_Based@@PAVSqlTransaction@@@std@@@2@@std@@QBEABU?$pair@QAVThread@ACE_Based@@PAVSqlTransaction@@@2@XZ 00419000 f i AuthSocket.obj
 0001:000180e0       ??F?$_Const_iterator@$00@?$list@U?$pair@QAVThread@ACE_Based@@PAVSqlTransaction@@@std@@V?$allocator@U?$pair@QAVThread@ACE_Based@@PAVSqlTransaction@@@std@@@2@@std@@QAEAAV012@XZ 004190e0 f i AuthSocket.obj
 0001:000181c0       ??9?$_Const_iterator@$00@?$list@U?$pair@QAVThread@ACE_Based@@PAVSqlTransaction@@@std@@V?$allocator@U?$pair@QAVThread@ACE_Based@@PAVSqlTransaction@@@std@@@2@@std@@QBE_NABV012@@Z 004191c0 f i AuthSocket.obj
 0001:00018200       ??D?$_Vector_iterator@V?$_Iterator@$00@?$list@U?$pair@QAVThread@ACE_Based@@PAVSqlTransaction@@@std@@V?$allocator@U?$pair@QAVThread@ACE_Based@@PAVSqlTransaction@@@std@@@2@@std@@V?$allocator@V?$_Iterator@$00@?$list@U?$pair@QAVThread@ACE_Based@@PAVSqlTransaction@@@std@@V?$allocator@U?$pair@QAVThread@ACE_Based@@PAVSqlTransaction@@@std@@@2@@std@@@3@@std@@QBEAAV?$_Iterator@$00@?$list@U?$pair@QAVThread@ACE_Based@@PAVSqlTransaction@@@std@@V?$allocator@U?$pair@QAVThread@ACE_Based@@PAVSqlTransaction@@@std@@@2@@1@XZ 00419200 f i AuthSocket.obj
 0001:00018230       ??E?$_Vector_iterator@V?$_Iterator@$00@?$list@U?$pair@QAVThread@ACE_Based@@PAVSqlTransaction@@@std@@V?$allocator@U?$pair@QAVThread@ACE_Based@@PAVSqlTransaction@@@std@@@2@@std@@V?$allocator@V?$_Iterator@$00@?$list@U?$pair@QAVThread@ACE_Based@@PAVSqlTransaction@@@std@@V?$allocator@U?$pair@QAVThread@ACE_Based@@PAVSqlTransaction@@@std@@@2@@std@@@3@@std@@QAEAAV01@XZ 00419230 f i AuthSocket.obj
 0001:00018260       ??D?$_Const_iterator@$00@?$list@U?$pair@QAVThread@ACE_Based@@PAVSqlResultQueue@@@std@@V?$allocator@U?$pair@QAVThread@ACE_Based@@PAVSqlResultQueue@@@std@@@2@@std@@QBEABU?$pair@QAVThread@ACE_Based@@PAVSqlResultQueue@@@2@XZ 00419260 f i AuthSocket.obj
 0001:00018340       ??F?$_Const_iterator@$00@?$list@U?$pair@QAVThread@ACE_Based@@PAVSqlResultQueue@@@std@@V?$allocator@U?$pair@QAVThread@ACE_Based@@PAVSqlResultQueue@@@std@@@2@@std@@QAEAAV012@XZ 00419340 f i AuthSocket.obj
 0001:00018420       ??9?$_Const_iterator@$00@?$list@U?$pair@QAVThread@ACE_Based@@PAVSqlResultQueue@@@std@@V?$allocator@U?$pair@QAVThread@ACE_Based@@PAVSqlResultQueue@@@std@@@2@@std@@QBE_NABV012@@Z 00419420 f i AuthSocket.obj
 0001:00018460       ??D?$_Vector_iterator@V?$_Iterator@$00@?$list@U?$pair@QAVThread@ACE_Based@@PAVSqlResultQueue@@@std@@V?$allocator@U?$pair@QAVThread@ACE_Based@@PAVSqlResultQueue@@@std@@@2@@std@@V?$allocator@V?$_Iterator@$00@?$list@U?$pair@QAVThread@ACE_Based@@PAVSqlResultQueue@@@std@@V?$allocator@U?$pair@QAVThread@ACE_Based@@PAVSqlResultQueue@@@std@@@2@@std@@@3@@std@@QBEAAV?$_Iterator@$00@?$list@U?$pair@QAVThread@ACE_Based@@PAVSqlResultQueue@@@std@@V?$allocator@U?$pair@QAVThread@ACE_Based@@PAVSqlResultQueue@@@std@@@2@@1@XZ 00419460 f i AuthSocket.obj
 0001:00018490       ??E?$_Vector_iterator@V?$_Iterator@$00@?$list@U?$pair@QAVThread@ACE_Based@@PAVSqlResultQueue@@@std@@V?$allocator@U?$pair@QAVThread@ACE_Based@@PAVSqlResultQueue@@@std@@@2@@std@@V?$allocator@V?$_Iterator@$00@?$list@U?$pair@QAVThread@ACE_Based@@PAVSqlResultQueue@@@std@@V?$allocator@U?$pair@QAVThread@ACE_Based@@PAVSqlResultQueue@@@std@@@2@@std@@@3@@std@@QAEAAV01@XZ 00419490 f i AuthSocket.obj
 0001:000184c0       ?_Myval@?$list@U?$pair@QAVThread@ACE_Based@@PAVSqlTransaction@@@std@@V?$allocator@U?$pair@QAVThread@ACE_Based@@PAVSqlTransaction@@@std@@@2@@std@@KAAAU?$pair@QAVThread@ACE_Based@@PAVSqlTransaction@@@2@PAU_Node@?$_List_nod@U?$pair@QAVThread@ACE_Based@@PAVSqlTransaction@@@std@@V?$allocator@U?$pair@QAVThread@ACE_Based@@PAVSqlTransaction@@@std@@@2@@2@@Z 004194c0 f i AuthSocket.obj
 0001:000184d0       ?_Make_iter@?$list@U?$pair@QAVThread@ACE_Based@@PAVSqlTransaction@@@std@@V?$allocator@U?$pair@QAVThread@ACE_Based@@PAVSqlTransaction@@@std@@@2@@std@@QBE?AV?$_Iterator@$00@12@V?$_Const_iterator@$00@12@@Z 004194d0 f i AuthSocket.obj
 0001:00018560       ?_Buynode@?$list@U?$pair@QAVThread@ACE_Based@@PAVSqlTransaction@@@std@@V?$allocator@U?$pair@QAVThread@ACE_Based@@PAVSqlTransaction@@@std@@@2@@std@@IAEPAU_Node@?$_List_nod@U?$pair@QAVThread@ACE_Based@@PAVSqlTransaction@@@std@@V?$allocator@U?$pair@QAVThread@ACE_Based@@PAVSqlTransaction@@@std@@@2@@2@PAU342@0ABU?$pair@QAVThread@ACE_Based@@PAVSqlTransaction@@@2@@Z 00419560 f i AuthSocket.obj
 0001:000186d0       ?_Incsize@?$list@U?$pair@QAVThread@ACE_Based@@PAVSqlTransaction@@@std@@V?$allocator@U?$pair@QAVThread@ACE_Based@@PAVSqlTransaction@@@std@@@2@@std@@IAEXI@Z 004196d0 f i AuthSocket.obj
 0001:000187a0       ?_Myval@?$list@U?$pair@QAVThread@ACE_Based@@PAVSqlResultQueue@@@std@@V?$allocator@U?$pair@QAVThread@ACE_Based@@PAVSqlResultQueue@@@std@@@2@@std@@KAAAU?$pair@QAVThread@ACE_Based@@PAVSqlResultQueue@@@2@PAU_Node@?$_List_nod@U?$pair@QAVThread@ACE_Based@@PAVSqlResultQueue@@@std@@V?$allocator@U?$pair@QAVThread@ACE_Based@@PAVSqlResultQueue@@@std@@@2@@2@@Z 004197a0 f i AuthSocket.obj
 0001:000187b0       ?_Make_iter@?$list@U?$pair@QAVThread@ACE_Based@@PAVSqlResultQueue@@@std@@V?$allocator@U?$pair@QAVThread@ACE_Based@@PAVSqlResultQueue@@@std@@@2@@std@@QBE?AV?$_Iterator@$00@12@V?$_Const_iterator@$00@12@@Z 004197b0 f i AuthSocket.obj
 0001:00018840       ?_Buynode@?$list@U?$pair@QAVThread@ACE_Based@@PAVSqlResultQueue@@@std@@V?$allocator@U?$pair@QAVThread@ACE_Based@@PAVSqlResultQueue@@@std@@@2@@std@@IAEPAU_Node@?$_List_nod@U?$pair@QAVThread@ACE_Based@@PAVSqlResultQueue@@@std@@V?$allocator@U?$pair@QAVThread@ACE_Based@@PAVSqlResultQueue@@@std@@@2@@2@PAU342@0ABU?$pair@QAVThread@ACE_Based@@PAVSqlResultQueue@@@2@@Z 00419840 f i AuthSocket.obj
 0001:000189b0       ?_Incsize@?$list@U?$pair@QAVThread@ACE_Based@@PAVSqlResultQueue@@@std@@V?$allocator@U?$pair@QAVThread@ACE_Based@@PAVSqlResultQueue@@@std@@@2@@std@@IAEXI@Z 004199b0 f i AuthSocket.obj
 0001:00018a80       ??E?$_Const_iterator@$00@?$list@U?$pair@QAVThread@ACE_Based@@PAVSqlTransaction@@@std@@V?$allocator@U?$pair@QAVThread@ACE_Based@@PAVSqlTransaction@@@std@@@2@@std@@QAE?AV012@H@Z 00419a80 f i AuthSocket.obj
 0001:00018b50       ?_Mynode@?$_Const_iterator@$00@?$list@U?$pair@QAVThread@ACE_Based@@PAVSqlTransaction@@@std@@V?$allocator@U?$pair@QAVThread@ACE_Based@@PAVSqlTransaction@@@std@@@2@@std@@QBEPAU_Node@?$_List_nod@U?$pair@QAVThread@ACE_Based@@PAVSqlTransaction@@@std@@V?$allocator@U?$pair@QAVThread@ACE_Based@@PAVSqlTransaction@@@std@@@2@@3@XZ 00419b50 f i AuthSocket.obj
 0001:00018b70       ??D?$_Vector_const_iterator@V?$_Iterator@$00@?$list@U?$pair@QAVThread@ACE_Based@@PAVSqlTransaction@@@std@@V?$allocator@U?$pair@QAVThread@ACE_Based@@PAVSqlTransaction@@@std@@@2@@std@@V?$allocator@V?$_Iterator@$00@?$list@U?$pair@QAVThread@ACE_Based@@PAVSqlTransaction@@@std@@V?$allocator@U?$pair@QAVThread@ACE_Based@@PAVSqlTransaction@@@std@@@2@@std@@@3@@std@@QBEABV?$_Iterator@$00@?$list@U?$pair@QAVThread@ACE_Based@@PAVSqlTransaction@@@std@@V?$allocator@U?$pair@QAVThread@ACE_Based@@PAVSqlTransaction@@@std@@@2@@1@XZ 00419b70 f i AuthSocket.obj
 0001:00018c30       ??E?$_Vector_const_iterator@V?$_Iterator@$00@?$list@U?$pair@QAVThread@ACE_Based@@PAVSqlTransaction@@@std@@V?$allocator@U?$pair@QAVThread@ACE_Based@@PAVSqlTransaction@@@std@@@2@@std@@V?$allocator@V?$_Iterator@$00@?$list@U?$pair@QAVThread@ACE_Based@@PAVSqlTransaction@@@std@@V?$allocator@U?$pair@QAVThread@ACE_Based@@PAVSqlTransaction@@@std@@@2@@std@@@3@@std@@QAEAAV01@XZ 00419c30 f i AuthSocket.obj
 0001:00018d70       ??E?$_Const_iterator@$00@?$list@U?$pair@QAVThread@ACE_Based@@PAVSqlResultQueue@@@std@@V?$allocator@U?$pair@QAVThread@ACE_Based@@PAVSqlResultQueue@@@std@@@2@@std@@QAE?AV012@H@Z 00419d70 f i AuthSocket.obj
 0001:00018e40       ?_Mynode@?$_Const_iterator@$00@?$list@U?$pair@QAVThread@ACE_Based@@PAVSqlResultQueue@@@std@@V?$allocator@U?$pair@QAVThread@ACE_Based@@PAVSqlResultQueue@@@std@@@2@@std@@QBEPAU_Node@?$_List_nod@U?$pair@QAVThread@ACE_Based@@PAVSqlResultQueue@@@std@@V?$allocator@U?$pair@QAVThread@ACE_Based@@PAVSqlResultQueue@@@std@@@2@@3@XZ 00419e40 f i AuthSocket.obj
 0001:00018e60       ??D?$_Vector_const_iterator@V?$_Iterator@$00@?$list@U?$pair@QAVThread@ACE_Based@@PAVSqlResultQueue@@@std@@V?$allocator@U?$pair@QAVThread@ACE_Based@@PAVSqlResultQueue@@@std@@@2@@std@@V?$allocator@V?$_Iterator@$00@?$list@U?$pair@QAVThread@ACE_Based@@PAVSqlResultQueue@@@std@@V?$allocator@U?$pair@QAVThread@ACE_Based@@PAVSqlResultQueue@@@std@@@2@@std@@@3@@std@@QBEABV?$_Iterator@$00@?$list@U?$pair@QAVThread@ACE_Based@@PAVSqlResultQueue@@@std@@V?$allocator@U?$pair@QAVThread@ACE_Based@@PAVSqlResultQueue@@@std@@@2@@1@XZ 00419e60 f i AuthSocket.obj
 0001:00018f20       ??E?$_Vector_const_iterator@V?$_Iterator@$00@?$list@U?$pair@QAVThread@ACE_Based@@PAVSqlResultQueue@@@std@@V?$allocator@U?$pair@QAVThread@ACE_Based@@PAVSqlResultQueue@@@std@@@2@@std@@V?$allocator@V?$_Iterator@$00@?$list@U?$pair@QAVThread@ACE_Based@@PAVSqlResultQueue@@@std@@V?$allocator@U?$pair@QAVThread@ACE_Based@@PAVSqlResultQueue@@@std@@@2@@std@@@3@@std@@QAEAAV01@XZ 00419f20 f i AuthSocket.obj
 0001:00019060       ?construct@?$allocator@U?$pair@QAVThread@ACE_Based@@PAVSqlTransaction@@@std@@@std@@QAEXPAU?$pair@QAVThread@ACE_Based@@PAVSqlTransaction@@@2@ABU32@@Z 0041a060 f i AuthSocket.obj
 0001:00019090       ?max_size@?$list@U?$pair@QAVThread@ACE_Based@@PAVSqlTransaction@@@std@@V?$allocator@U?$pair@QAVThread@ACE_Based@@PAVSqlTransaction@@@std@@@2@@std@@QBEIXZ 0041a090 f i AuthSocket.obj
 0001:000190c0       ?construct@?$allocator@U?$pair@QAVThread@ACE_Based@@PAVSqlResultQueue@@@std@@@std@@QAEXPAU?$pair@QAVThread@ACE_Based@@PAVSqlResultQueue@@@2@ABU32@@Z 0041a0c0 f i AuthSocket.obj
 0001:000190f0       ?max_size@?$list@U?$pair@QAVThread@ACE_Based@@PAVSqlResultQueue@@@std@@V?$allocator@U?$pair@QAVThread@ACE_Based@@PAVSqlResultQueue@@@std@@@2@@std@@QBEIXZ 0041a0f0 f i AuthSocket.obj
 0001:00019120       ?max_size@?$allocator@U?$pair@QAVThread@ACE_Based@@PAVSqlTransaction@@@std@@@std@@QBEIXZ 0041a120 f i AuthSocket.obj
 0001:00019170       ?max_size@?$allocator@U?$pair@QAVThread@ACE_Based@@PAVSqlResultQueue@@@std@@@std@@QBEIXZ 0041a170 f i AuthSocket.obj
 0001:000191c0       ??$_Checked_base@PAE@std@@YAPAEAAPAEU_Unchanged_checked_iterator_base_type_tag@0@@Z 0041a1c0 f i AuthSocket.obj
 0001:000191d0       ??$iter_swap@PAEPAE@std@@YAXPAE0@Z 0041a1d0 f i AuthSocket.obj
 0001:000191f0       ?internal_create@?$ACE_Refcounted_Auto_Ptr_Rep@VQueryResult@@VACE_Null_Mutex@@@@CAPAV1@PAVQueryResult@@@Z 0041a1f0 f i AuthSocket.obj
 0001:000192c0       ??1?$ACE_Refcounted_Auto_Ptr_Rep@VQueryResult@@VACE_Null_Mutex@@@@AAE@XZ 0041a2c0 f i AuthSocket.obj
 0001:00019330       ?get@?$ACE_Auto_Basic_Ptr@VQueryResult@@@@QBEPAVQueryResult@@XZ 0041a330 f i AuthSocket.obj
 0001:00019350       ??E?$ACE_Atomic_Op@VACE_Null_Mutex@@J@@QAEJXZ 0041a350 f i AuthSocket.obj
 0001:00019380       ??F?$ACE_Atomic_Op@VACE_Null_Mutex@@J@@QAEJH@Z 0041a380 f i AuthSocket.obj
 0001:000193b0       ??$_Checked_base@V?$_Vector_const_iterator@V?$basic_string@DU?$char_traits@D@std@@V?$allocator@D@2@@std@@V?$allocator@V?$basic_string@DU?$char_traits@D@std@@V?$allocator@D@2@@std@@@2@@std@@@std@@YA?AV?$_Vector_const_iterator@V?$basic_string@DU?$char_traits@D@std@@V?$allocator@D@2@@std@@V?$allocator@V?$basic_string@DU?$char_traits@D@std@@V?$allocator@D@2@@std@@@2@@0@AAV10@@Z 0041a3b0 f i AuthSocket.obj
 0001:00019430       ??$_Ptr_cat@V?$_Vector_const_iterator@V?$basic_string@DU?$char_traits@D@std@@V?$allocator@D@2@@std@@V?$allocator@V?$basic_string@DU?$char_traits@D@std@@V?$allocator@D@2@@std@@@2@@std@@PAV?$basic_string@DU?$char_traits@D@std@@V?$allocator@D@2@@2@@std@@YA?AU_Nonscalar_ptr_iterator_tag@0@AAV?$_Vector_const_iterator@V?$basic_string@DU?$char_traits@D@std@@V?$allocator@D@2@@std@@V?$allocator@V?$basic_string@DU?$char_traits@D@std@@V?$allocator@D@2@@std@@@2@@0@AAPAV?$basic_string@DU?$char_traits@D@std@@V?$allocator@D@2@@0@@Z 0041a430 f i AuthSocket.obj
 0001:00019480       ??$_Uninit_copy@V?$_Vector_const_iterator@V?$basic_string@DU?$char_traits@D@std@@V?$allocator@D@2@@std@@V?$allocator@V?$basic_string@DU?$char_traits@D@std@@V?$allocator@D@2@@std@@@2@@std@@PAV?$basic_string@DU?$char_traits@D@std@@V?$allocator@D@2@@2@V?$allocator@V?$basic_string@DU?$char_traits@D@std@@V?$allocator@D@2@@std@@@2@@std@@YAPAV?$basic_string@DU?$char_traits@D@std@@V?$allocator@D@2@@0@V?$_Vector_const_iterator@V?$basic_string@DU?$char_traits@D@std@@V?$allocator@D@2@@std@@V?$allocator@V?$basic_string@DU?$char_traits@D@std@@V?$allocator@D@2@@std@@@2@@0@0PAV10@AAV?$allocator@V?$basic_string@DU?$char_traits@D@std@@V?$allocator@D@2@@std@@@0@U_Nonscalar_ptr_iterator_tag@0@U_Range_checked_iterator_tag@0@@Z 0041a480 f i AuthSocket.obj
 0001:00019600       ??$_Checked_base@PAV?$basic_string@DU?$char_traits@D@std@@V?$allocator@D@2@@std@@@std@@YAPAV?$basic_string@DU?$char_traits@D@std@@V?$allocator@D@2@@0@AAPAV10@U_Unchanged_checked_iterator_base_type_tag@0@@Z 0041a600 f i AuthSocket.obj
 0001:00019610       ??$_Copy_opt@PAV?$basic_string@DU?$char_traits@D@std@@V?$allocator@D@2@@std@@PAV12@Uforward_iterator_tag@2@@std@@YAPAV?$basic_string@DU?$char_traits@D@std@@V?$allocator@D@2@@0@PAV10@00Uforward_iterator_tag@0@U_Nonscalar_ptr_iterator_tag@0@U_Range_checked_iterator_tag@0@@Z 0041a610 f i AuthSocket.obj
 0001:00019670       ??$_Uninit_copy@PAV?$basic_string@DU?$char_traits@D@std@@V?$allocator@D@2@@std@@PAV12@V?$allocator@V?$basic_string@DU?$char_traits@D@std@@V?$allocator@D@2@@std@@@2@@std@@YAPAV?$basic_string@DU?$char_traits@D@std@@V?$allocator@D@2@@0@PAV10@00AAV?$allocator@V?$basic_string@DU?$char_traits@D@std@@V?$allocator@D@2@@std@@@0@U_Nonscalar_ptr_iterator_tag@0@U_Range_checked_iterator_tag@0@@Z 0041a670 f i AuthSocket.obj
 0001:00019770       ??$_Checked_base@V?$_Vector_iterator@EV?$allocator@E@std@@@std@@@std@@YA?AV?$_Vector_iterator@EV?$allocator@E@std@@@0@AAV10@@Z 0041a770 f i AuthSocket.obj
 0001:000197f0       ??$_Uninit_move@V?$_Vector_iterator@EV?$allocator@E@std@@@std@@PAEV?$allocator@E@2@U_Undefined_move_tag@2@@std@@YAPAEV?$_Vector_iterator@EV?$allocator@E@std@@@0@0PAEAAV?$allocator@E@0@U_Undefined_move_tag@0@U_Range_checked_iterator_tag@0@@Z 0041a7f0 f i AuthSocket.obj
 0001:000198c0       ??$_Debug_range@V?$_Const_iterator@$00@?$list@U?$pair@QAVThread@ACE_Based@@PAVSqlTransaction@@@std@@V?$allocator@U?$pair@QAVThread@ACE_Based@@PAVSqlTransaction@@@std@@@2@@std@@@std@@YAXV?$_Const_iterator@$00@?$list@U?$pair@QAVThread@ACE_Based@@PAVSqlTransaction@@@std@@V?$allocator@U?$pair@QAVThread@ACE_Based@@PAVSqlTransaction@@@std@@@2@@0@0PB_WI@Z 0041a8c0 f i AuthSocket.obj
 0001:000199a0       ??$_Checked_base@V?$_Vector_iterator@V?$_Iterator@$00@?$list@U?$pair@QAVThread@ACE_Based@@PAVSqlTransaction@@@std@@V?$allocator@U?$pair@QAVThread@ACE_Based@@PAVSqlTransaction@@@std@@@2@@std@@V?$allocator@V?$_Iterator@$00@?$list@U?$pair@QAVThread@ACE_Based@@PAVSqlTransaction@@@std@@V?$allocator@U?$pair@QAVThread@ACE_Based@@PAVSqlTransaction@@@std@@@2@@std@@@3@@std@@@std@@YA?AV?$_Vector_iterator@V?$_Iterator@$00@?$list@U?$pair@QAVThread@ACE_Based@@PAVSqlTransaction@@@std@@V?$allocator@U?$pair@QAVThread@ACE_Based@@PAVSqlTransaction@@@std@@@2@@std@@V?$allocator@V?$_Iterator@$00@?$list@U?$pair@QAVThread@ACE_Based@@PAVSqlTransaction@@@std@@V?$allocator@U?$pair@QAVThread@ACE_Based@@PAVSqlTransaction@@@std@@@2@@std@@@3@@0@AAV10@U_Unchanged_checked_iterator_base_type_tag@0@@Z 0041a9a0 f i AuthSocket.obj
 0001:000199e0       ??$_Debug_range@V?$_Vector_iterator@V?$_Iterator@$00@?$list@U?$pair@QAVThread@ACE_Based@@PAVSqlTransaction@@@std@@V?$allocator@U?$pair@QAVThread@ACE_Based@@PAVSqlTransaction@@@std@@@2@@std@@V?$allocator@V?$_Iterator@$00@?$list@U?$pair@QAVThread@ACE_Based@@PAVSqlTransaction@@@std@@V?$allocator@U?$pair@QAVThread@ACE_Based@@PAVSqlTransaction@@@std@@@2@@std@@@3@@std@@@std@@YAXV?$_Vector_iterator@V?$_Iterator@$00@?$list@U?$pair@QAVThread@ACE_Based@@PAVSqlTransaction@@@std@@V?$allocator@U?$pair@QAVThread@ACE_Based@@PAVSqlTransaction@@@std@@@2@@std@@V?$allocator@V?$_Iterator@$00@?$list@U?$pair@QAVThread@ACE_Based@@PAVSqlTransaction@@@std@@V?$allocator@U?$pair@QAVThread@ACE_Based@@PAVSqlTransaction@@@std@@@2@@std@@@3@@0@0PB_WI@Z 0041a9e0 f i AuthSocket.obj
 0001:00019ac0       ??$_Debug_range@V?$_Const_iterator@$00@?$list@U?$pair@QAVThread@ACE_Based@@PAVSqlResultQueue@@@std@@V?$allocator@U?$pair@QAVThread@ACE_Based@@PAVSqlResultQueue@@@std@@@2@@std@@@std@@YAXV?$_Const_iterator@$00@?$list@U?$pair@QAVThread@ACE_Based@@PAVSqlResultQueue@@@std@@V?$allocator@U?$pair@QAVThread@ACE_Based@@PAVSqlResultQueue@@@std@@@2@@0@0PB_WI@Z 0041aac0 f i AuthSocket.obj
 0001:00019ba0       ??$_Checked_base@V?$_Vector_iterator@V?$_Iterator@$00@?$list@U?$pair@QAVThread@ACE_Based@@PAVSqlResultQueue@@@std@@V?$allocator@U?$pair@QAVThread@ACE_Based@@PAVSqlResultQueue@@@std@@@2@@std@@V?$allocator@V?$_Iterator@$00@?$list@U?$pair@QAVThread@ACE_Based@@PAVSqlResultQueue@@@std@@V?$allocator@U?$pair@QAVThread@ACE_Based@@PAVSqlResultQueue@@@std@@@2@@std@@@3@@std@@@std@@YA?AV?$_Vector_iterator@V?$_Iterator@$00@?$list@U?$pair@QAVThread@ACE_Based@@PAVSqlResultQueue@@@std@@V?$allocator@U?$pair@QAVThread@ACE_Based@@PAVSqlResultQueue@@@std@@@2@@std@@V?$allocator@V?$_Iterator@$00@?$list@U?$pair@QAVThread@ACE_Based@@PAVSqlResultQueue@@@std@@V?$allocator@U?$pair@QAVThread@ACE_Based@@PAVSqlResultQueue@@@std@@@2@@std@@@3@@0@AAV10@U_Unchanged_checked_iterator_base_type_tag@0@@Z 0041aba0 f i AuthSocket.obj
 0001:00019be0       ??$_Debug_range@V?$_Vector_iterator@V?$_Iterator@$00@?$list@U?$pair@QAVThread@ACE_Based@@PAVSqlResultQueue@@@std@@V?$allocator@U?$pair@QAVThread@ACE_Based@@PAVSqlResultQueue@@@std@@@2@@std@@V?$allocator@V?$_Iterator@$00@?$list@U?$pair@QAVThread@ACE_Based@@PAVSqlResultQueue@@@std@@V?$allocator@U?$pair@QAVThread@ACE_Based@@PAVSqlResultQueue@@@std@@@2@@std@@@3@@std@@@std@@YAXV?$_Vector_iterator@V?$_Iterator@$00@?$list@U?$pair@QAVThread@ACE_Based@@PAVSqlResultQueue@@@std@@V?$allocator@U?$pair@QAVThread@ACE_Based@@PAVSqlResultQueue@@@std@@@2@@std@@V?$allocator@V?$_Iterator@$00@?$list@U?$pair@QAVThread@ACE_Based@@PAVSqlResultQueue@@@std@@V?$allocator@U?$pair@QAVThread@ACE_Based@@PAVSqlResultQueue@@@std@@@2@@std@@@3@@0@0PB_WI@Z 0041abe0 f i AuthSocket.obj
 0001:00019cc0       ??$_Uninit_move@PAEPAEV?$allocator@E@std@@U_Undefined_move_tag@2@@std@@YAPAEPAE00AAV?$allocator@E@0@U_Undefined_move_tag@0@U_Range_checked_iterator_tag@0@@Z 0041acc0 f i AuthSocket.obj
 0001:00019cf0       ??$_Copy_backward_opt@PAEPAEUrandom_access_iterator_tag@std@@@std@@YAPAEPAE00Urandom_access_iterator_tag@0@U_Scalar_ptr_iterator_tag@0@U_Range_checked_iterator_tag@0@@Z 0041acf0 f i AuthSocket.obj
 0001:00019d90       ??$_Checked_base@PAV?$_Iterator@$00@?$list@U?$pair@QAVThread@ACE_Based@@PAVSqlTransaction@@@std@@V?$allocator@U?$pair@QAVThread@ACE_Based@@PAVSqlTransaction@@@std@@@2@@std@@@std@@YAPAV?$_Iterator@$00@?$list@U?$pair@QAVThread@ACE_Based@@PAVSqlTransaction@@@std@@V?$allocator@U?$pair@QAVThread@ACE_Based@@PAVSqlTransaction@@@std@@@2@@0@AAPAV120@U_Unchanged_checked_iterator_base_type_tag@0@@Z 0041ad90 f i AuthSocket.obj
 0001:00019da0       ??$_Copy_opt@PAV?$_Iterator@$00@?$list@U?$pair@QAVThread@ACE_Based@@PAVSqlTransaction@@@std@@V?$allocator@U?$pair@QAVThread@ACE_Based@@PAVSqlTransaction@@@std@@@2@@std@@PAV123@Uforward_iterator_tag@3@@std@@YAPAV?$_Iterator@$00@?$list@U?$pair@QAVThread@ACE_Based@@PAVSqlTransaction@@@std@@V?$allocator@U?$pair@QAVThread@ACE_Based@@PAVSqlTransaction@@@std@@@2@@0@PAV120@00Uforward_iterator_tag@0@U_Nonscalar_ptr_iterator_tag@0@U_Range_checked_iterator_tag@0@@Z 0041ada0 f i AuthSocket.obj
 0001:00019e00       ??$_Uninit_move@PAV?$_Iterator@$00@?$list@U?$pair@QAVThread@ACE_Based@@PAVSqlTransaction@@@std@@V?$allocator@U?$pair@QAVThread@ACE_Based@@PAVSqlTransaction@@@std@@@2@@std@@PAV123@V?$allocator@V?$_Iterator@$00@?$list@U?$pair@QAVThread@ACE_Based@@PAVSqlTransaction@@@std@@V?$allocator@U?$pair@QAVThread@ACE_Based@@PAVSqlTransaction@@@std@@@2@@std@@@3@U_Undefined_move_tag@3@@std@@YAPAV?$_Iterator@$00@?$list@U?$pair@QAVThread@ACE_Based@@PAVSqlTransaction@@@std@@V?$allocator@U?$pair@QAVThread@ACE_Based@@PAVSqlTransaction@@@std@@@2@@0@PAV120@00AAV?$allocator@V?$_Iterator@$00@?$list@U?$pair@QAVThread@ACE_Based@@PAVSqlTransaction@@@std@@V?$allocator@U?$pair@QAVThread@ACE_Based@@PAVSqlTransaction@@@std@@@2@@std@@@0@U_Undefined_move_tag@0@U_Range_checked_iterator_tag@0@@Z 0041ae00 f i AuthSocket.obj
 0001:00019e30       ??$_Debug_range@PAV?$_Iterator@$00@?$list@U?$pair@QAVThread@ACE_Based@@PAVSqlTransaction@@@std@@V?$allocator@U?$pair@QAVThread@ACE_Based@@PAVSqlTransaction@@@std@@@2@@std@@@std@@YAXPAV?$_Iterator@$00@?$list@U?$pair@QAVThread@ACE_Based@@PAVSqlTransaction@@@std@@V?$allocator@U?$pair@QAVThread@ACE_Based@@PAVSqlTransaction@@@std@@@2@@0@0PB_WI@Z 0041ae30 f i AuthSocket.obj
 0001:00019e80       ??$_Copy_backward_opt@PAV?$_Iterator@$00@?$list@U?$pair@QAVThread@ACE_Based@@PAVSqlTransaction@@@std@@V?$allocator@U?$pair@QAVThread@ACE_Based@@PAVSqlTransaction@@@std@@@2@@std@@PAV123@@std@@YAPAV?$_Iterator@$00@?$list@U?$pair@QAVThread@ACE_Based@@PAVSqlTransaction@@@std@@V?$allocator@U?$pair@QAVThread@ACE_Based@@PAVSqlTransaction@@@std@@@2@@0@PAV120@00Urandom_access_iterator_tag@0@U_Nonscalar_ptr_iterator_tag@0@U_Range_checked_iterator_tag@0@@Z 0041ae80 f i AuthSocket.obj
 0001:00019f00       ??$_Checked_base@PAV?$_Iterator@$00@?$list@U?$pair@QAVThread@ACE_Based@@PAVSqlResultQueue@@@std@@V?$allocator@U?$pair@QAVThread@ACE_Based@@PAVSqlResultQueue@@@std@@@2@@std@@@std@@YAPAV?$_Iterator@$00@?$list@U?$pair@QAVThread@ACE_Based@@PAVSqlResultQueue@@@std@@V?$allocator@U?$pair@QAVThread@ACE_Based@@PAVSqlResultQueue@@@std@@@2@@0@AAPAV120@U_Unchanged_checked_iterator_base_type_tag@0@@Z 0041af00 f i AuthSocket.obj
 0001:00019f10       ??$_Copy_opt@PAV?$_Iterator@$00@?$list@U?$pair@QAVThread@ACE_Based@@PAVSqlResultQueue@@@std@@V?$allocator@U?$pair@QAVThread@ACE_Based@@PAVSqlResultQueue@@@std@@@2@@std@@PAV123@Uforward_iterator_tag@3@@std@@YAPAV?$_Iterator@$00@?$list@U?$pair@QAVThread@ACE_Based@@PAVSqlResultQueue@@@std@@V?$allocator@U?$pair@QAVThread@ACE_Based@@PAVSqlResultQueue@@@std@@@2@@0@PAV120@00Uforward_iterator_tag@0@U_Nonscalar_ptr_iterator_tag@0@U_Range_checked_iterator_tag@0@@Z 0041af10 f i AuthSocket.obj
 0001:00019f70       ??$_Uninit_move@PAV?$_Iterator@$00@?$list@U?$pair@QAVThread@ACE_Based@@PAVSqlResultQueue@@@std@@V?$allocator@U?$pair@QAVThread@ACE_Based@@PAVSqlResultQueue@@@std@@@2@@std@@PAV123@V?$allocator@V?$_Iterator@$00@?$list@U?$pair@QAVThread@ACE_Based@@PAVSqlResultQueue@@@std@@V?$allocator@U?$pair@QAVThread@ACE_Based@@PAVSqlResultQueue@@@std@@@2@@std@@@3@U_Undefined_move_tag@3@@std@@YAPAV?$_Iterator@$00@?$list@U?$pair@QAVThread@ACE_Based@@PAVSqlResultQueue@@@std@@V?$allocator@U?$pair@QAVThread@ACE_Based@@PAVSqlResultQueue@@@std@@@2@@0@PAV120@00AAV?$allocator@V?$_Iterator@$00@?$list@U?$pair@QAVThread@ACE_Based@@PAVSqlResultQueue@@@std@@V?$allocator@U?$pair@QAVThread@ACE_Based@@PAVSqlResultQueue@@@std@@@2@@std@@@0@U_Undefined_move_tag@0@U_Range_checked_iterator_tag@0@@Z 0041af70 f i AuthSocket.obj
 0001:00019fa0       ??$_Debug_range@PAV?$_Iterator@$00@?$list@U?$pair@QAVThread@ACE_Based@@PAVSqlResultQueue@@@std@@V?$allocator@U?$pair@QAVThread@ACE_Based@@PAVSqlResultQueue@@@std@@@2@@std@@@std@@YAXPAV?$_Iterator@$00@?$list@U?$pair@QAVThread@ACE_Based@@PAVSqlResultQueue@@@std@@V?$allocator@U?$pair@QAVThread@ACE_Based@@PAVSqlResultQueue@@@std@@@2@@0@0PB_WI@Z 0041afa0 f i AuthSocket.obj
 0001:00019ff0       ??$_Copy_backward_opt@PAV?$_Iterator@$00@?$list@U?$pair@QAVThread@ACE_Based@@PAVSqlResultQueue@@@std@@V?$allocator@U?$pair@QAVThread@ACE_Based@@PAVSqlResultQueue@@@std@@@2@@std@@PAV123@@std@@YAPAV?$_Iterator@$00@?$list@U?$pair@QAVThread@ACE_Based@@PAVSqlResultQueue@@@std@@V?$allocator@U?$pair@QAVThread@ACE_Based@@PAVSqlResultQueue@@@std@@@2@@0@PAV120@00Urandom_access_iterator_tag@0@U_Nonscalar_ptr_iterator_tag@0@U_Range_checked_iterator_tag@0@@Z 0041aff0 f i AuthSocket.obj
 0001:0001a070       ??$unchecked_fill_n@PAEIE@stdext@@YAXPAEIABE@Z 0041b070 f i AuthSocket.obj
 0001:0001a0c0       ??$_Destroy@V?$basic_string@DU?$char_traits@D@std@@V?$allocator@D@2@@std@@@std@@YAXPAV?$basic_string@DU?$char_traits@D@std@@V?$allocator@D@2@@0@@Z 0041b0c0 f i AuthSocket.obj
 0001:0001a0e0       ??$_Construct@V?$_Iterator@$00@?$list@U?$pair@QAVThread@ACE_Based@@PAVSqlTransaction@@@std@@V?$allocator@U?$pair@QAVThread@ACE_Based@@PAVSqlTransaction@@@std@@@2@@std@@V123@@std@@YAXPAV?$_Iterator@$00@?$list@U?$pair@QAVThread@ACE_Based@@PAVSqlTransaction@@@std@@V?$allocator@U?$pair@QAVThread@ACE_Based@@PAVSqlTransaction@@@std@@@2@@0@ABV120@@Z 0041b0e0 f i AuthSocket.obj
 0001:0001a180       ??$_Destroy@V?$_Iterator@$00@?$list@U?$pair@QAVThread@ACE_Based@@PAVSqlTransaction@@@std@@V?$allocator@U?$pair@QAVThread@ACE_Based@@PAVSqlTransaction@@@std@@@2@@std@@@std@@YAXPAV?$_Iterator@$00@?$list@U?$pair@QAVThread@ACE_Based@@PAVSqlTransaction@@@std@@V?$allocator@U?$pair@QAVThread@ACE_Based@@PAVSqlTransaction@@@std@@@2@@0@@Z 0041b180 f i AuthSocket.obj
 0001:0001a1a0       ??$_Construct@V?$_Iterator@$00@?$list@U?$pair@QAVThread@ACE_Based@@PAVSqlResultQueue@@@std@@V?$allocator@U?$pair@QAVThread@ACE_Based@@PAVSqlResultQueue@@@std@@@2@@std@@V123@@std@@YAXPAV?$_Iterator@$00@?$list@U?$pair@QAVThread@ACE_Based@@PAVSqlResultQueue@@@std@@V?$allocator@U?$pair@QAVThread@ACE_Based@@PAVSqlResultQueue@@@std@@@2@@0@ABV120@@Z 0041b1a0 f i AuthSocket.obj
 0001:0001a240       ??$_Destroy@V?$_Iterator@$00@?$list@U?$pair@QAVThread@ACE_Based@@PAVSqlResultQueue@@@std@@V?$allocator@U?$pair@QAVThread@ACE_Based@@PAVSqlResultQueue@@@std@@@2@@std@@@std@@YAXPAV?$_Iterator@$00@?$list@U?$pair@QAVThread@ACE_Based@@PAVSqlResultQueue@@@std@@V?$allocator@U?$pair@QAVThread@ACE_Based@@PAVSqlResultQueue@@@std@@@2@@0@@Z 0041b240 f i AuthSocket.obj
 0001:0001a260       ??$_Construct@U?$pair@QAVThread@ACE_Based@@PAVSqlTransaction@@@std@@U12@@std@@YAXPAU?$pair@QAVThread@ACE_Based@@PAVSqlTransaction@@@0@ABU10@@Z 0041b260 f i AuthSocket.obj
 0001:0001a2d0       ??$_Construct@U?$pair@QAVThread@ACE_Based@@PAVSqlResultQueue@@@std@@U12@@std@@YAXPAU?$pair@QAVThread@ACE_Based@@PAVSqlResultQueue@@@0@ABU10@@Z 0041b2d0 f i AuthSocket.obj
 0001:0001a340       ??1?$ACE_Atomic_Op@VACE_Null_Mutex@@J@@QAE@XZ 0041b340 f i AuthSocket.obj
 0001:0001a370       ??_G?$basic_string@DU?$char_traits@D@std@@V?$allocator@D@2@@std@@QAEPAXI@Z 0041b370 f i AuthSocket.obj
 0001:0001a3c0       ??_G?$_Iterator@$00@?$list@U?$pair@QAVThread@ACE_Based@@PAVSqlTransaction@@@std@@V?$allocator@U?$pair@QAVThread@ACE_Based@@PAVSqlTransaction@@@std@@@2@@std@@QAEPAXI@Z 0041b3c0 f i AuthSocket.obj
 0001:0001a400       ??_G?$_Iterator@$00@?$list@U?$pair@QAVThread@ACE_Based@@PAVSqlResultQueue@@@std@@V?$allocator@U?$pair@QAVThread@ACE_Based@@PAVSqlResultQueue@@@std@@@2@@std@@QAEPAXI@Z 0041b400 f i AuthSocket.obj
 0001:0001a440       ?construct@?$allocator@V?$basic_string@DU?$char_traits@D@std@@V?$allocator@D@2@@std@@@std@@QAEXPAV?$basic_string@DU?$char_traits@D@std@@V?$allocator@D@2@@2@ABV32@@Z 0041b440 f i AuthSocket.obj
 0001:0001a470       ??D?$_Vector_const_iterator@V?$basic_string@DU?$char_traits@D@std@@V?$allocator@D@2@@std@@V?$allocator@V?$basic_string@DU?$char_traits@D@std@@V?$allocator@D@2@@std@@@2@@std@@QBEABV?$basic_string@DU?$char_traits@D@std@@V?$allocator@D@2@@1@XZ 0041b470 f i AuthSocket.obj
 0001:0001a530       ??E?$_Vector_const_iterator@V?$basic_string@DU?$char_traits@D@std@@V?$allocator@D@2@@std@@V?$allocator@V?$basic_string@DU?$char_traits@D@std@@V?$allocator@D@2@@std@@@2@@std@@QAEAAV01@XZ 0041b530 f i AuthSocket.obj
 0001:0001a670       ??$swap@E@std@@YAXAAE0@Z   0041b670 f i AuthSocket.obj
 0001:0001a6b0       ??0?$ACE_Refcounted_Auto_Ptr_Rep@VQueryResult@@VACE_Null_Mutex@@@@AAE@PAVQueryResult@@@Z 0041b6b0 f i AuthSocket.obj
 0001:0001a730       ??1?$ACE_Auto_Basic_Ptr@VQueryResult@@@@QAE@XZ 0041b730 f i AuthSocket.obj
 0001:0001a7a0       ??E?$ACE_Atomic_Op_Ex@VACE_Null_Mutex@@J@@QAEJXZ 0041b7a0 f i AuthSocket.obj
 0001:0001a8c0       ??F?$ACE_Atomic_Op_Ex@VACE_Null_Mutex@@J@@QAEJH@Z 0041b8c0 f i AuthSocket.obj
 0001:0001a9e0       ??$_Checked_base@V?$_Vector_const_iterator@V?$basic_string@DU?$char_traits@D@std@@V?$allocator@D@2@@std@@V?$allocator@V?$basic_string@DU?$char_traits@D@std@@V?$allocator@D@2@@std@@@2@@std@@@std@@YA?AV?$_Vector_const_iterator@V?$basic_string@DU?$char_traits@D@std@@V?$allocator@D@2@@std@@V?$allocator@V?$basic_string@DU?$char_traits@D@std@@V?$allocator@D@2@@std@@@2@@0@AAV10@U_Unchanged_checked_iterator_base_type_tag@0@@Z 0041b9e0 f i AuthSocket.obj
 0001:0001aa20       ??$_Debug_range@V?$_Vector_const_iterator@V?$basic_string@DU?$char_traits@D@std@@V?$allocator@D@2@@std@@V?$allocator@V?$basic_string@DU?$char_traits@D@std@@V?$allocator@D@2@@std@@@2@@std@@@std@@YAXV?$_Vector_const_iterator@V?$basic_string@DU?$char_traits@D@std@@V?$allocator@D@2@@std@@V?$allocator@V?$basic_string@DU?$char_traits@D@std@@V?$allocator@D@2@@std@@@2@@0@0PB_WI@Z 0041ba20 f i AuthSocket.obj
 0001:0001ab00       ??$_Debug_pointer@V?$basic_string@DU?$char_traits@D@std@@V?$allocator@D@2@@std@@@std@@YAXPAV?$basic_string@DU?$char_traits@D@std@@V?$allocator@D@2@@0@PB_WI@Z 0041bb00 f i AuthSocket.obj
 0001:0001ab40       ??$_Debug_range@PAV?$basic_string@DU?$char_traits@D@std@@V?$allocator@D@2@@std@@@std@@YAXPAV?$basic_string@DU?$char_traits@D@std@@V?$allocator@D@2@@0@0PB_WI@Z 0041bb40 f i AuthSocket.obj
 0001:0001ab90       ??$_Checked_base@V?$_Vector_iterator@EV?$allocator@E@std@@@std@@@std@@YA?AV?$_Vector_iterator@EV?$allocator@E@std@@@0@AAV10@U_Unchanged_checked_iterator_base_type_tag@0@@Z 0041bb90 f i AuthSocket.obj
 0001:0001abd0       ??$unchecked_uninitialized_copy@V?$_Vector_iterator@EV?$allocator@E@std@@@std@@PAEV?$allocator@E@2@@stdext@@YAPAEV?$_Vector_iterator@EV?$allocator@E@std@@@std@@0PAEAAV?$allocator@E@2@@Z 0041bbd0 f i AuthSocket.obj
 0001:0001acd0       ??$_Debug_range2@V?$_Const_iterator@$00@?$list@U?$pair@QAVThread@ACE_Based@@PAVSqlTransaction@@@std@@V?$allocator@U?$pair@QAVThread@ACE_Based@@PAVSqlTransaction@@@std@@@2@@std@@@std@@YAXV?$_Const_iterator@$00@?$list@U?$pair@QAVThread@ACE_Based@@PAVSqlTransaction@@@std@@V?$allocator@U?$pair@QAVThread@ACE_Based@@PAVSqlTransaction@@@std@@@2@@0@0PB_WIUinput_iterator_tag@0@@Z 0041bcd0 f i AuthSocket.obj
 0001:0001ad30       ??$_Iter_cat@V?$_Vector_iterator@V?$_Iterator@$00@?$list@U?$pair@QAVThread@ACE_Based@@PAVSqlTransaction@@@std@@V?$allocator@U?$pair@QAVThread@ACE_Based@@PAVSqlTransaction@@@std@@@2@@std@@V?$allocator@V?$_Iterator@$00@?$list@U?$pair@QAVThread@ACE_Based@@PAVSqlTransaction@@@std@@V?$allocator@U?$pair@QAVThread@ACE_Based@@PAVSqlTransaction@@@std@@@2@@std@@@3@@std@@@std@@YA?AUrandom_access_iterator_tag@0@ABV?$_Vector_iterator@V?$_Iterator@$00@?$list@U?$pair@QAVThread@ACE_Based@@PAVSqlTransaction@@@std@@V?$allocator@U?$pair@QAVThread@ACE_Based@@PAVSqlTransaction@@@std@@@2@@std@@V?$allocator@V?$_Iterator@$00@?$list@U?$pair@QAVThread@ACE_Based@@PAVSqlTransaction@@@std@@V?$allocator@U?$pair@QAVThread@ACE_Based@@PAVSqlTransaction@@@std@@@2@@std@@@3@@0@@Z 0041bd30 f i AuthSocket.obj
 0001:0001ad80       ??$_Debug_range2@V?$_Vector_iterator@V?$_Iterator@$00@?$list@U?$pair@QAVThread@ACE_Based@@PAVSqlTransaction@@@std@@V?$allocator@U?$pair@QAVThread@ACE_Based@@PAVSqlTransaction@@@std@@@2@@std@@V?$allocator@V?$_Iterator@$00@?$list@U?$pair@QAVThread@ACE_Based@@PAVSqlTransaction@@@std@@V?$allocator@U?$pair@QAVThread@ACE_Based@@PAVSqlTransaction@@@std@@@2@@std@@@3@@std@@@std@@YAXV?$_Vector_iterator@V?$_Iterator@$00@?$list@U?$pair@QAVThread@ACE_Based@@PAVSqlTransaction@@@std@@V?$allocator@U?$pair@QAVThread@ACE_Based@@PAVSqlTransaction@@@std@@@2@@std@@V?$allocator@V?$_Iterator@$00@?$list@U?$pair@QAVThread@ACE_Based@@PAVSqlTransaction@@@std@@V?$allocator@U?$pair@QAVThread@ACE_Based@@PAVSqlTransaction@@@std@@@2@@std@@@3@@0@0PB_WIUrandom_access_iterator_tag@0@@Z 0041bd80 f i AuthSocket.obj
 0001:0001ae50       ??$_Debug_range2@V?$_Const_iterator@$00@?$list@U?$pair@QAVThread@ACE_Based@@PAVSqlResultQueue@@@std@@V?$allocator@U?$pair@QAVThread@ACE_Based@@PAVSqlResultQueue@@@std@@@2@@std@@@std@@YAXV?$_Const_iterator@$00@?$list@U?$pair@QAVThread@ACE_Based@@PAVSqlResultQueue@@@std@@V?$allocator@U?$pair@QAVThread@ACE_Based@@PAVSqlResultQueue@@@std@@@2@@0@0PB_WIUinput_iterator_tag@0@@Z 0041be50 f i AuthSocket.obj
 0001:0001aeb0       ??$_Iter_cat@V?$_Vector_iterator@V?$_Iterator@$00@?$list@U?$pair@QAVThread@ACE_Based@@PAVSqlResultQueue@@@std@@V?$allocator@U?$pair@QAVThread@ACE_Based@@PAVSqlResultQueue@@@std@@@2@@std@@V?$allocator@V?$_Iterator@$00@?$list@U?$pair@QAVThread@ACE_Based@@PAVSqlResultQueue@@@std@@V?$allocator@U?$pair@QAVThread@ACE_Based@@PAVSqlResultQueue@@@std@@@2@@std@@@3@@std@@@std@@YA?AUrandom_access_iterator_tag@0@ABV?$_Vector_iterator@V?$_Iterator@$00@?$list@U?$pair@QAVThread@ACE_Based@@PAVSqlResultQueue@@@std@@V?$allocator@U?$pair@QAVThread@ACE_Based@@PAVSqlResultQueue@@@std@@@2@@std@@V?$allocator@V?$_Iterator@$00@?$list@U?$pair@QAVThread@ACE_Based@@PAVSqlResultQueue@@@std@@V?$allocator@U?$pair@QAVThread@ACE_Based@@PAVSqlResultQueue@@@std@@@2@@std@@@3@@0@@Z 0041beb0 f i AuthSocket.obj
 0001:0001af00       ??$_Debug_range2@V?$_Vector_iterator@V?$_Iterator@$00@?$list@U?$pair@QAVThread@ACE_Based@@PAVSqlResultQueue@@@std@@V?$allocator@U?$pair@QAVThread@ACE_Based@@PAVSqlResultQueue@@@std@@@2@@std@@V?$allocator@V?$_Iterator@$00@?$list@U?$pair@QAVThread@ACE_Based@@PAVSqlResultQueue@@@std@@V?$allocator@U?$pair@QAVThread@ACE_Based@@PAVSqlResultQueue@@@std@@@2@@std@@@3@@std@@@std@@YAXV?$_Vector_iterator@V?$_Iterator@$00@?$list@U?$pair@QAVThread@ACE_Based@@PAVSqlResultQueue@@@std@@V?$allocator@U?$pair@QAVThread@ACE_Based@@PAVSqlResultQueue@@@std@@@2@@std@@V?$allocator@V?$_Iterator@$00@?$list@U?$pair@QAVThread@ACE_Based@@PAVSqlResultQueue@@@std@@V?$allocator@U?$pair@QAVThread@ACE_Based@@PAVSqlResultQueue@@@std@@@2@@std@@@3@@0@0PB_WIUrandom_access_iterator_tag@0@@Z 0041bf00 f i AuthSocket.obj
 0001:0001afd0       ??$unchecked_uninitialized_copy@PAEPAEV?$allocator@E@std@@@stdext@@YAPAEPAE00AAV?$allocator@E@std@@@Z 0041bfd0 f i AuthSocket.obj
 0001:0001b040       ??$unchecked_uninitialized_copy@PAV?$_Iterator@$00@?$list@U?$pair@QAVThread@ACE_Based@@PAVSqlTransaction@@@std@@V?$allocator@U?$pair@QAVThread@ACE_Based@@PAVSqlTransaction@@@std@@@2@@std@@PAV123@V?$allocator@V?$_Iterator@$00@?$list@U?$pair@QAVThread@ACE_Based@@PAVSqlTransaction@@@std@@V?$allocator@U?$pair@QAVThread@ACE_Based@@PAVSqlTransaction@@@std@@@2@@std@@@3@@stdext@@YAPAV?$_Iterator@$00@?$list@U?$pair@QAVThread@ACE_Based@@PAVSqlTransaction@@@std@@V?$allocator@U?$pair@QAVThread@ACE_Based@@PAVSqlTransaction@@@std@@@2@@std@@PAV123@00AAV?$allocator@V?$_Iterator@$00@?$list@U?$pair@QAVThread@ACE_Based@@PAVSqlTransaction@@@std@@V?$allocator@U?$pair@QAVThread@ACE_Based@@PAVSqlTransaction@@@std@@@2@@std@@@3@@Z 0041c040 f i AuthSocket.obj
 0001:0001b0b0       ??$_Iter_cat@PAV?$_Iterator@$00@?$list@U?$pair@QAVThread@ACE_Based@@PAVSqlTransaction@@@std@@V?$allocator@U?$pair@QAVThread@ACE_Based@@PAVSqlTransaction@@@std@@@2@@std@@@std@@YA?AUrandom_access_iterator_tag@0@ABQAV?$_Iterator@$00@?$list@U?$pair@QAVThread@ACE_Based@@PAVSqlTransaction@@@std@@V?$allocator@U?$pair@QAVThread@ACE_Based@@PAVSqlTransaction@@@std@@@2@@0@@Z 0041c0b0 f i AuthSocket.obj
 0001:0001b100       ??$_Debug_range2@PAV?$_Iterator@$00@?$list@U?$pair@QAVThread@ACE_Based@@PAVSqlTransaction@@@std@@V?$allocator@U?$pair@QAVThread@ACE_Based@@PAVSqlTransaction@@@std@@@2@@std@@@std@@YAXPAV?$_Iterator@$00@?$list@U?$pair@QAVThread@ACE_Based@@PAVSqlTransaction@@@std@@V?$allocator@U?$pair@QAVThread@ACE_Based@@PAVSqlTransaction@@@std@@@2@@0@0PB_WIUrandom_access_iterator_tag@0@@Z 0041c100 f i AuthSocket.obj
 0001:0001b170       ??$_Copy_backward_opt@PAV?$_Iterator@$00@?$list@U?$pair@QAVThread@ACE_Based@@PAVSqlTransaction@@@std@@V?$allocator@U?$pair@QAVThread@ACE_Based@@PAVSqlTransaction@@@std@@@2@@std@@PAV123@Uforward_iterator_tag@3@@std@@YAPAV?$_Iterator@$00@?$list@U?$pair@QAVThread@ACE_Based@@PAVSqlTransaction@@@std@@V?$allocator@U?$pair@QAVThread@ACE_Based@@PAVSqlTransaction@@@std@@@2@@0@PAV120@00Uforward_iterator_tag@0@U_Nonscalar_ptr_iterator_tag@0@U_Range_checked_iterator_tag@0@@Z 0041c170 f i AuthSocket.obj
 0001:0001b1d0       ??$unchecked_uninitialized_copy@PAV?$_Iterator@$00@?$list@U?$pair@QAVThread@ACE_Based@@PAVSqlResultQueue@@@std@@V?$allocator@U?$pair@QAVThread@ACE_Based@@PAVSqlResultQueue@@@std@@@2@@std@@PAV123@V?$allocator@V?$_Iterator@$00@?$list@U?$pair@QAVThread@ACE_Based@@PAVSqlResultQueue@@@std@@V?$allocator@U?$pair@QAVThread@ACE_Based@@PAVSqlResultQueue@@@std@@@2@@std@@@3@@stdext@@YAPAV?$_Iterator@$00@?$list@U?$pair@QAVThread@ACE_Based@@PAVSqlResultQueue@@@std@@V?$allocator@U?$pair@QAVThread@ACE_Based@@PAVSqlResultQueue@@@std@@@2@@std@@PAV123@00AAV?$allocator@V?$_Iterator@$00@?$list@U?$pair@QAVThread@ACE_Based@@PAVSqlResultQueue@@@std@@V?$allocator@U?$pair@QAVThread@ACE_Based@@PAVSqlResultQueue@@@std@@@2@@std@@@3@@Z 0041c1d0 f i AuthSocket.obj
 0001:0001b240       ??$_Iter_cat@PAV?$_Iterator@$00@?$list@U?$pair@QAVThread@ACE_Based@@PAVSqlResultQueue@@@std@@V?$allocator@U?$pair@QAVThread@ACE_Based@@PAVSqlResultQueue@@@std@@@2@@std@@@std@@YA?AUrandom_access_iterator_tag@0@ABQAV?$_Iterator@$00@?$list@U?$pair@QAVThread@ACE_Based@@PAVSqlResultQueue@@@std@@V?$allocator@U?$pair@QAVThread@ACE_Based@@PAVSqlResultQueue@@@std@@@2@@0@@Z 0041c240 f i AuthSocket.obj
 0001:0001b290       ??$_Debug_range2@PAV?$_Iterator@$00@?$list@U?$pair@QAVThread@ACE_Based@@PAVSqlResultQueue@@@std@@V?$allocator@U?$pair@QAVThread@ACE_Based@@PAVSqlResultQueue@@@std@@@2@@std@@@std@@YAXPAV?$_Iterator@$00@?$list@U?$pair@QAVThread@ACE_Based@@PAVSqlResultQueue@@@std@@V?$allocator@U?$pair@QAVThread@ACE_Based@@PAVSqlResultQueue@@@std@@@2@@0@0PB_WIUrandom_access_iterator_tag@0@@Z 0041c290 f i AuthSocket.obj
 0001:0001b300       ??$_Copy_backward_opt@PAV?$_Iterator@$00@?$list@U?$pair@QAVThread@ACE_Based@@PAVSqlResultQueue@@@std@@V?$allocator@U?$pair@QAVThread@ACE_Based@@PAVSqlResultQueue@@@std@@@2@@std@@PAV123@Uforward_iterator_tag@3@@std@@YAPAV?$_Iterator@$00@?$list@U?$pair@QAVThread@ACE_Based@@PAVSqlResultQueue@@@std@@V?$allocator@U?$pair@QAVThread@ACE_Based@@PAVSqlResultQueue@@@std@@@2@@0@PAV120@00Uforward_iterator_tag@0@U_Nonscalar_ptr_iterator_tag@0@U_Range_checked_iterator_tag@0@@Z 0041c300 f i AuthSocket.obj
 0001:0001b360       ??$_Fill_n@PAEIE@std@@YAXPAEIABEUrandom_access_iterator_tag@0@U_Range_checked_iterator_tag@0@@Z 0041c360 f i AuthSocket.obj
 0001:0001b3c0       ??$_Construct@V?$basic_string@DU?$char_traits@D@std@@V?$allocator@D@2@@std@@V12@@std@@YAXPAV?$basic_string@DU?$char_traits@D@std@@V?$allocator@D@2@@0@ABV10@@Z 0041c3c0 f i AuthSocket.obj
 0001:0001b470       ??0?$ACE_Auto_Basic_Ptr@VQueryResult@@@@QAE@PAVQueryResult@@@Z 0041c470 f i AuthSocket.obj
 0001:0001b490       ??0?$ACE_Atomic_Op@VACE_Null_Mutex@@J@@QAE@J@Z 0041c490 f i AuthSocket.obj
 0001:0001b520       ??$_Iter_cat@V?$_Vector_const_iterator@V?$basic_string@DU?$char_traits@D@std@@V?$allocator@D@2@@std@@V?$allocator@V?$basic_string@DU?$char_traits@D@std@@V?$allocator@D@2@@std@@@2@@std@@@std@@YA?AUrandom_access_iterator_tag@0@ABV?$_Vector_const_iterator@V?$basic_string@DU?$char_traits@D@std@@V?$allocator@D@2@@std@@V?$allocator@V?$basic_string@DU?$char_traits@D@std@@V?$allocator@D@2@@std@@@2@@0@@Z 0041c520 f i AuthSocket.obj
 0001:0001b570       ??$_Debug_range2@V?$_Vector_const_iterator@V?$basic_string@DU?$char_traits@D@std@@V?$allocator@D@2@@std@@V?$allocator@V?$basic_string@DU?$char_traits@D@std@@V?$allocator@D@2@@std@@@2@@std@@@std@@YAXV?$_Vector_const_iterator@V?$basic_string@DU?$char_traits@D@std@@V?$allocator@D@2@@std@@V?$allocator@V?$basic_string@DU?$char_traits@D@std@@V?$allocator@D@2@@std@@@2@@0@0PB_WIUrandom_access_iterator_tag@0@@Z 0041c570 f i AuthSocket.obj
 0001:0001b640       ??$_Iter_cat@PAV?$basic_string@DU?$char_traits@D@std@@V?$allocator@D@2@@std@@@std@@YA?AUrandom_access_iterator_tag@0@ABQAV?$basic_string@DU?$char_traits@D@std@@V?$allocator@D@2@@0@@Z 0041c640 f i AuthSocket.obj
 0001:0001b690       ??$_Debug_range2@PAV?$basic_string@DU?$char_traits@D@std@@V?$allocator@D@2@@std@@@std@@YAXPAV?$basic_string@DU?$char_traits@D@std@@V?$allocator@D@2@@0@0PB_WIUrandom_access_iterator_tag@0@@Z 0041c690 f i AuthSocket.obj
 0001:0001b700       ??$_Ptr_cat@V?$_Vector_iterator@EV?$allocator@E@std@@@std@@PAE@std@@YA?AU_Scalar_ptr_iterator_tag@0@AAV?$_Vector_iterator@EV?$allocator@E@std@@@0@AAPAE@Z 0041c700 f i AuthSocket.obj
 0001:0001b750       ??$_Uninit_copy@V?$_Vector_iterator@EV?$allocator@E@std@@@std@@PAEV?$allocator@E@2@@std@@YAPAEV?$_Vector_iterator@EV?$allocator@E@std@@@0@0PAEAAV?$allocator@E@0@U_Scalar_ptr_iterator_tag@0@U_Range_checked_iterator_tag@0@@Z 0041c750 f i AuthSocket.obj
 0001:0001b880       ??$_Debug_pointer@V?$_Vector_iterator@V?$_Iterator@$00@?$list@U?$pair@QAVThread@ACE_Based@@PAVSqlTransaction@@@std@@V?$allocator@U?$pair@QAVThread@ACE_Based@@PAVSqlTransaction@@@std@@@2@@std@@V?$allocator@V?$_Iterator@$00@?$list@U?$pair@QAVThread@ACE_Based@@PAVSqlTransaction@@@std@@V?$allocator@U?$pair@QAVThread@ACE_Based@@PAVSqlTransaction@@@std@@@2@@std@@@3@@std@@@std@@YAXAAV?$_Vector_iterator@V?$_Iterator@$00@?$list@U?$pair@QAVThread@ACE_Based@@PAVSqlTransaction@@@std@@V?$allocator@U?$pair@QAVThread@ACE_Based@@PAVSqlTransaction@@@std@@@2@@std@@V?$allocator@V?$_Iterator@$00@?$list@U?$pair@QAVThread@ACE_Based@@PAVSqlTransaction@@@std@@V?$allocator@U?$pair@QAVThread@ACE_Based@@PAVSqlTransaction@@@std@@@2@@std@@@3@@0@PB_WI@Z 0041c880 f i AuthSocket.obj
 0001:0001b890       ??$_Debug_pointer@V?$_Vector_iterator@V?$_Iterator@$00@?$list@U?$pair@QAVThread@ACE_Based@@PAVSqlResultQueue@@@std@@V?$allocator@U?$pair@QAVThread@ACE_Based@@PAVSqlResultQueue@@@std@@@2@@std@@V?$allocator@V?$_Iterator@$00@?$list@U?$pair@QAVThread@ACE_Based@@PAVSqlResultQueue@@@std@@V?$allocator@U?$pair@QAVThread@ACE_Based@@PAVSqlResultQueue@@@std@@@2@@std@@@3@@std@@@std@@YAXAAV?$_Vector_iterator@V?$_Iterator@$00@?$list@U?$pair@QAVThread@ACE_Based@@PAVSqlResultQueue@@@std@@V?$allocator@U?$pair@QAVThread@ACE_Based@@PAVSqlResultQueue@@@std@@@2@@std@@V?$allocator@V?$_Iterator@$00@?$list@U?$pair@QAVThread@ACE_Based@@PAVSqlResultQueue@@@std@@V?$allocator@U?$pair@QAVThread@ACE_Based@@PAVSqlResultQueue@@@std@@@2@@std@@@3@@0@PB_WI@Z 0041c890 f i AuthSocket.obj
 0001:0001b8a0       ??$_Uninit_copy@PAEPAEV?$allocator@E@std@@@std@@YAPAEPAE00AAV?$allocator@E@0@U_Scalar_ptr_iterator_tag@0@U_Range_checked_iterator_tag@0@@Z 0041c8a0 f i AuthSocket.obj
 0001:0001b940       ??$_Uninit_copy@PAV?$_Iterator@$00@?$list@U?$pair@QAVThread@ACE_Based@@PAVSqlTransaction@@@std@@V?$allocator@U?$pair@QAVThread@ACE_Based@@PAVSqlTransaction@@@std@@@2@@std@@PAV123@V?$allocator@V?$_Iterator@$00@?$list@U?$pair@QAVThread@ACE_Based@@PAVSqlTransaction@@@std@@V?$allocator@U?$pair@QAVThread@ACE_Based@@PAVSqlTransaction@@@std@@@2@@std@@@3@@std@@YAPAV?$_Iterator@$00@?$list@U?$pair@QAVThread@ACE_Based@@PAVSqlTransaction@@@std@@V?$allocator@U?$pair@QAVThread@ACE_Based@@PAVSqlTransaction@@@std@@@2@@0@PAV120@00AAV?$allocator@V?$_Iterator@$00@?$list@U?$pair@QAVThread@ACE_Based@@PAVSqlTransaction@@@std@@V?$allocator@U?$pair@QAVThread@ACE_Based@@PAVSqlTransaction@@@std@@@2@@std@@@0@U_Nonscalar_ptr_iterator_tag@0@U_Range_checked_iterator_tag@0@@Z 0041c940 f i AuthSocket.obj
 0001:0001ba40       ??$_Debug_pointer@V?$_Iterator@$00@?$list@U?$pair@QAVThread@ACE_Based@@PAVSqlTransaction@@@std@@V?$allocator@U?$pair@QAVThread@ACE_Based@@PAVSqlTransaction@@@std@@@2@@std@@@std@@YAXPAV?$_Iterator@$00@?$list@U?$pair@QAVThread@ACE_Based@@PAVSqlTransaction@@@std@@V?$allocator@U?$pair@QAVThread@ACE_Based@@PAVSqlTransaction@@@std@@@2@@0@PB_WI@Z 0041ca40 f i AuthSocket.obj
 0001:0001ba80       ??$_Uninit_copy@PAV?$_Iterator@$00@?$list@U?$pair@QAVThread@ACE_Based@@PAVSqlResultQueue@@@std@@V?$allocator@U?$pair@QAVThread@ACE_Based@@PAVSqlResultQueue@@@std@@@2@@std@@PAV123@V?$allocator@V?$_Iterator@$00@?$list@U?$pair@QAVThread@ACE_Based@@PAVSqlResultQueue@@@std@@V?$allocator@U?$pair@QAVThread@ACE_Based@@PAVSqlResultQueue@@@std@@@2@@std@@@3@@std@@YAPAV?$_Iterator@$00@?$list@U?$pair@QAVThread@ACE_Based@@PAVSqlResultQueue@@@std@@V?$allocator@U?$pair@QAVThread@ACE_Based@@PAVSqlResultQueue@@@std@@@2@@0@PAV120@00AAV?$allocator@V?$_Iterator@$00@?$list@U?$pair@QAVThread@ACE_Based@@PAVSqlResultQueue@@@std@@V?$allocator@U?$pair@QAVThread@ACE_Based@@PAVSqlResultQueue@@@std@@@2@@std@@@0@U_Nonscalar_ptr_iterator_tag@0@U_Range_checked_iterator_tag@0@@Z 0041ca80 f i AuthSocket.obj
 0001:0001bb80       ??$_Debug_pointer@V?$_Iterator@$00@?$list@U?$pair@QAVThread@ACE_Based@@PAVSqlResultQueue@@@std@@V?$allocator@U?$pair@QAVThread@ACE_Based@@PAVSqlResultQueue@@@std@@@2@@std@@@std@@YAXPAV?$_Iterator@$00@?$list@U?$pair@QAVThread@ACE_Based@@PAVSqlResultQueue@@@std@@V?$allocator@U?$pair@QAVThread@ACE_Based@@PAVSqlResultQueue@@@std@@@2@@0@PB_WI@Z 0041cb80 f i AuthSocket.obj
 0001:0001bbc0       ??$_Fill_n@PAEIE@std@@YAXPAEIABEU_Range_checked_iterator_tag@0@@Z 0041cbc0 f i AuthSocket.obj
 0001:0001bbf0       ??D?$_Vector_iterator@EV?$allocator@E@std@@@std@@QBEAAEXZ 0041cbf0 f i AuthSocket.obj
 0001:0001bc20       ??D?$_Vector_const_iterator@EV?$allocator@E@std@@@std@@QBEABEXZ 0041cc20 f i AuthSocket.obj
 0001:0001bce0       ??G?$_Vector_iterator@EV?$allocator@E@std@@@std@@QBEHABV?$_Vector_const_iterator@EV?$allocator@E@std@@@1@@Z 0041cce0 f i AuthSocket.obj
 0001:0001bd10       ??G?$_Vector_const_iterator@EV?$allocator@E@std@@@std@@QBEHABV01@@Z 0041cd10 f i AuthSocket.obj
 0001:0001bd50       ??0?$ACE_Atomic_Op_Ex@VACE_Null_Mutex@@J@@QAE@AAVACE_Null_Mutex@@J@Z 0041cd50 f i AuthSocket.obj
 0001:0001bd80       ??$_Debug_pointer@V?$_Vector_const_iterator@V?$basic_string@DU?$char_traits@D@std@@V?$allocator@D@2@@std@@V?$allocator@V?$basic_string@DU?$char_traits@D@std@@V?$allocator@D@2@@std@@@2@@std@@@std@@YAXAAV?$_Vector_const_iterator@V?$basic_string@DU?$char_traits@D@std@@V?$allocator@D@2@@std@@V?$allocator@V?$basic_string@DU?$char_traits@D@std@@V?$allocator@D@2@@std@@@2@@0@PB_WI@Z 0041cd80 f i AuthSocket.obj
 0001:0001bd90       ??$_Debug_range@V?$_Vector_iterator@EV?$allocator@E@std@@@std@@@std@@YAXV?$_Vector_iterator@EV?$allocator@E@std@@@0@0PB_WI@Z 0041cd90 f i AuthSocket.obj
 0001:0001be70       ??$_Iter_cat@V?$_Vector_iterator@EV?$allocator@E@std@@@std@@@std@@YA?AUrandom_access_iterator_tag@0@ABV?$_Vector_iterator@EV?$allocator@E@std@@@0@@Z 0041ce70 f i AuthSocket.obj
 0001:0001bec0       ??$_Debug_range2@V?$_Vector_iterator@EV?$allocator@E@std@@@std@@@std@@YAXV?$_Vector_iterator@EV?$allocator@E@std@@@0@0PB_WIUrandom_access_iterator_tag@0@@Z 0041cec0 f i AuthSocket.obj
 0001:0001bf90       ??$_Debug_pointer@V?$_Vector_iterator@EV?$allocator@E@std@@@std@@@std@@YAXAAV?$_Vector_iterator@EV?$allocator@E@std@@@0@PB_WI@Z 0041cf90 f i AuthSocket.obj
 0001:0001bfa0       ?usage@@YAXPBD@Z           0041cfa0 f   Main.obj
 0001:0001bfd0       _main                      0041cfd0 f   Main.obj
 0001:0001cbd0       ?SetRealmID@Log@@QAEXI@Z   0041dbd0 f i Main.obj
 0001:0001cbf0       ?GetLogDBLater@Log@@QAE_NXZ 0041dbf0 f i Main.obj
 0001:0001cc10       ?SetLogDB@Log@@QAEX_N@Z    0041dc10 f i Main.obj
 0001:0001cc30       ?SetLogDBLater@Log@@QAEX_N@Z 0041dc30 f i Main.obj
 0001:0001cc50       ?OnSignal@@YAXH@Z          0041dc50 f   Main.obj
 0001:0001ccb0       ?StartDB@@YA_NAAV?$basic_string@DU?$char_traits@D@std@@V?$allocator@D@2@@std@@@Z 0041dcb0 f   Main.obj
 0001:0001cd60       ?HookSignals@@YAXXZ        0041dd60 f   Main.obj
 0001:0001cdc0       ?UnhookSignals@@YAXXZ      0041ddc0 f   Main.obj
 0001:0001ce10       ??0?$ListenSocket@VAuthSocket@@@@QAE@AAVISocketHandler@@_N@Z 0041de10 f i Main.obj
 0001:0001cfa0       ??1?$ListenSocket@VAuthSocket@@@@UAE@XZ 0041dfa0 f i Main.obj
 0001:0001d060       ?Close@?$ListenSocket@VAuthSocket@@@@UAEHXZ 0041e060 f i Main.obj
 0001:0001d0b0       ?Bind@?$ListenSocket@VAuthSocket@@@@QAEHABV?$basic_string@DU?$char_traits@D@std@@V?$allocator@D@2@@std@@GH@Z 0041e0b0 f i Main.obj
 0001:0001d240       ?GetPort@?$ListenSocket@VAuthSocket@@@@UAEGXZ 0041e240 f i Main.obj
 0001:0001d270       ?OnRead@?$ListenSocket@VAuthSocket@@@@UAEXXZ 0041e270 f i Main.obj
 0001:0001d810       ?Accept@?$ListenSocket@VAuthSocket@@@@UAEIIPAUsockaddr@@PAH@Z 0041e810 f i Main.obj
 0001:0001d850       ?OnOptions@?$ListenSocket@VAuthSocket@@@@UAEXHHHI@Z 0041e850 f i Main.obj
 0001:0001d880       ??_G?$ListenSocket@VAuthSocket@@@@UAEPAXI@Z 0041e880 f i Main.obj
 0001:0001d880       ??_E?$ListenSocket@VAuthSocket@@@@UAEPAXI@Z 0041e880 f i Main.obj
 0001:0001d8c0       ?Bind@?$ListenSocket@VAuthSocket@@@@QAEHAAVSocketAddress@@H@Z 0041e8c0 f i Main.obj
 0001:0001d970       ?Bind@?$ListenSocket@VAuthSocket@@@@QAEHAAVSocketAddress@@ABV?$basic_string@DU?$char_traits@D@std@@V?$allocator@D@2@@std@@H@Z 0041e970 f i Main.obj
 0001:0001dc50       ??1RealmList@@QAE@XZ       0041ec50 f i Main.obj
 0001:0001dc80       ??1?$map@V?$basic_string@DU?$char_traits@D@std@@V?$allocator@D@2@@std@@URealm@@U?$less@V?$basic_string@DU?$char_traits@D@std@@V?$allocator@D@2@@std@@@2@V?$allocator@U?$pair@$$CBV?$basic_string@DU?$char_traits@D@std@@V?$allocator@D@2@@std@@URealm@@@std@@@2@@std@@QAE@XZ 0041ec80 f i Main.obj
 0001:0001dcb0       ??1?$_Tree@V?$_Tmap_traits@V?$basic_string@DU?$char_traits@D@std@@V?$allocator@D@2@@std@@URealm@@U?$less@V?$basic_string@DU?$char_traits@D@std@@V?$allocator@D@2@@std@@@2@V?$allocator@U?$pair@$$CBV?$basic_string@DU?$char_traits@D@std@@V?$allocator@D@2@@std@@URealm@@@std@@@2@$0A@@std@@@std@@QAE@XZ 0041ecb0 f i Main.obj
 0001:0001dd20       ??1?$_Tree_val@V?$_Tmap_traits@V?$basic_string@DU?$char_traits@D@std@@V?$allocator@D@2@@std@@URealm@@U?$less@V?$basic_string@DU?$char_traits@D@std@@V?$allocator@D@2@@std@@@2@V?$allocator@U?$pair@$$CBV?$basic_string@DU?$char_traits@D@std@@V?$allocator@D@2@@std@@URealm@@@std@@@2@$0A@@std@@@std@@QAE@XZ 0041ed20 f i Main.obj
 0001:0001dd50       ??1?$_Tree_ptr@V?$_Tmap_traits@V?$basic_string@DU?$char_traits@D@std@@V?$allocator@D@2@@std@@URealm@@U?$less@V?$basic_string@DU?$char_traits@D@std@@V?$allocator@D@2@@std@@@2@V?$allocator@U?$pair@$$CBV?$basic_string@DU?$char_traits@D@std@@V?$allocator@D@2@@std@@URealm@@@std@@@2@$0A@@std@@@std@@QAE@XZ 0041ed50 f i Main.obj
 0001:0001dd80       ??1?$_Tree_nod@V?$_Tmap_traits@V?$basic_string@DU?$char_traits@D@std@@V?$allocator@D@2@@std@@URealm@@U?$less@V?$basic_string@DU?$char_traits@D@std@@V?$allocator@D@2@@std@@@2@V?$allocator@U?$pair@$$CBV?$basic_string@DU?$char_traits@D@std@@V?$allocator@D@2@@std@@URealm@@@std@@@2@$0A@@std@@@std@@QAE@XZ 0041ed80 f i Main.obj
 0001:0001ddb0       ??1?$_Tmap_traits@V?$basic_string@DU?$char_traits@D@std@@V?$allocator@D@2@@std@@URealm@@U?$less@V?$basic_string@DU?$char_traits@D@std@@V?$allocator@D@2@@std@@@2@V?$allocator@U?$pair@$$CBV?$basic_string@DU?$char_traits@D@std@@V?$allocator@D@2@@std@@URealm@@@std@@@2@$0A@@std@@QAE@XZ 0041edb0 f i Main.obj
 0001:0001dde0       ?_Tidy@?$_Tree@V?$_Tmap_traits@V?$basic_string@DU?$char_traits@D@std@@V?$allocator@D@2@@std@@URealm@@U?$less@V?$basic_string@DU?$char_traits@D@std@@V?$allocator@D@2@@std@@@2@V?$allocator@U?$pair@$$CBV?$basic_string@DU?$char_traits@D@std@@V?$allocator@D@2@@std@@URealm@@@std@@@2@$0A@@std@@@std@@IAEXXZ 0041ede0 f i Main.obj
 0001:0001df50       ??1?$_Container_base_aux_alloc_empty@V?$allocator@U?$pair@$$CBV?$basic_string@DU?$char_traits@D@std@@V?$allocator@D@2@@std@@URealm@@@std@@@std@@@std@@IAE@XZ 0041ef50 f i Main.obj
 0001:0001df80       ??1iterator@?$_Tree@V?$_Tmap_traits@V?$basic_string@DU?$char_traits@D@std@@V?$allocator@D@2@@std@@URealm@@U?$less@V?$basic_string@DU?$char_traits@D@std@@V?$allocator@D@2@@std@@@2@V?$allocator@U?$pair@$$CBV?$basic_string@DU?$char_traits@D@std@@V?$allocator@D@2@@std@@URealm@@@std@@@2@$0A@@std@@@std@@QAE@XZ 0041ef80 f i Main.obj
 0001:0001dfb0       ?begin@?$_Tree@V?$_Tmap_traits@V?$basic_string@DU?$char_traits@D@std@@V?$allocator@D@2@@std@@URealm@@U?$less@V?$basic_string@DU?$char_traits@D@std@@V?$allocator@D@2@@std@@@2@V?$allocator@U?$pair@$$CBV?$basic_string@DU?$char_traits@D@std@@V?$allocator@D@2@@std@@URealm@@@std@@@2@$0A@@std@@@std@@QAE?AViterator@12@XZ 0041efb0 f i Main.obj
 0001:0001e010       ?end@?$_Tree@V?$_Tmap_traits@V?$basic_string@DU?$char_traits@D@std@@V?$allocator@D@2@@std@@URealm@@U?$less@V?$basic_string@DU?$char_traits@D@std@@V?$allocator@D@2@@std@@@2@V?$allocator@U?$pair@$$CBV?$basic_string@DU?$char_traits@D@std@@V?$allocator@D@2@@std@@URealm@@@std@@@2@$0A@@std@@@std@@QAE?AViterator@12@XZ 0041f010 f i Main.obj
 0001:0001e060       ?erase@?$_Tree@V?$_Tmap_traits@V?$basic_string@DU?$char_traits@D@std@@V?$allocator@D@2@@std@@URealm@@U?$less@V?$basic_string@DU?$char_traits@D@std@@V?$allocator@D@2@@std@@@2@V?$allocator@U?$pair@$$CBV?$basic_string@DU?$char_traits@D@std@@V?$allocator@D@2@@std@@URealm@@@std@@@2@$0A@@std@@@std@@QAE?AViterator@12@Vconst_iterator@12@0@Z 0041f060 f i Main.obj
 0001:0001e270       ?deallocate@?$allocator@U_Node@?$_Tree_nod@V?$_Tmap_traits@V?$basic_string@DU?$char_traits@D@std@@V?$allocator@D@2@@std@@URealm@@U?$less@V?$basic_string@DU?$char_traits@D@std@@V?$allocator@D@2@@std@@@2@V?$allocator@U?$pair@$$CBV?$basic_string@DU?$char_traits@D@std@@V?$allocator@D@2@@std@@URealm@@@std@@@2@$0A@@std@@@std@@@std@@QAEXPAU_Node@?$_Tree_nod@V?$_Tmap_traits@V?$basic_string@DU?$char_traits@D@std@@V?$allocator@D@2@@std@@URealm@@U?$less@V?$basic_string@DU?$char_traits@D@std@@V?$allocator@D@2@@std@@@2@V?$allocator@U?$pair@$$CBV?$basic_string@DU?$char_traits@D@std@@V?$allocator@D@2@@std@@URealm@@@std@@@2@$0A@@std@@@2@I@Z 0041f270 f i Main.obj
 0001:0001e2a0       ?destroy@?$allocator@PAU_Node@?$_Tree_nod@V?$_Tmap_traits@V?$basic_string@DU?$char_traits@D@std@@V?$allocator@D@2@@std@@URealm@@U?$less@V?$basic_string@DU?$char_traits@D@std@@V?$allocator@D@2@@std@@@2@V?$allocator@U?$pair@$$CBV?$basic_string@DU?$char_traits@D@std@@V?$allocator@D@2@@std@@URealm@@@std@@@2@$0A@@std@@@std@@@std@@QAEXPAPAU_Node@?$_Tree_nod@V?$_Tmap_traits@V?$basic_string@DU?$char_traits@D@std@@V?$allocator@D@2@@std@@URealm@@U?$less@V?$basic_string@DU?$char_traits@D@std@@V?$allocator@D@2@@std@@@2@V?$allocator@U?$pair@$$CBV?$basic_string@DU?$char_traits@D@std@@V?$allocator@D@2@@std@@URealm@@@std@@@2@$0A@@std@@@2@@Z 0041f2a0 f i Main.obj
 0001:0001e2d0       ?_Make_iter@?$_Tree@V?$_Tmap_traits@V?$basic_string@DU?$char_traits@D@std@@V?$allocator@D@2@@std@@URealm@@U?$less@V?$basic_string@DU?$char_traits@D@std@@V?$allocator@D@2@@std@@@2@V?$allocator@U?$pair@$$CBV?$basic_string@DU?$char_traits@D@std@@V?$allocator@D@2@@std@@URealm@@@std@@@2@$0A@@std@@@std@@QBE?AViterator@12@Vconst_iterator@12@@Z 0041f2d0 f i Main.obj
 0001:0001e390       ?erase@?$_Tree@V?$_Tmap_traits@V?$basic_string@DU?$char_traits@D@std@@V?$allocator@D@2@@std@@URealm@@U?$less@V?$basic_string@DU?$char_traits@D@std@@V?$allocator@D@2@@std@@@2@V?$allocator@U?$pair@$$CBV?$basic_string@DU?$char_traits@D@std@@V?$allocator@D@2@@std@@URealm@@@std@@@2@$0A@@std@@@std@@QAE?AViterator@12@Vconst_iterator@12@@Z 0041f390 f i Main.obj
 0001:0001ebb0       ?clear@?$_Tree@V?$_Tmap_traits@V?$basic_string@DU?$char_traits@D@std@@V?$allocator@D@2@@std@@URealm@@U?$less@V?$basic_string@DU?$char_traits@D@std@@V?$allocator@D@2@@std@@@2@V?$allocator@U?$pair@$$CBV?$basic_string@DU?$char_traits@D@std@@V?$allocator@D@2@@std@@URealm@@@std@@@2@$0A@@std@@@std@@QAEXXZ 0041fbb0 f i Main.obj
 0001:0001ec30       ??0iterator@?$_Tree@V?$_Tmap_traits@V?$basic_string@DU?$char_traits@D@std@@V?$allocator@D@2@@std@@URealm@@U?$less@V?$basic_string@DU?$char_traits@D@std@@V?$allocator@D@2@@std@@@2@V?$allocator@U?$pair@$$CBV?$basic_string@DU?$char_traits@D@std@@V?$allocator@D@2@@std@@URealm@@@std@@@2@$0A@@std@@@std@@QAE@PAU_Node@?$_Tree_nod@V?$_Tmap_traits@V?$basic_string@DU?$char_traits@D@std@@V?$allocator@D@2@@std@@URealm@@U?$less@V?$basic_string@DU?$char_traits@D@std@@V?$allocator@D@2@@std@@@2@V?$allocator@U?$pair@$$CBV?$basic_string@DU?$char_traits@D@std@@V?$allocator@D@2@@std@@URealm@@@std@@@2@$0A@@std@@@2@PBV12@@Z 0041fc30 f i Main.obj
 0001:0001ec70       ??0iterator@?$_Tree@V?$_Tmap_traits@V?$basic_string@DU?$char_traits@D@std@@V?$allocator@D@2@@std@@URealm@@U?$less@V?$basic_string@DU?$char_traits@D@std@@V?$allocator@D@2@@std@@@2@V?$allocator@U?$pair@$$CBV?$basic_string@DU?$char_traits@D@std@@V?$allocator@D@2@@std@@URealm@@@std@@@2@$0A@@std@@@std@@QAE@ABV012@@Z 0041fc70 f i Main.obj
 0001:0001eca0       ?_Color@?$_Tree@V?$_Tmap_traits@V?$basic_string@DU?$char_traits@D@std@@V?$allocator@D@2@@std@@URealm@@U?$less@V?$basic_string@DU?$char_traits@D@std@@V?$allocator@D@2@@std@@@2@V?$allocator@U?$pair@$$CBV?$basic_string@DU?$char_traits@D@std@@V?$allocator@D@2@@std@@URealm@@@std@@@2@$0A@@std@@@std@@KAAADPAU_Node@?$_Tree_nod@V?$_Tmap_traits@V?$basic_string@DU?$char_traits@D@std@@V?$allocator@D@2@@std@@URealm@@U?$less@V?$basic_string@DU?$char_traits@D@std@@V?$allocator@D@2@@std@@@2@V?$allocator@U?$pair@$$CBV?$basic_string@DU?$char_traits@D@std@@V?$allocator@D@2@@std@@URealm@@@std@@@2@$0A@@std@@@2@@Z 0041fca0 f i Main.obj
 0001:0001ecb0       ?_Erase@?$_Tree@V?$_Tmap_traits@V?$basic_string@DU?$char_traits@D@std@@V?$allocator@D@2@@std@@URealm@@U?$less@V?$basic_string@DU?$char_traits@D@std@@V?$allocator@D@2@@std@@@2@V?$allocator@U?$pair@$$CBV?$basic_string@DU?$char_traits@D@std@@V?$allocator@D@2@@std@@URealm@@@std@@@2@$0A@@std@@@std@@IAEXPAU_Node@?$_Tree_nod@V?$_Tmap_traits@V?$basic_string@DU?$char_traits@D@std@@V?$allocator@D@2@@std@@URealm@@U?$less@V?$basic_string@DU?$char_traits@D@std@@V?$allocator@D@2@@std@@@2@V?$allocator@U?$pair@$$CBV?$basic_string@DU?$char_traits@D@std@@V?$allocator@D@2@@std@@URealm@@@std@@@2@$0A@@std@@@2@@Z 0041fcb0 f i Main.obj
 0001:0001ed50       ?_Lrotate@?$_Tree@V?$_Tmap_traits@V?$basic_string@DU?$char_traits@D@std@@V?$allocator@D@2@@std@@URealm@@U?$less@V?$basic_string@DU?$char_traits@D@std@@V?$allocator@D@2@@std@@@2@V?$allocator@U?$pair@$$CBV?$basic_string@DU?$char_traits@D@std@@V?$allocator@D@2@@std@@URealm@@@std@@@2@$0A@@std@@@std@@IAEXPAU_Node@?$_Tree_nod@V?$_Tmap_traits@V?$basic_string@DU?$char_traits@D@std@@V?$allocator@D@2@@std@@URealm@@U?$less@V?$basic_string@DU?$char_traits@D@std@@V?$allocator@D@2@@std@@@2@V?$allocator@U?$pair@$$CBV?$basic_string@DU?$char_traits@D@std@@V?$allocator@D@2@@std@@URealm@@@std@@@2@$0A@@std@@@2@@Z 0041fd50 f i Main.obj
 0001:0001eea0       ?_Max@?$_Tree@V?$_Tmap_traits@V?$basic_string@DU?$char_traits@D@std@@V?$allocator@D@2@@std@@URealm@@U?$less@V?$basic_string@DU?$char_traits@D@std@@V?$allocator@D@2@@std@@@2@V?$allocator@U?$pair@$$CBV?$basic_string@DU?$char_traits@D@std@@V?$allocator@D@2@@std@@URealm@@@std@@@2@$0A@@std@@@std@@KAPAU_Node@?$_Tree_nod@V?$_Tmap_traits@V?$basic_string@DU?$char_traits@D@std@@V?$allocator@D@2@@std@@URealm@@U?$less@V?$basic_string@DU?$char_traits@D@std@@V?$allocator@D@2@@std@@@2@V?$allocator@U?$pair@$$CBV?$basic_string@DU?$char_traits@D@std@@V?$allocator@D@2@@std@@URealm@@@std@@@2@$0A@@std@@@2@PAU342@@Z 0041fea0 f i Main.obj
 0001:0001eee0       ?_Rmost@?$_Tree@V?$_Tmap_traits@V?$basic_string@DU?$char_traits@D@std@@V?$allocator@D@2@@std@@URealm@@U?$less@V?$basic_string@DU?$char_traits@D@std@@V?$allocator@D@2@@std@@@2@V?$allocator@U?$pair@$$CBV?$basic_string@DU?$char_traits@D@std@@V?$allocator@D@2@@std@@URealm@@@std@@@2@$0A@@std@@@std@@IBEAAPAU_Node@?$_Tree_nod@V?$_Tmap_traits@V?$basic_string@DU?$char_traits@D@std@@V?$allocator@D@2@@std@@URealm@@U?$less@V?$basic_string@DU?$char_traits@D@std@@V?$allocator@D@2@@std@@@2@V?$allocator@U?$pair@$$CBV?$basic_string@DU?$char_traits@D@std@@V?$allocator@D@2@@std@@URealm@@@std@@@2@$0A@@std@@@2@XZ 0041fee0 f i Main.obj
 0001:0001ef10       ?_Root@?$_Tree@V?$_Tmap_traits@V?$basic_string@DU?$char_traits@D@std@@V?$allocator@D@2@@std@@URealm@@U?$less@V?$basic_string@DU?$char_traits@D@std@@V?$allocator@D@2@@std@@@2@V?$allocator@U?$pair@$$CBV?$basic_string@DU?$char_traits@D@std@@V?$allocator@D@2@@std@@URealm@@@std@@@2@$0A@@std@@@std@@IBEAAPAU_Node@?$_Tree_nod@V?$_Tmap_traits@V?$basic_string@DU?$char_traits@D@std@@V?$allocator@D@2@@std@@URealm@@U?$less@V?$basic_string@DU?$char_traits@D@std@@V?$allocator@D@2@@std@@@2@V?$allocator@U?$pair@$$CBV?$basic_string@DU?$char_traits@D@std@@V?$allocator@D@2@@std@@URealm@@@std@@@2@$0A@@std@@@2@XZ 0041ff10 f i Main.obj
 0001:0001ef40       ?_Rrotate@?$_Tree@V?$_Tmap_traits@V?$basic_string@DU?$char_traits@D@std@@V?$allocator@D@2@@std@@URealm@@U?$less@V?$basic_string@DU?$char_traits@D@std@@V?$allocator@D@2@@std@@@2@V?$allocator@U?$pair@$$CBV?$basic_string@DU?$char_traits@D@std@@V?$allocator@D@2@@std@@URealm@@@std@@@2@$0A@@std@@@std@@IAEXPAU_Node@?$_Tree_nod@V?$_Tmap_traits@V?$basic_string@DU?$char_traits@D@std@@V?$allocator@D@2@@std@@URealm@@U?$less@V?$basic_string@DU?$char_traits@D@std@@V?$allocator@D@2@@std@@@2@V?$allocator@U?$pair@$$CBV?$basic_string@DU?$char_traits@D@std@@V?$allocator@D@2@@std@@URealm@@@std@@@2@$0A@@std@@@2@@Z 0041ff40 f i Main.obj
 0001:0001f090       ?_Orphan_ptr@?$_Tree@V?$_Tmap_traits@V?$basic_string@DU?$char_traits@D@std@@V?$allocator@D@2@@std@@URealm@@U?$less@V?$basic_string@DU?$char_traits@D@std@@V?$allocator@D@2@@std@@@2@V?$allocator@U?$pair@$$CBV?$basic_string@DU?$char_traits@D@std@@V?$allocator@D@2@@std@@URealm@@@std@@@2@$0A@@std@@@std@@IBEXAAV12@PAU_Node@?$_Tree_nod@V?$_Tmap_traits@V?$basic_string@DU?$char_traits@D@std@@V?$allocator@D@2@@std@@URealm@@U?$less@V?$basic_string@DU?$char_traits@D@std@@V?$allocator@D@2@@std@@@2@V?$allocator@U?$pair@$$CBV?$basic_string@DU?$char_traits@D@std@@V?$allocator@D@2@@std@@URealm@@@std@@@2@$0A@@std@@@2@@Z 00420090 f i Main.obj
 0001:0001f170       ?destroy@?$allocator@U_Node@?$_Tree_nod@V?$_Tmap_traits@V?$basic_string@DU?$char_traits@D@std@@V?$allocator@D@2@@std@@URealm@@U?$less@V?$basic_string@DU?$char_traits@D@std@@V?$allocator@D@2@@std@@@2@V?$allocator@U?$pair@$$CBV?$basic_string@DU?$char_traits@D@std@@V?$allocator@D@2@@std@@URealm@@@std@@@2@$0A@@std@@@std@@@std@@QAEXPAU_Node@?$_Tree_nod@V?$_Tmap_traits@V?$basic_string@DU?$char_traits@D@std@@V?$allocator@D@2@@std@@URealm@@U?$less@V?$basic_string@DU?$char_traits@D@std@@V?$allocator@D@2@@std@@@2@V?$allocator@U?$pair@$$CBV?$basic_string@DU?$char_traits@D@std@@V?$allocator@D@2@@std@@URealm@@@std@@@2@$0A@@std@@@2@@Z 00420170 f i Main.obj
 0001:0001f1a0       ?_Mynode@const_iterator@?$_Tree@V?$_Tmap_traits@V?$basic_string@DU?$char_traits@D@std@@V?$allocator@D@2@@std@@URealm@@U?$less@V?$basic_string@DU?$char_traits@D@std@@V?$allocator@D@2@@std@@@2@V?$allocator@U?$pair@$$CBV?$basic_string@DU?$char_traits@D@std@@V?$allocator@D@2@@std@@URealm@@@std@@@2@$0A@@std@@@std@@QBEPAU_Node@?$_Tree_nod@V?$_Tmap_traits@V?$basic_string@DU?$char_traits@D@std@@V?$allocator@D@2@@std@@URealm@@U?$less@V?$basic_string@DU?$char_traits@D@std@@V?$allocator@D@2@@std@@@2@V?$allocator@U?$pair@$$CBV?$basic_string@DU?$char_traits@D@std@@V?$allocator@D@2@@std@@URealm@@@std@@@2@$0A@@std@@@3@XZ 004201a0 f i Main.obj
 0001:0001f1c0       ??$_Destroy@PAU_Node@?$_Tree_nod@V?$_Tmap_traits@V?$basic_string@DU?$char_traits@D@std@@V?$allocator@D@2@@std@@URealm@@U?$less@V?$basic_string@DU?$char_traits@D@std@@V?$allocator@D@2@@std@@@2@V?$allocator@U?$pair@$$CBV?$basic_string@DU?$char_traits@D@std@@V?$allocator@D@2@@std@@URealm@@@std@@@2@$0A@@std@@@std@@@std@@YAXPAPAU_Node@?$_Tree_nod@V?$_Tmap_traits@V?$basic_string@DU?$char_traits@D@std@@V?$allocator@D@2@@std@@URealm@@U?$less@V?$basic_string@DU?$char_traits@D@std@@V?$allocator@D@2@@std@@@2@V?$allocator@U?$pair@$$CBV?$basic_string@DU?$char_traits@D@std@@V?$allocator@D@2@@std@@URealm@@@std@@@2@$0A@@std@@@0@@Z 004201c0 f i Main.obj
 0001:0001f1d0       ??$_Destroy@U_Node@?$_Tree_nod@V?$_Tmap_traits@V?$basic_string@DU?$char_traits@D@std@@V?$allocator@D@2@@std@@URealm@@U?$less@V?$basic_string@DU?$char_traits@D@std@@V?$allocator@D@2@@std@@@2@V?$allocator@U?$pair@$$CBV?$basic_string@DU?$char_traits@D@std@@V?$allocator@D@2@@std@@URealm@@@std@@@2@$0A@@std@@@std@@@std@@YAXPAU_Node@?$_Tree_nod@V?$_Tmap_traits@V?$basic_string@DU?$char_traits@D@std@@V?$allocator@D@2@@std@@URealm@@U?$less@V?$basic_string@DU?$char_traits@D@std@@V?$allocator@D@2@@std@@@2@V?$allocator@U?$pair@$$CBV?$basic_string@DU?$char_traits@D@std@@V?$allocator@D@2@@std@@URealm@@@std@@@2@$0A@@std@@@0@@Z 004201d0 f i Main.obj
 0001:0001f1f0       ??_G_Node@?$_Tree_nod@V?$_Tmap_traits@V?$basic_string@DU?$char_traits@D@std@@V?$allocator@D@2@@std@@URealm@@U?$less@V?$basic_string@DU?$char_traits@D@std@@V?$allocator@D@2@@std@@@2@V?$allocator@U?$pair@$$CBV?$basic_string@DU?$char_traits@D@std@@V?$allocator@D@2@@std@@URealm@@@std@@@2@$0A@@std@@@std@@QAEPAXI@Z 004201f0 f i Main.obj
 0001:0001f230       ??1_Node@?$_Tree_nod@V?$_Tmap_traits@V?$basic_string@DU?$char_traits@D@std@@V?$allocator@D@2@@std@@URealm@@U?$less@V?$basic_string@DU?$char_traits@D@std@@V?$allocator@D@2@@std@@@2@V?$allocator@U?$pair@$$CBV?$basic_string@DU?$char_traits@D@std@@V?$allocator@D@2@@std@@URealm@@@std@@@2@$0A@@std@@@std@@QAE@XZ 00420230 f i Main.obj
 0001:0001f260       ??1?$pair@$$CBV?$basic_string@DU?$char_traits@D@std@@V?$allocator@D@2@@std@@URealm@@@std@@QAE@XZ 00420260 f i Main.obj
 0001:0001f2e0       ??1Realm@@QAE@XZ           004202e0 f i Main.obj
 0001:0001f360       ??0RealmList@@QAE@XZ       00420360 f   RealmList.obj
 0001:0001f3e0       ?Initialize@RealmList@@QAEXI@Z 004203e0 f   RealmList.obj
 0001:0001f420       ?UpdateRealm@RealmList@@AAEXIABV?$basic_string@DU?$char_traits@D@std@@V?$allocator@D@2@@std@@0IEEEW4AccountTypes@@M@Z 00420420 f   RealmList.obj
 0001:0001f5f0       ?UpdateIfNeed@RealmList@@QAEXXZ 004205f0 f   RealmList.obj
 0001:0001f690       ?UpdateRealms@RealmList@@AAEX_N@Z 00420690 f   RealmList.obj
 0001:0001f8c0       ?GetFloat@Field@@QBEMXZ    004208c0 f i RealmList.obj
 0001:0001f920       ??0?$map@V?$basic_string@DU?$char_traits@D@std@@V?$allocator@D@2@@std@@URealm@@U?$less@V?$basic_string@DU?$char_traits@D@std@@V?$allocator@D@2@@std@@@2@V?$allocator@U?$pair@$$CBV?$basic_string@DU?$char_traits@D@std@@V?$allocator@D@2@@std@@URealm@@@std@@@2@@std@@QAE@XZ 00420920 f i RealmList.obj
 0001:0001f960       ??A?$map@V?$basic_string@DU?$char_traits@D@std@@V?$allocator@D@2@@std@@URealm@@U?$less@V?$basic_string@DU?$char_traits@D@std@@V?$allocator@D@2@@std@@@2@V?$allocator@U?$pair@$$CBV?$basic_string@DU?$char_traits@D@std@@V?$allocator@D@2@@std@@URealm@@@std@@@2@@std@@QAEAAURealm@@ABV?$basic_string@DU?$char_traits@D@std@@V?$allocator@D@2@@1@@Z 00420960 f i RealmList.obj
 0001:0001fbc0       ??0?$Singleton@VRealmList@@V?$SingleThreaded@VRealmList@@@Neo@@V?$OperatorNew@VRealmList@@@3@V?$ObjectLifeTime@VRealmList@@@3@@Neo@@IAE@XZ 00420bc0 f i RealmList.obj
 0001:0001fbe0       ??0Realm@@QAE@XZ           00420be0 f i RealmList.obj
 0001:0001fc90       ??4iterator@?$_Tree@V?$_Tmap_traits@V?$basic_string@DU?$char_traits@D@std@@V?$allocator@D@2@@std@@URealm@@U?$less@V?$basic_string@DU?$char_traits@D@std@@V?$allocator@D@2@@std@@@2@V?$allocator@U?$pair@$$CBV?$basic_string@DU?$char_traits@D@std@@V?$allocator@D@2@@std@@URealm@@@std@@@2@$0A@@std@@@std@@QAEAAV012@ABV012@@Z 00420c90 f i RealmList.obj
 0001:0001fcc0       ?_Key@?$_Tree@V?$_Tmap_traits@V?$basic_string@DU?$char_traits@D@std@@V?$allocator@D@2@@std@@URealm@@U?$less@V?$basic_string@DU?$char_traits@D@std@@V?$allocator@D@2@@std@@@2@V?$allocator@U?$pair@$$CBV?$basic_string@DU?$char_traits@D@std@@V?$allocator@D@2@@std@@URealm@@@std@@@2@$0A@@std@@@std@@KAABV?$basic_string@DU?$char_traits@D@std@@V?$allocator@D@2@@2@PAU_Node@?$_Tree_nod@V?$_Tmap_traits@V?$basic_string@DU?$char_traits@D@std@@V?$allocator@D@2@@std@@URealm@@U?$less@V?$basic_string@DU?$char_traits@D@std@@V?$allocator@D@2@@std@@@2@V?$allocator@U?$pair@$$CBV?$basic_string@DU?$char_traits@D@std@@V?$allocator@D@2@@std@@URealm@@@std@@@2@$0A@@std@@@2@@Z 00420cc0 f i RealmList.obj
 0001:0001fcf0       ??0?$_Tree@V?$_Tmap_traits@V?$basic_string@DU?$char_traits@D@std@@V?$allocator@D@2@@std@@URealm@@U?$less@V?$basic_string@DU?$char_traits@D@std@@V?$allocator@D@2@@std@@@2@V?$allocator@U?$pair@$$CBV?$basic_string@DU?$char_traits@D@std@@V?$allocator@D@2@@std@@URealm@@@std@@@2@$0A@@std@@@std@@QAE@ABU?$less@V?$basic_string@DU?$char_traits@D@std@@V?$allocator@D@2@@std@@@1@ABV?$allocator@U?$pair@$$CBV?$basic_string@DU?$char_traits@D@std@@V?$allocator@D@2@@std@@URealm@@@std@@@1@@Z 00420cf0 f i RealmList.obj
 0001:0001fd80       ?insert@?$_Tree@V?$_Tmap_traits@V?$basic_string@DU?$char_traits@D@std@@V?$allocator@D@2@@std@@URealm@@U?$less@V?$basic_string@DU?$char_traits@D@std@@V?$allocator@D@2@@std@@@2@V?$allocator@U?$pair@$$CBV?$basic_string@DU?$char_traits@D@std@@V?$allocator@D@2@@std@@URealm@@@std@@@2@$0A@@std@@@std@@QAE?AViterator@12@Vconst_iterator@12@ABU?$pair@$$CBV?$basic_string@DU?$char_traits@D@std@@V?$allocator@D@2@@std@@URealm@@@2@@Z 00420d80 f i RealmList.obj
 0001:00020920       ?lower_bound@?$_Tree@V?$_Tmap_traits@V?$basic_string@DU?$char_traits@D@std@@V?$allocator@D@2@@std@@URealm@@U?$less@V?$basic_string@DU?$char_traits@D@std@@V?$allocator@D@2@@std@@@2@V?$allocator@U?$pair@$$CBV?$basic_string@DU?$char_traits@D@std@@V?$allocator@D@2@@std@@URealm@@@std@@@2@$0A@@std@@@std@@QAE?AViterator@12@ABV?$basic_string@DU?$char_traits@D@std@@V?$allocator@D@2@@2@@Z 00421920 f i RealmList.obj
 0001:00020980       ??0?$allocator@U?$pair@$$CBV?$basic_string@DU?$char_traits@D@std@@V?$allocator@D@2@@std@@URealm@@@std@@@std@@QAE@XZ 00421980 f i RealmList.obj
 0001:000209a0       ??Diterator@?$_Tree@V?$_Tmap_traits@V?$basic_string@DU?$char_traits@D@std@@V?$allocator@D@2@@std@@URealm@@U?$less@V?$basic_string@DU?$char_traits@D@std@@V?$allocator@D@2@@std@@@2@V?$allocator@U?$pair@$$CBV?$basic_string@DU?$char_traits@D@std@@V?$allocator@D@2@@std@@URealm@@@std@@@2@$0A@@std@@@std@@QBEAAU?$pair@$$CBV?$basic_string@DU?$char_traits@D@std@@V?$allocator@D@2@@std@@URealm@@@2@XZ 004219a0 f i RealmList.obj
 0001:000209d0       ??0?$pair@$$CBV?$basic_string@DU?$char_traits@D@std@@V?$allocator@D@2@@std@@URealm@@@std@@QAE@ABV?$basic_string@DU?$char_traits@D@std@@V?$allocator@D@2@@1@ABURealm@@@Z 004219d0 f i RealmList.obj
 0001:00020a50       ??1?$pair@Viterator@?$_Tree@V?$_Tmap_traits@V?$basic_string@DU?$char_traits@D@std@@V?$allocator@D@2@@std@@URealm@@U?$less@V?$basic_string@DU?$char_traits@D@std@@V?$allocator@D@2@@std@@@2@V?$allocator@U?$pair@$$CBV?$basic_string@DU?$char_traits@D@std@@V?$allocator@D@2@@std@@URealm@@@std@@@2@$0A@@std@@@std@@_N@std@@QAE@XZ 00421a50 f i RealmList.obj
 0001:00020a80       ??0Realm@@QAE@ABU0@@Z      00421a80 f i RealmList.obj
 0001:00020b60       ?insert@?$_Tree@V?$_Tmap_traits@V?$basic_string@DU?$char_traits@D@std@@V?$allocator@D@2@@std@@URealm@@U?$less@V?$basic_string@DU?$char_traits@D@std@@V?$allocator@D@2@@std@@@2@V?$allocator@U?$pair@$$CBV?$basic_string@DU?$char_traits@D@std@@V?$allocator@D@2@@std@@URealm@@@std@@@2@$0A@@std@@@std@@QAE?AU?$pair@Viterator@?$_Tree@V?$_Tmap_traits@V?$basic_string@DU?$char_traits@D@std@@V?$allocator@D@2@@std@@URealm@@U?$less@V?$basic_string@DU?$char_traits@D@std@@V?$allocator@D@2@@std@@@2@V?$allocator@U?$pair@$$CBV?$basic_string@DU?$char_traits@D@std@@V?$allocator@D@2@@std@@URealm@@@std@@@2@$0A@@std@@@std@@_N@2@ABU?$pair@$$CBV?$basic_string@DU?$char_traits@D@std@@V?$allocator@D@2@@std@@URealm@@@2@@Z 00421b60 f i RealmList.obj
 0001:00020ed0       ?_Init@?$_Tree@V?$_Tmap_traits@V?$basic_string@DU?$char_traits@D@std@@V?$allocator@D@2@@std@@URealm@@U?$less@V?$basic_string@DU?$char_traits@D@std@@V?$allocator@D@2@@std@@@2@V?$allocator@U?$pair@$$CBV?$basic_string@DU?$char_traits@D@std@@V?$allocator@D@2@@std@@URealm@@@std@@@2@$0A@@std@@@std@@IAEXXZ 00421ed0 f i RealmList.obj
 0001:00020f50       ?_Insert@?$_Tree@V?$_Tmap_traits@V?$basic_string@DU?$char_traits@D@std@@V?$allocator@D@2@@std@@URealm@@U?$less@V?$basic_string@DU?$char_traits@D@std@@V?$allocator@D@2@@std@@@2@V?$allocator@U?$pair@$$CBV?$basic_string@DU?$char_traits@D@std@@V?$allocator@D@2@@std@@URealm@@@std@@@2@$0A@@std@@@std@@IAE?AViterator@12@_NPAU_Node@?$_Tree_nod@V?$_Tmap_traits@V?$basic_string@DU?$char_traits@D@std@@V?$allocator@D@2@@std@@URealm@@U?$less@V?$basic_string@DU?$char_traits@D@std@@V?$allocator@D@2@@std@@@2@V?$allocator@U?$pair@$$CBV?$basic_string@DU?$char_traits@D@std@@V?$allocator@D@2@@std@@URealm@@@std@@@2@$0A@@std@@@2@ABU?$pair@$$CBV?$basic_string@DU?$char_traits@D@std@@V?$allocator@D@2@@std@@URealm@@@2@@Z 00421f50 f i RealmList.obj
 0001:00021410       ?_Lbound@?$_Tree@V?$_Tmap_traits@V?$basic_string@DU?$char_traits@D@std@@V?$allocator@D@2@@std@@URealm@@U?$less@V?$basic_string@DU?$char_traits@D@std@@V?$allocator@D@2@@std@@@2@V?$allocator@U?$pair@$$CBV?$basic_string@DU?$char_traits@D@std@@V?$allocator@D@2@@std@@URealm@@@std@@@2@$0A@@std@@@std@@IBEPAU_Node@?$_Tree_nod@V?$_Tmap_traits@V?$basic_string@DU?$char_traits@D@std@@V?$allocator@D@2@@std@@URealm@@U?$less@V?$basic_string@DU?$char_traits@D@std@@V?$allocator@D@2@@std@@@2@V?$allocator@U?$pair@$$CBV?$basic_string@DU?$char_traits@D@std@@V?$allocator@D@2@@std@@URealm@@@std@@@2@$0A@@std@@@2@ABV?$basic_string@DU?$char_traits@D@std@@V?$allocator@D@2@@2@@Z 00422410 f i RealmList.obj
 0001:000214d0       ??0?$_Tree_val@V?$_Tmap_traits@V?$basic_string@DU?$char_traits@D@std@@V?$allocator@D@2@@std@@URealm@@U?$less@V?$basic_string@DU?$char_traits@D@std@@V?$allocator@D@2@@std@@@2@V?$allocator@U?$pair@$$CBV?$basic_string@DU?$char_traits@D@std@@V?$allocator@D@2@@std@@URealm@@@std@@@2@$0A@@std@@@std@@IAE@ABU?$less@V?$basic_string@DU?$char_traits@D@std@@V?$allocator@D@2@@std@@@1@V?$allocator@U?$pair@$$CBV?$basic_string@DU?$char_traits@D@std@@V?$allocator@D@2@@std@@URealm@@@std@@@1@@Z 004224d0 f i RealmList.obj
 0001:00021530       ?_Kfn@?$_Tmap_traits@V?$basic_string@DU?$char_traits@D@std@@V?$allocator@D@2@@std@@URealm@@U?$less@V?$basic_string@DU?$char_traits@D@std@@V?$allocator@D@2@@std@@@2@V?$allocator@U?$pair@$$CBV?$basic_string@DU?$char_traits@D@std@@V?$allocator@D@2@@std@@URealm@@@std@@@2@$0A@@std@@SAABV?$basic_string@DU?$char_traits@D@std@@V?$allocator@D@2@@2@ABU?$pair@$$CBV?$basic_string@DU?$char_traits@D@std@@V?$allocator@D@2@@std@@URealm@@@2@@Z 00422530 f i RealmList.obj
 0001:00021540       ??0?$allocator@U?$pair@$$CBV?$basic_string@DU?$char_traits@D@std@@V?$allocator@D@2@@std@@URealm@@@std@@@std@@QAE@ABV01@@Z 00422540 f i RealmList.obj
 0001:00021560       ??Fconst_iterator@?$_Tree@V?$_Tmap_traits@V?$basic_string@DU?$char_traits@D@std@@V?$allocator@D@2@@std@@URealm@@U?$less@V?$basic_string@DU?$char_traits@D@std@@V?$allocator@D@2@@std@@@2@V?$allocator@U?$pair@$$CBV?$basic_string@DU?$char_traits@D@std@@V?$allocator@D@2@@std@@URealm@@@std@@@2@$0A@@std@@@std@@QAEAAV012@XZ 00422560 f i RealmList.obj
 0001:00021590       ?max_size@?$_Tree@V?$_Tmap_traits@V?$basic_string@DU?$char_traits@D@std@@V?$allocator@D@2@@std@@URealm@@U?$less@V?$basic_string@DU?$char_traits@D@std@@V?$allocator@D@2@@std@@@2@V?$allocator@U?$pair@$$CBV?$basic_string@DU?$char_traits@D@std@@V?$allocator@D@2@@std@@URealm@@@std@@@2@$0A@@std@@@std@@QBEIXZ 00422590 f i RealmList.obj
 0001:000215c0       ?_Buynode@?$_Tree@V?$_Tmap_traits@V?$basic_string@DU?$char_traits@D@std@@V?$allocator@D@2@@std@@URealm@@U?$less@V?$basic_string@DU?$char_traits@D@std@@V?$allocator@D@2@@std@@@2@V?$allocator@U?$pair@$$CBV?$basic_string@DU?$char_traits@D@std@@V?$allocator@D@2@@std@@URealm@@@std@@@2@$0A@@std@@@std@@IAEPAU_Node@?$_Tree_nod@V?$_Tmap_traits@V?$basic_string@DU?$char_traits@D@std@@V?$allocator@D@2@@std@@URealm@@U?$less@V?$basic_string@DU?$char_traits@D@std@@V?$allocator@D@2@@std@@@2@V?$allocator@U?$pair@$$CBV?$basic_string@DU?$char_traits@D@std@@V?$allocator@D@2@@std@@URealm@@@std@@@2@$0A@@std@@@2@XZ 004225c0 f i RealmList.obj
 0001:00021770       ?_Buynode@?$_Tree@V?$_Tmap_traits@V?$basic_string@DU?$char_traits@D@std@@V?$allocator@D@2@@std@@URealm@@U?$less@V?$basic_string@DU?$char_traits@D@std@@V?$allocator@D@2@@std@@@2@V?$allocator@U?$pair@$$CBV?$basic_string@DU?$char_traits@D@std@@V?$allocator@D@2@@std@@URealm@@@std@@@2@$0A@@std@@@std@@IAEPAU_Node@?$_Tree_nod@V?$_Tmap_traits@V?$basic_string@DU?$char_traits@D@std@@V?$allocator@D@2@@std@@URealm@@U?$less@V?$basic_string@DU?$char_traits@D@std@@V?$allocator@D@2@@std@@@2@V?$allocator@U?$pair@$$CBV?$basic_string@DU?$char_traits@D@std@@V?$allocator@D@2@@std@@URealm@@@std@@@2@$0A@@std@@@2@PAU342@00ABU?$pair@$$CBV?$basic_string@DU?$char_traits@D@std@@V?$allocator@D@2@@std@@URealm@@@2@D@Z 00422770 f i RealmList.obj
 0001:00021880       ??0?$_Tree_ptr@V?$_Tmap_traits@V?$basic_string@DU?$char_traits@D@std@@V?$allocator@D@2@@std@@URealm@@U?$less@V?$basic_string@DU?$char_traits@D@std@@V?$allocator@D@2@@std@@@2@V?$allocator@U?$pair@$$CBV?$basic_string@DU?$char_traits@D@std@@V?$allocator@D@2@@std@@URealm@@@std@@@2@$0A@@std@@@std@@QAE@ABU?$less@V?$basic_string@DU?$char_traits@D@std@@V?$allocator@D@2@@std@@@1@V?$allocator@U?$pair@$$CBV?$basic_string@DU?$char_traits@D@std@@V?$allocator@D@2@@std@@URealm@@@std@@@1@@Z 00422880 f i RealmList.obj
 0001:000218e0       ?_Dec@const_iterator@?$_Tree@V?$_Tmap_traits@V?$basic_string@DU?$char_traits@D@std@@V?$allocator@D@2@@std@@URealm@@U?$less@V?$basic_string@DU?$char_traits@D@std@@V?$allocator@D@2@@std@@@2@V?$allocator@U?$pair@$$CBV?$basic_string@DU?$char_traits@D@std@@V?$allocator@D@2@@std@@URealm@@@std@@@2@$0A@@std@@@std@@QAEXXZ 004228e0 f i RealmList.obj
 0001:00021b80       ??Fiterator@?$_Tree@V?$_Tmap_traits@V?$basic_string@DU?$char_traits@D@std@@V?$allocator@D@2@@std@@URealm@@U?$less@V?$basic_string@DU?$char_traits@D@std@@V?$allocator@D@2@@std@@@2@V?$allocator@U?$pair@$$CBV?$basic_string@DU?$char_traits@D@std@@V?$allocator@D@2@@std@@URealm@@@std@@@2@$0A@@std@@@std@@QAEAAV012@XZ 00422b80 f i RealmList.obj
 0001:00021bb0       ??0?$pair@Viterator@?$_Tree@V?$_Tmap_traits@V?$basic_string@DU?$char_traits@D@std@@V?$allocator@D@2@@std@@URealm@@U?$less@V?$basic_string@DU?$char_traits@D@std@@V?$allocator@D@2@@std@@@2@V?$allocator@U?$pair@$$CBV?$basic_string@DU?$char_traits@D@std@@V?$allocator@D@2@@std@@URealm@@@std@@@2@$0A@@std@@@std@@_N@std@@QAE@ABViterator@?$_Tree@V?$_Tmap_traits@V?$basic_string@DU?$char_traits@D@std@@V?$allocator@D@2@@std@@URealm@@U?$less@V?$basic_string@DU?$char_traits@D@std@@V?$allocator@D@2@@std@@@2@V?$allocator@U?$pair@$$CBV?$basic_string@DU?$char_traits@D@std@@V?$allocator@D@2@@std@@URealm@@@std@@@2@$0A@@std@@@1@AB_N@Z 00422bb0 f i RealmList.obj
 0001:00021bf0       ??0?$_Tree_nod@V?$_Tmap_traits@V?$basic_string@DU?$char_traits@D@std@@V?$allocator@D@2@@std@@URealm@@U?$less@V?$basic_string@DU?$char_traits@D@std@@V?$allocator@D@2@@std@@@2@V?$allocator@U?$pair@$$CBV?$basic_string@DU?$char_traits@D@std@@V?$allocator@D@2@@std@@URealm@@@std@@@2@$0A@@std@@@std@@IAE@ABU?$less@V?$basic_string@DU?$char_traits@D@std@@V?$allocator@D@2@@std@@@1@V?$allocator@U?$pair@$$CBV?$basic_string@DU?$char_traits@D@std@@V?$allocator@D@2@@std@@URealm@@@std@@@1@@Z 00422bf0 f i RealmList.obj
 0001:00021c50       ?max_size@?$allocator@U?$pair@$$CBV?$basic_string@DU?$char_traits@D@std@@V?$allocator@D@2@@std@@URealm@@@std@@@std@@QBEIXZ 00422c50 f i RealmList.obj
 0001:00021ca0       ?allocate@?$allocator@U_Node@?$_Tree_nod@V?$_Tmap_traits@V?$basic_string@DU?$char_traits@D@std@@V?$allocator@D@2@@std@@URealm@@U?$less@V?$basic_string@DU?$char_traits@D@std@@V?$allocator@D@2@@std@@@2@V?$allocator@U?$pair@$$CBV?$basic_string@DU?$char_traits@D@std@@V?$allocator@D@2@@std@@URealm@@@std@@@2@$0A@@std@@@std@@@std@@QAEPAU_Node@?$_Tree_nod@V?$_Tmap_traits@V?$basic_string@DU?$char_traits@D@std@@V?$allocator@D@2@@std@@URealm@@U?$less@V?$basic_string@DU?$char_traits@D@std@@V?$allocator@D@2@@std@@@2@V?$allocator@U?$pair@$$CBV?$basic_string@DU?$char_traits@D@std@@V?$allocator@D@2@@std@@URealm@@@std@@@2@$0A@@std@@@2@I@Z 00422ca0 f i RealmList.obj
 0001:00021cd0       ?construct@?$allocator@PAU_Node@?$_Tree_nod@V?$_Tmap_traits@V?$basic_string@DU?$char_traits@D@std@@V?$allocator@D@2@@std@@URealm@@U?$less@V?$basic_string@DU?$char_traits@D@std@@V?$allocator@D@2@@std@@@2@V?$allocator@U?$pair@$$CBV?$basic_string@DU?$char_traits@D@std@@V?$allocator@D@2@@std@@URealm@@@std@@@2@$0A@@std@@@std@@@std@@QAEXPAPAU_Node@?$_Tree_nod@V?$_Tmap_traits@V?$basic_string@DU?$char_traits@D@std@@V?$allocator@D@2@@std@@URealm@@U?$less@V?$basic_string@DU?$char_traits@D@std@@V?$allocator@D@2@@std@@@2@V?$allocator@U?$pair@$$CBV?$basic_string@DU?$char_traits@D@std@@V?$allocator@D@2@@std@@URealm@@@std@@@2@$0A@@std@@@2@ABQAU342@@Z 00422cd0 f i RealmList.obj
 0001:00021d00       ??0_Node@?$_Tree_nod@V?$_Tmap_traits@V?$basic_string@DU?$char_traits@D@std@@V?$allocator@D@2@@std@@URealm@@U?$less@V?$basic_string@DU?$char_traits@D@std@@V?$allocator@D@2@@std@@@2@V?$allocator@U?$pair@$$CBV?$basic_string@DU?$char_traits@D@std@@V?$allocator@D@2@@std@@URealm@@@std@@@2@$0A@@std@@@std@@QAE@PAU012@00ABU?$pair@$$CBV?$basic_string@DU?$char_traits@D@std@@V?$allocator@D@2@@std@@URealm@@@2@D@Z 00422d00 f i RealmList.obj
 0001:00021d60       ??0?$pair@$$CBV?$basic_string@DU?$char_traits@D@std@@V?$allocator@D@2@@std@@URealm@@@std@@QAE@ABU01@@Z 00422d60 f i RealmList.obj
 0001:00021df0       ??0?$_Tmap_traits@V?$basic_string@DU?$char_traits@D@std@@V?$allocator@D@2@@std@@URealm@@U?$less@V?$basic_string@DU?$char_traits@D@std@@V?$allocator@D@2@@std@@@2@V?$allocator@U?$pair@$$CBV?$basic_string@DU?$char_traits@D@std@@V?$allocator@D@2@@std@@URealm@@@std@@@2@$0A@@std@@QAE@U?$less@V?$basic_string@DU?$char_traits@D@std@@V?$allocator@D@2@@std@@@1@V?$allocator@U?$pair@$$CBV?$basic_string@DU?$char_traits@D@std@@V?$allocator@D@2@@std@@URealm@@@std@@@1@@Z 00422df0 f i RealmList.obj
 0001:00021e40       ??0?$_Container_base_aux_alloc_empty@V?$allocator@U?$pair@$$CBV?$basic_string@DU?$char_traits@D@std@@V?$allocator@D@2@@std@@URealm@@@std@@@std@@@std@@IAE@V?$allocator@U?$pair@$$CBV?$basic_string@DU?$char_traits@D@std@@V?$allocator@D@2@@std@@URealm@@@std@@@1@@Z 00422e40 f i RealmList.obj
 0001:00021e80       ?Instance@?$Singleton@VRealmList@@V?$SingleThreaded@VRealmList@@@Neo@@V?$OperatorNew@VRealmList@@@3@V?$ObjectLifeTime@VRealmList@@@3@@Neo@@SAAAVRealmList@@XZ 00422e80 f i RealmList.obj
 0001:00021ef0       ?DestroySingleton@?$Singleton@VRealmList@@V?$SingleThreaded@VRealmList@@@Neo@@V?$OperatorNew@VRealmList@@@3@V?$ObjectLifeTime@VRealmList@@@3@@Neo@@CAXXZ 00422ef0 f i RealmList.obj
 0001:00021f20       ??$?6U?$char_traits@D@std@@@std@@YAAAV?$basic_ostream@DU?$char_traits@D@std@@@0@AAV10@PBD@Z 00422f20 f i RealmList.obj
 0001:000222f0       ??0sentry@?$basic_ostream@DU?$char_traits@D@std@@@std@@QAE@AAV12@@Z 004232f0 f i RealmList.obj
 0001:000223f0       ??1sentry@?$basic_ostream@DU?$char_traits@D@std@@@std@@QAE@XZ 004233f0 f i RealmList.obj
 0001:00022480       ??Bsentry@?$basic_ostream@DU?$char_traits@D@std@@@std@@QBE_NXZ 00423480 f i RealmList.obj
 0001:000224a0       ??0_Sentry_base@?$basic_ostream@DU?$char_traits@D@std@@@std@@QAE@AAV12@@Z 004234a0 f i RealmList.obj
 0001:00022520       ??1_Sentry_base@?$basic_ostream@DU?$char_traits@D@std@@@std@@QAE@XZ 00423520 f i RealmList.obj
 0001:00022590       ?Instance@?$Singleton@VLog@@V?$SingleThreaded@VLog@@@Neo@@V?$OperatorNew@VLog@@@3@V?$ObjectLifeTime@VLog@@@3@@Neo@@SAAAVLog@@XZ 00423590 f i RealmList.obj
 0001:00022600       ??$?0U?$pair@$$CBV?$basic_string@DU?$char_traits@D@std@@V?$allocator@D@2@@std@@URealm@@@std@@@?$allocator@PAU_Node@?$_Tree_nod@V?$_Tmap_traits@V?$basic_string@DU?$char_traits@D@std@@V?$allocator@D@2@@std@@URealm@@U?$less@V?$basic_string@DU?$char_traits@D@std@@V?$allocator@D@2@@std@@@2@V?$allocator@U?$pair@$$CBV?$basic_string@DU?$char_traits@D@std@@V?$allocator@D@2@@std@@URealm@@@std@@@2@$0A@@std@@@std@@@std@@QAE@ABV?$allocator@U?$pair@$$CBV?$basic_string@DU?$char_traits@D@std@@V?$allocator@D@2@@std@@URealm@@@std@@@1@@Z 00423600 f i RealmList.obj
 0001:00022620       ??$?0U?$pair@$$CBV?$basic_string@DU?$char_traits@D@std@@V?$allocator@D@2@@std@@URealm@@@std@@@?$allocator@U_Node@?$_Tree_nod@V?$_Tmap_traits@V?$basic_string@DU?$char_traits@D@std@@V?$allocator@D@2@@std@@URealm@@U?$less@V?$basic_string@DU?$char_traits@D@std@@V?$allocator@D@2@@std@@@2@V?$allocator@U?$pair@$$CBV?$basic_string@DU?$char_traits@D@std@@V?$allocator@D@2@@std@@URealm@@@std@@@2@$0A@@std@@@std@@@std@@QAE@ABV?$allocator@U?$pair@$$CBV?$basic_string@DU?$char_traits@D@std@@V?$allocator@D@2@@std@@URealm@@@std@@@1@@Z 00423620 f i RealmList.obj
 0001:00022640       ??$_Allocate@U_Node@?$_Tree_nod@V?$_Tmap_traits@V?$basic_string@DU?$char_traits@D@std@@V?$allocator@D@2@@std@@URealm@@U?$less@V?$basic_string@DU?$char_traits@D@std@@V?$allocator@D@2@@std@@@2@V?$allocator@U?$pair@$$CBV?$basic_string@DU?$char_traits@D@std@@V?$allocator@D@2@@std@@URealm@@@std@@@2@$0A@@std@@@std@@@std@@YAPAU_Node@?$_Tree_nod@V?$_Tmap_traits@V?$basic_string@DU?$char_traits@D@std@@V?$allocator@D@2@@std@@URealm@@U?$less@V?$basic_string@DU?$char_traits@D@std@@V?$allocator@D@2@@std@@@2@V?$allocator@U?$pair@$$CBV?$basic_string@DU?$char_traits@D@std@@V?$allocator@D@2@@std@@URealm@@@std@@@2@$0A@@std@@@0@IPAU120@@Z 00423640 f i RealmList.obj
 0001:000226b0       ??$_Construct@PAU_Node@?$_Tree_nod@V?$_Tmap_traits@V?$basic_string@DU?$char_traits@D@std@@V?$allocator@D@2@@std@@URealm@@U?$less@V?$basic_string@DU?$char_traits@D@std@@V?$allocator@D@2@@std@@@2@V?$allocator@U?$pair@$$CBV?$basic_string@DU?$char_traits@D@std@@V?$allocator@D@2@@std@@URealm@@@std@@@2@$0A@@std@@@std@@PAU123@@std@@YAXPAPAU_Node@?$_Tree_nod@V?$_Tmap_traits@V?$basic_string@DU?$char_traits@D@std@@V?$allocator@D@2@@std@@URealm@@U?$less@V?$basic_string@DU?$char_traits@D@std@@V?$allocator@D@2@@std@@@2@V?$allocator@U?$pair@$$CBV?$basic_string@DU?$char_traits@D@std@@V?$allocator@D@2@@std@@URealm@@@std@@@2@$0A@@std@@@0@ABQAU120@@Z 004236b0 f i RealmList.obj
 0001:00022710       ??0Lock@?$SingleThreaded@VRealmList@@@Neo@@QAE@XZ 00423710 f i RealmList.obj
 0001:00022730       ?ScheduleCall@?$ObjectLifeTime@VRealmList@@@Neo@@SAXP6AXXZ@Z 00423730 f i RealmList.obj
 0001:00022750       ?Create@?$OperatorNew@VRealmList@@@Neo@@SAPAVRealmList@@XZ 00423750 f i RealmList.obj
 0001:000227f0       ?Destroy@?$OperatorNew@VRealmList@@@Neo@@SAXPAVRealmList@@@Z 004237f0 f i RealmList.obj
 0001:00022850       ??0Lock@?$SingleThreaded@VLog@@@Neo@@QAE@XZ 00423850 f i RealmList.obj
 0001:00022870       ?ScheduleCall@?$ObjectLifeTime@VLog@@@Neo@@SAXP6AXXZ@Z 00423870 f i RealmList.obj
 0001:00022890       ?Create@?$OperatorNew@VLog@@@Neo@@SAPAVLog@@XZ 00423890 f i RealmList.obj
 0001:00022930       ??_GRealmList@@QAEPAXI@Z   00423930 f i RealmList.obj
 0001:00022970       ?OnDeadReference@?$ObjectLifeTime@VRealmList@@@Neo@@SAXXZ 00423970 f i RealmList.obj
 0001:00022a20       ??0runtime_error@std@@QAE@ABV?$basic_string@DU?$char_traits@D@std@@V?$allocator@D@2@@1@@Z 00423a20 f i RealmList.obj
 0001:00022ab0       ??1runtime_error@std@@UAE@XZ 00423ab0 f i RealmList.obj
 0001:00022b00       ?what@runtime_error@std@@UBEPBDXZ 00423b00 f i RealmList.obj
 0001:00022b40       ??_Gruntime_error@std@@UAEPAXI@Z 00423b40 f i RealmList.obj
 0001:00022b40       ??_Eruntime_error@std@@UAEPAXI@Z 00423b40 f i RealmList.obj
 0001:00022b80       ??0runtime_error@std@@QAE@ABV01@@Z 00423b80 f i RealmList.obj
 0001:00022c20       ?DestroySingleton@?$Singleton@VLog@@V?$SingleThreaded@VLog@@@Neo@@V?$OperatorNew@VLog@@@3@V?$ObjectLifeTime@VLog@@@3@@Neo@@CAXXZ 00423c20 f i RealmList.obj
 0001:00022c50       ?OnDeadReference@?$ObjectLifeTime@VLog@@@Neo@@SAXXZ 00423c50 f i RealmList.obj
 0001:00022d00       ?Destroy@?$OperatorNew@VLog@@@Neo@@SAXPAVLog@@@Z 00423d00 f i RealmList.obj
 0001:00022d60       ??_GLog@@AAEPAXI@Z         00423d60 f i RealmList.obj
 0001:00022da0       ??0WheatyExceptionReport@@QAE@XZ 00423da0 f   WheatyExceptionReport.obj
 0001:00022df0       ??1WheatyExceptionReport@@QAE@XZ 00423df0 f   WheatyExceptionReport.obj
 0001:00022e30       ?WheatyUnhandledExceptionFilter@WheatyExceptionReport@@SGJPAU_EXCEPTION_POINTERS@@@Z 00423e30 f   WheatyExceptionReport.obj
 0001:000230b0       ?_tcsrchr@@YAPADPADI@Z     004240b0 f i WheatyExceptionReport.obj
 0001:000230d0       __tcsrchr                  004240d0 f i WheatyExceptionReport.obj
 0001:00023100       ?_GetProcessorName@WheatyExceptionReport@@CAHPADK@Z 00424100 f   WheatyExceptionReport.obj
 0001:00023290       __tcsncpy                  00424290 f i WheatyExceptionReport.obj
 0001:000232c0       ?_GetWindowsVersion@WheatyExceptionReport@@CAHPADK@Z 004242c0 f   WheatyExceptionReport.obj
 0001:000238a0       __tcsncat                  004248a0 f i WheatyExceptionReport.obj
 0001:000238d0       __tcsicmp                  004248d0 f i WheatyExceptionReport.obj
 0001:00023900       ?PrintSystemInfo@WheatyExceptionReport@@CAXXZ 00424900 f   WheatyExceptionReport.obj
 0001:00023a90       ?printTracesForAllThreads@WheatyExceptionReport@@SAXXZ 00424a90 f   WheatyExceptionReport.obj
 0001:00023c40       ?GenerateExceptionReport@WheatyExceptionReport@@CAXPAU_EXCEPTION_POINTERS@@@Z 00424c40 f   WheatyExceptionReport.obj
 0001:00024070       ?ErrorMessage@@YAPADK@Z    00425070 f i WheatyExceptionReport.obj
 0001:00024100       ?GetExceptionString@WheatyExceptionReport@@CAPADK@Z 00425100 f   WheatyExceptionReport.obj
 0001:000243d0       ?GetLogicalAddress@WheatyExceptionReport@@CAHPAXPADKAAK2@Z 004253d0 f   WheatyExceptionReport.obj
 0001:00024530       ?WriteStackDetails@WheatyExceptionReport@@CAXPAU_CONTEXT@@_NPAX@Z 00425530 f   WheatyExceptionReport.obj
 0001:000249b0       ??0CSymbolInfoPackage@@QAE@XZ 004259b0 f i WheatyExceptionReport.obj
 0001:000249e0       ?EnumerateSymbolsCallback@WheatyExceptionReport@@CGHPAU_SYMBOL_INFO@@KPAX@Z 004259e0 f   WheatyExceptionReport.obj
 0001:00024b00       ?FormatSymbolValue@WheatyExceptionReport@@CA_NPAU_SYMBOL_INFO@@PAU_tagSTACKFRAME@@PADI@Z 00425b00 f   WheatyExceptionReport.obj
 0001:00024cf0       ?DumpTypeIndex@WheatyExceptionReport@@CAPADPAD_KKIKAA_N0@Z 00425cf0 f   WheatyExceptionReport.obj
 0001:00025130       ?FormatOutputValue@WheatyExceptionReport@@CAPADPADW4BasicType@@_KPAX@Z 00426130 f   WheatyExceptionReport.obj
 0001:00025310       ?GetBasicType@WheatyExceptionReport@@CA?AW4BasicType@@K_K@Z 00426310 f   WheatyExceptionReport.obj
 0001:00025420       ?printf@WheatyExceptionReport@@CAHPBDZZ 00426420 f   WheatyExceptionReport.obj
 0001:0002551a       _CRYPTO_free               0042651a f   libeay32:LIBEAY32.dll
 0001:00025520       _MD5_Final                 00426520 f   libeay32:LIBEAY32.dll
 0001:00025526       _MD5_Update                00426526 f   libeay32:LIBEAY32.dll
 0001:0002552c       _MD5_Init                  0042652c f   libeay32:LIBEAY32.dll
 0001:00025532       _closesocket@4             00426532 f   ws2_32:WS2_32.dll
 0001:00025538       _ntohs@4                   00426538 f   ws2_32:WS2_32.dll
 0001:0002553e       _WSAGetLastError@0         0042653e f   ws2_32:WS2_32.dll
 0001:00025544       _accept@12                 00426544 f   ws2_32:WS2_32.dll
 0001:0002554a       _listen@8                  0042654a f   ws2_32:WS2_32.dll
 0001:00025550       _bind@12                   00426550 f   ws2_32:WS2_32.dll
 0001:00025556       _RegCloseKey@4             00426556 f   advapi32:ADVAPI32.dll
 0001:0002555c       _RegQueryValueExA@24       0042655c f   advapi32:ADVAPI32.dll
 0001:00025562       _RegOpenKeyExA@20          00426562 f   advapi32:ADVAPI32.dll
 0001:00025568       _SymCleanup@4              00426568 f   dbghelp:dbghelp.dll
 0001:0002556e       _SymEnumSymbols@24         0042656e f   dbghelp:dbghelp.dll
 0001:00025574       _SymInitialize@12          00426574 f   dbghelp:dbghelp.dll
 0001:0002557a       _SymSetOptions@4           0042657a f   dbghelp:dbghelp.dll
 0001:00025580       _SymSetContext@12          00426580 f   dbghelp:dbghelp.dll
 0001:00025586       _SymGetLineFromAddr64@20   00426586 f   dbghelp:dbghelp.dll
 0001:0002558c       _SymFromAddr@20            0042658c f   dbghelp:dbghelp.dll
 0001:00025592       _StackWalk64@36            00426592 f   dbghelp:dbghelp.dll
 0001:00025598       _SymFunctionTableAccess64@12 00426598 f   dbghelp:dbghelp.dll
 0001:0002559e       _SymGetModuleBase64@12     0042659e f   dbghelp:dbghelp.dll
 0001:000255a4       _SymGetTypeInfo@24         004265a4 f   dbghelp:dbghelp.dll
 0001:000255aa       ??$?8DU?$char_traits@D@std@@V?$allocator@D@1@@std@@YA_NABV?$basic_string@DU?$char_traits@D@std@@V?$allocator@D@2@@0@0@Z 004265aa f   MSVCPRTD:MSVCP90D.dll
 0001:000255b0       ??0?$basic_string@DU?$char_traits@D@std@@V?$allocator@D@2@@std@@QAE@U_Has_debug_it@01@@Z 004265b0 f   MSVCPRTD:MSVCP90D.dll
 0001:000255b6       ??0?$basic_string@DU?$char_traits@D@std@@V?$allocator@D@2@@std@@QAE@ABV01@@Z 004265b6 f   MSVCPRTD:MSVCP90D.dll
 0001:000255bc       ??4?$basic_string@DU?$char_traits@D@std@@V?$allocator@D@2@@std@@QAEAAV01@ABV01@@Z 004265bc f   MSVCPRTD:MSVCP90D.dll
 0001:000255c2       ??1?$basic_string@DU?$char_traits@D@std@@V?$allocator@D@2@@std@@QAE@XZ 004265c2 f   MSVCPRTD:MSVCP90D.dll
 0001:000255c8       ?c_str@?$basic_string@DU?$char_traits@D@std@@V?$allocator@D@2@@std@@QBEPBDXZ 004265c8 f   MSVCPRTD:MSVCP90D.dll
 0001:000255ce       ?resize@?$basic_string@DU?$char_traits@D@std@@V?$allocator@D@2@@std@@QAEXI@Z 004265ce f   MSVCPRTD:MSVCP90D.dll
 0001:000255d4       ??$?9DU?$char_traits@D@std@@V?$allocator@D@1@@std@@YA_NABV?$basic_string@DU?$char_traits@D@std@@V?$allocator@D@2@@0@PBD@Z 004265d4 f   MSVCPRTD:MSVCP90D.dll
 0001:000255da       ??$?HDU?$char_traits@D@std@@V?$allocator@D@1@@std@@YA?AV?$basic_string@DU?$char_traits@D@std@@V?$allocator@D@2@@0@ABV10@PBD@Z 004265da f   MSVCPRTD:MSVCP90D.dll
 0001:000255e0       ??$?HDU?$char_traits@D@std@@V?$allocator@D@1@@std@@YA?AV?$basic_string@DU?$char_traits@D@std@@V?$allocator@D@2@@0@ABV10@D@Z 004265e0 f   MSVCPRTD:MSVCP90D.dll
 0001:000255e6       ??A?$basic_string@DU?$char_traits@D@std@@V?$allocator@D@2@@std@@QAEAADI@Z 004265e6 f   MSVCPRTD:MSVCP90D.dll
 0001:000255ec       ?length@?$basic_string@DU?$char_traits@D@std@@V?$allocator@D@2@@std@@QBEIXZ 004265ec f   MSVCPRTD:MSVCP90D.dll
 0001:000255f2       ??4?$basic_string@DU?$char_traits@D@std@@V?$allocator@D@2@@std@@QAEAAV01@PBD@Z 004265f2 f   MSVCPRTD:MSVCP90D.dll
 0001:000255f8       ??0?$basic_string@DU?$char_traits@D@std@@V?$allocator@D@2@@std@@QAE@PBD@Z 004265f8 f   MSVCPRTD:MSVCP90D.dll
 0001:000255fe       ?empty@?$basic_string@DU?$char_traits@D@std@@V?$allocator@D@2@@std@@QBE_NXZ 004265fe f   MSVCPRTD:MSVCP90D.dll
 0001:00025604       ??1_Lockit@std@@QAE@XZ     00426604 f   MSVCPRTD:MSVCP90D.dll
 0001:0002560a       ??0_Lockit@std@@QAE@H@Z    0042660a f   MSVCPRTD:MSVCP90D.dll
 0001:00025610       ?_Debug_message@std@@YAXPB_W0I@Z 00426610 f   MSVCPRTD:MSVCP90D.dll
 0001:00025620       ??_U@YAPAXI@Z              00426620 f   MSVCPRTD:newaop_s.obj
 0001:00025634       ??Y?$basic_string@DU?$char_traits@D@std@@V?$allocator@D@2@@std@@QAEAAV01@PBD@Z 00426634 f   MSVCPRTD:MSVCP90D.dll
 0001:0002563a       ?_Orphan_all@_Container_base_secure@std@@QBEXXZ 0042663a f   MSVCPRTD:MSVCP90D.dll
 0001:00025640       ??1_Container_base_secure@std@@QAE@XZ 00426640 f   MSVCPRTD:MSVCP90D.dll
 0001:00025646       ??0_Container_base_secure@std@@QAE@XZ 00426646 f   MSVCPRTD:MSVCP90D.dll
 0001:0002564c       ??$?MDU?$char_traits@D@std@@V?$allocator@D@1@@std@@YA_NABV?$basic_string@DU?$char_traits@D@std@@V?$allocator@D@2@@0@0@Z 0042664c f   MSVCPRTD:MSVCP90D.dll
 0001:00025660       ??4_Init_locks@std@@QAEAAV01@ABV01@@Z 00426660 f i MSVCPRTD:nothrow.obj
 0001:00025672       ??_D?$basic_ostringstream@DU?$char_traits@D@std@@V?$allocator@D@2@@std@@QAEXXZ 00426672 f   MSVCPRTD:MSVCP90D.dll
 0001:00025678       ?str@?$basic_ostringstream@DU?$char_traits@D@std@@V?$allocator@D@2@@std@@QBE?AV?$basic_string@DU?$char_traits@D@std@@V?$allocator@D@2@@2@XZ 00426678 f   MSVCPRTD:MSVCP90D.dll
 0001:0002567e       ??6?$basic_ostream@DU?$char_traits@D@std@@@std@@QAEAAV01@I@Z 0042667e f   MSVCPRTD:MSVCP90D.dll
 0001:00025684       ??$?6DU?$char_traits@D@std@@V?$allocator@D@1@@std@@YAAAV?$basic_ostream@DU?$char_traits@D@std@@@0@AAV10@ABV?$basic_string@DU?$char_traits@D@std@@V?$allocator@D@2@@0@@Z 00426684 f   MSVCPRTD:MSVCP90D.dll
 0001:0002568a       ??0?$basic_ostringstream@DU?$char_traits@D@std@@V?$allocator@D@2@@std@@QAE@H@Z 0042668a f   MSVCPRTD:MSVCP90D.dll
 0001:00025690       ?setstate@?$basic_ios@DU?$char_traits@D@std@@@std@@QAEXH_N@Z 00426690 f   MSVCPRTD:MSVCP90D.dll
 0001:00025696       ?width@ios_base@std@@QAEHH@Z 00426696 f   MSVCPRTD:MSVCP90D.dll
 0001:0002569c       ?sputn@?$basic_streambuf@DU?$char_traits@D@std@@@std@@QAEHPBDH@Z 0042669c f   MSVCPRTD:MSVCP90D.dll
 0001:000256a2       ?eq_int_type@?$char_traits@D@std@@SA_NABH0@Z 004266a2 f   MSVCPRTD:MSVCP90D.dll
 0001:000256a8       ?eof@?$char_traits@D@std@@SAHXZ 004266a8 f   MSVCPRTD:MSVCP90D.dll
 0001:000256ae       ?sputc@?$basic_streambuf@DU?$char_traits@D@std@@@std@@QAEHD@Z 004266ae f   MSVCPRTD:MSVCP90D.dll
 0001:000256b4       ?rdbuf@?$basic_ios@DU?$char_traits@D@std@@@std@@QBEPAV?$basic_streambuf@DU?$char_traits@D@std@@@2@XZ 004266b4 f   MSVCPRTD:MSVCP90D.dll
 0001:000256ba       ?fill@?$basic_ios@DU?$char_traits@D@std@@@std@@QBEDXZ 004266ba f   MSVCPRTD:MSVCP90D.dll
 0001:000256c0       ?flags@ios_base@std@@QBEHXZ 004266c0 f   MSVCPRTD:MSVCP90D.dll
 0001:000256c6       ?width@ios_base@std@@QBEHXZ 004266c6 f   MSVCPRTD:MSVCP90D.dll
 0001:000256cc       ?length@?$char_traits@D@std@@SAIPBD@Z 004266cc f   MSVCPRTD:MSVCP90D.dll
 0001:000256d2       ?flush@?$basic_ostream@DU?$char_traits@D@std@@@std@@QAEAAV12@XZ 004266d2 f   MSVCPRTD:MSVCP90D.dll
 0001:000256d8       ?tie@?$basic_ios@DU?$char_traits@D@std@@@std@@QBEPAV?$basic_ostream@DU?$char_traits@D@std@@@2@XZ 004266d8 f   MSVCPRTD:MSVCP90D.dll
 0001:000256de       ?good@ios_base@std@@QBE_NXZ 004266de f   MSVCPRTD:MSVCP90D.dll
 0001:000256e4       ?_Osfx@?$basic_ostream@DU?$char_traits@D@std@@@std@@QAEXXZ 004266e4 f   MSVCPRTD:MSVCP90D.dll
 0001:000256ea       ?uncaught_exception@std@@YA_NXZ 004266ea f   MSVCPRTD:MSVCP90D.dll
 0001:000256f0       ?_Lock@?$basic_streambuf@DU?$char_traits@D@std@@@std@@QAEXXZ 004266f0 f   MSVCPRTD:MSVCP90D.dll
 0001:000256f6       ?_Unlock@?$basic_streambuf@DU?$char_traits@D@std@@@std@@QAEXXZ 004266f6 f   MSVCPRTD:MSVCP90D.dll
 0001:00025700       __RTC_InitBase             00426700 f   msvcrtd:_init_.obj
 0001:00025730       __RTC_Shutdown             00426730 f   msvcrtd:_init_.obj
 0001:00025750       ??0type_info@@AAE@ABV0@@Z  00426750 f   msvcrtd:ti_inst.obj
 0001:00025770       ??_Etype_info@@UAEPAXI@Z   00426770 f i msvcrtd:ti_inst.obj
 0001:000257e0       ??4type_info@@AAEAAV0@ABV0@@Z 004267e0 f   msvcrtd:ti_inst.obj
 0001:000257f2       __purecall                 004267f2 f   msvcrtd:MSVCR90D.dll
 0001:000257f8       ??3@YAXPAX@Z               004267f8 f   msvcrtd:MSVCR90D.dll
 0001:00025800       __RTC_CheckEsp             00426800 f   msvcrtd:_stack_.obj
 0001:00025830       @_RTC_CheckStackVars@8     00426830 f   msvcrtd:_stack_.obj
 0001:00025890       @_RTC_AllocaHelper@12      00426890 f   msvcrtd:_stack_.obj
 0001:000258d0       @_RTC_CheckStackVars2@12   004268d0 f   msvcrtd:_stack_.obj
 0001:000259a6       ??_V@YAXPAX@Z              004269a6 f   msvcrtd:MSVCR90D.dll
 0001:000259b0       ??_M@YGXPAXIHP6EX0@Z@Z     004269b0 f   msvcrtd:ehvecdtr.obj
 0001:00025a60       ?__ArrayUnwind@@YGXPAXIHP6EX0@Z@Z 00426a60 f   msvcrtd:ehvecdtr.obj
 0001:00025b1e       ___CxxFrameHandler3        00426b1e f   msvcrtd:MSVCR90D.dll
 0001:00025b30       @__security_check_cookie@4 00426b30 f   msvcrtd:secchk.obj
 0001:00025b40       __wassert                  00426b40 f   msvcrtd:MSVCR90D.dll
 0001:00025b46       _fprintf                   00426b46 f   msvcrtd:MSVCR90D.dll
 0001:00025b4c       ___iob_func                00426b4c f   msvcrtd:MSVCR90D.dll
 0001:00025b52       _strncpy                   00426b52 f   msvcrtd:MSVCR90D.dll
 0001:00025b58       _fclose                    00426b58 f   msvcrtd:MSVCR90D.dll
 0001:00025b5e       _memcpy                    00426b5e f   msvcrtd:MSVCR90D.dll
 0001:00025b64       _memset                    00426b64 f   msvcrtd:MSVCR90D.dll
 0001:00025b6a       _strcmp                    00426b6a f   msvcrtd:MSVCR90D.dll
 0001:00025b70       _strtoul                   00426b70 f   msvcrtd:MSVCR90D.dll
 0001:00025b76       _sscanf                    00426b76 f   msvcrtd:MSVCR90D.dll
 0001:00025b7c       _memcmp                    00426b7c f   msvcrtd:MSVCR90D.dll
 0001:00025b82       _ftell                     00426b82 f   msvcrtd:MSVCR90D.dll
 0001:00025b88       _fseek                     00426b88 f   msvcrtd:MSVCR90D.dll
 0001:00025b8e       _printf                    00426b8e f   msvcrtd:MSVCR90D.dll
 0001:00025ba0       _DebuggerKnownHandle       00426ba0 f   msvcrtd:_error_.obj
 0001:00025c60       ?_RTC_Failure@@YAXPAXH@Z   00426c60 f   msvcrtd:_error_.obj
 0001:00025f70       ?_RTC_StackFailure@@YAXPAXPBD@Z 00426f70 f   msvcrtd:_error_.obj
 0001:00026070       ?_RTC_AllocaFailure@@YAXPAXPAU_RTC_ALLOCA_NODE@@H@Z 00427070 f   msvcrtd:_error_.obj
 0001:00026220       __RTC_UninitUse            00427220 f   msvcrtd:_error_.obj
 0001:00026310       ??2@YAPAXI@Z               00427310 f   msvcrtd:MSVCR90D.dll
 0001:00026316       _fread                     00427316 f   msvcrtd:MSVCR90D.dll
 0001:0002631c       _feof                      0042731c f   msvcrtd:MSVCR90D.dll
 0001:00026322       _fopen                     00427322 f   msvcrtd:MSVCR90D.dll
 0001:00026328       __CxxThrowException@8      00427328 f   msvcrtd:MSVCR90D.dll
 0001:0002632e       __invalid_parameter        0042732e f   msvcrtd:MSVCR90D.dll
 0001:00026334       __CrtDbgReportW            00427334 f   msvcrtd:MSVCR90D.dll
 0001:0002633a       ??0exception@std@@QAE@ABV01@@Z 0042733a f   msvcrtd:MSVCR90D.dll
 0001:00026340       ??1exception@std@@UAE@XZ   00427340 f   msvcrtd:MSVCR90D.dll
 0001:00026346       ??0exception@std@@QAE@XZ   00427346 f   msvcrtd:MSVCR90D.dll
 0001:0002634c       ??0exception@std@@QAE@ABQBD@Z 0042734c f   msvcrtd:MSVCR90D.dll
 0001:00026352       ?what@exception@std@@UBEPBDXZ 00427352 f   msvcrtd:MSVCR90D.dll
 0001:00026358       ??0exception@std@@QAE@ABQBDH@Z 00427358 f   msvcrtd:MSVCR90D.dll
 0001:0002635e       _memmove_s                 0042735e f   msvcrtd:MSVCR90D.dll
 0001:00026370       ??3@YAXPAXABUnothrow_t@std@@@Z 00427370 f   msvcrtd:delopnt.obj
 0001:00026384       __errno                    00427384 f   msvcrtd:MSVCR90D.dll
 0001:00026390       ??2@YAPAXIABUnothrow_t@std@@@Z 00427390 f   msvcrtd:newopnt.obj
 0001:00026410       __onexit                   00427410 f   msvcrtd:atonexit.obj
 0001:00026520       _atexit                    00427520 f   msvcrtd:atonexit.obj
 0001:0002653c       _clock                     0042753c f   msvcrtd:MSVCR90D.dll
 0001:00026550       __alloca_probe             00427550     msvcrtd:chkstk.obj
 0001:00026550       __chkstk                   00427550 f   msvcrtd:chkstk.obj
 0001:0002657c       _signal                    0042757c f   msvcrtd:MSVCR90D.dll
 0001:00026582       ___RTDynamicCast           00427582 f   msvcrtd:MSVCR90D.dll
 0001:00026588       __time64                   00427588 f   msvcrtd:MSVCR90D.dll
 0001:0002658e       _atof                      0042758e f   msvcrtd:MSVCR90D.dll
 0001:00026594       _sprintf                   00427594 f   msvcrtd:MSVCR90D.dll
 0001:0002659a       __mbsrchr                  0042759a f   msvcrtd:MSVCR90D.dll
 0001:000265a0       _iswspace                  004275a0 f   msvcrtd:MSVCR90D.dll
 0001:000265a6       __mbsnbcpy                 004275a6 f   msvcrtd:MSVCR90D.dll
 0001:000265ac       _strlen                    004275ac f   msvcrtd:MSVCR90D.dll
 0001:000265b2       __mbsnbcat                 004275b2 f   msvcrtd:MSVCR90D.dll
 0001:000265b8       __mbsicmp                  004275b8 f   msvcrtd:MSVCR90D.dll
 0001:000265c0       __except_handler4          004275c0 f   msvcrtd:chandler4gs.obj
 0001:000265ea       _vsprintf                  004275ea f   msvcrtd:MSVCR90D.dll
 0001:000266f0       _mainCRTStartup            004276f0 f   msvcrtd:crtexe.obj
 0001:00026960       _NtCurrentTeb              00427960 f i msvcrtd:crtexe.obj
 0001:00026a20       __RTC_NumErrors            00427a20 f   msvcrtd:_userapi_.obj
 0001:00026a30       __RTC_GetErrDesc           00427a30 f   msvcrtd:_userapi_.obj
 0001:00026a50       __RTC_SetErrorType         00427a50 f   msvcrtd:_userapi_.obj
 0001:00026a80       __RTC_SetErrorFunc         00427a80 f   msvcrtd:_userapi_.obj
 0001:00026aa0       __RTC_SetErrorFuncW        00427aa0 f   msvcrtd:_userapi_.obj
 0001:00026ac0       ?_RTC_GetErrorFunc@@YAP6AHHPBDH00ZZPBX@Z 00427ac0 f   msvcrtd:_userapi_.obj
 0001:00026ad0       ?_RTC_GetErrorFuncW@@YAP6AHHPB_WH00ZZPBX@Z 00427ad0 f   msvcrtd:_userapi_.obj
 0001:00026ad6       __CRT_RTC_INITW            00427ad6 f   msvcrtd:MSVCR90D.dll
 0001:00026adc       ?terminate@@YAXXZ          00427adc f   msvcrtd:MSVCR90D.dll
 0001:00026af0       ___report_gsfailure        00427af0 f   msvcrtd:gs_report.obj
 0001:00026c00       ?_RTC_GetSrcLine@@YAHPAEPA_WKPAH1K@Z 00427c00 f   msvcrtd:_pdblkup_.obj
 0001:00027096       __unlock                   00428096 f   msvcrtd:MSVCR90D.dll
 0001:0002709c       ___dllonexit               0042809c f   msvcrtd:MSVCR90D.dll
 0001:000270a2       __encode_pointer           004280a2 f   msvcrtd:MSVCR90D.dll
 0001:000270a8       __lock                     004280a8 f   msvcrtd:MSVCR90D.dll
 0001:000270ae       __decode_pointer           004280ae f   msvcrtd:MSVCR90D.dll
 0001:000270b4       __except_handler4_common   004280b4 f   msvcrtd:MSVCR90D.dll
 0001:000270c0       ?__CxxUnhandledExceptionFilter@@YGJPAU_EXCEPTION_POINTERS@@@Z 004280c0 f   msvcrtd:unhandld.obj
 0001:00027130       ___CxxSetUnhandledExceptionFilter 00428130 f   msvcrtd:unhandld.obj
 0001:00027144       __configthreadlocale       00428144 f   msvcrtd:MSVCR90D.dll
 0001:00027150       __setdefaultprecision      00428150 f   msvcrtd:fp8.obj
 0001:00027190       __invoke_watson_if_error   00428190 f i msvcrtd:fp8.obj
 0001:000271bc       ___setusermatherr          004281bc f   msvcrtd:MSVCR90D.dll
 0001:000271d0       __matherr                  004281d0 f   msvcrtd:merr.obj
 0001:000271e0       __setargv                  004281e0 f   msvcrtd:dllargv.obj
 0001:000271f0       __RTC_Initialize           004281f0 f   msvcrtd:_initsect_.obj
 0001:00027220       __RTC_Terminate            00428220 f   msvcrtd:_initsect_.obj
 0001:00027246       ___p__commode              00428246 f   msvcrtd:MSVCR90D.dll
 0001:0002724c       ___p__fmode                0042824c f   msvcrtd:MSVCR90D.dll
 0001:00027252       ___set_app_type            00428252 f   msvcrtd:MSVCR90D.dll
 0001:00027258       __amsg_exit                00428258 f   msvcrtd:MSVCR90D.dll
 0001:0002725e       ___getmainargs             0042825e f   msvcrtd:MSVCR90D.dll
 0001:00027270       ___security_init_cookie    00428270 f   msvcrtd:gs_support.obj
 0001:0002734c       __exit                     0042834c f   msvcrtd:MSVCR90D.dll
 0001:00027352       __XcptFilter               00428352 f   msvcrtd:MSVCR90D.dll
 0001:00027358       __cexit                    00428358 f   msvcrtd:MSVCR90D.dll
 0001:0002735e       _exit                      0042835e f   msvcrtd:MSVCR90D.dll
 0001:00027364       __CrtSetCheckCount         00428364 f   msvcrtd:MSVCR90D.dll
 0001:00027370       __ValidateImageBase        00428370 f   msvcrtd:pesect.obj
 0001:000273d0       __FindPESection            004283d0 f   msvcrtd:pesect.obj
 0001:00027450       __IsNonwritableInCurrentImage 00428450 f   msvcrtd:pesect.obj
 0001:00027562       __initterm                 00428562 f   msvcrtd:MSVCR90D.dll
 0001:00027568       __initterm_e               00428568 f   msvcrtd:MSVCR90D.dll
 0001:0002756e       ??1type_info@@UAE@XZ       0042856e f   msvcrtd:MSVCR90D.dll
 0001:0002756e       ?_type_info_dtor_internal_method@type_info@@QAEXXZ 0042856e f   msvcrtd:MSVCR90D.dll
 0001:00027574       __crt_debugger_hook        00428574 f   msvcrtd:MSVCR90D.dll
 0001:0002757a       __controlfp_s              0042857a f   msvcrtd:MSVCR90D.dll
 0001:00027580       __invoke_watson            00428580 f   msvcrtd:MSVCR90D.dll
 0001:00027586       _FindNextFileA@8           00428586 f   kernel32:KERNEL32.dll
 0001:0002758c       _FindFirstFileA@8          0042858c f   kernel32:KERNEL32.dll
 0001:00027592       _Sleep@4                   00428592 f   kernel32:KERNEL32.dll
 0001:00027598       _SetPriorityClass@8        00428598 f   kernel32:KERNEL32.dll
 0001:0002759e       _SetProcessAffinityMask@8  0042859e f   kernel32:KERNEL32.dll
 0001:000275a4       _GetProcessAffinityMask@12 004285a4 f   kernel32:KERNEL32.dll
 0001:000275aa       _GetCurrentProcess@0       004285aa f   kernel32:KERNEL32.dll
 0001:000275b0       _SetUnhandledExceptionFilter@4 004285b0 f   kernel32:KERNEL32.dll
 0001:000275b6       _CloseHandle@4             004285b6 f   kernel32:KERNEL32.dll
 0001:000275bc       _SetFilePointer@16         004285bc f   kernel32:KERNEL32.dll
 0001:000275c2       _CreateFileA@28            004285c2 f   kernel32:KERNEL32.dll
 0001:000275c8       _GetLocalTime@4            004285c8 f   kernel32:KERNEL32.dll
 0001:000275ce       _GetLastError@0            004285ce f   kernel32:KERNEL32.dll
 0001:000275d4       _CreateDirectoryA@8        004285d4 f   kernel32:KERNEL32.dll
 0001:000275da       _GetModuleFileNameA@12     004285da f   kernel32:KERNEL32.dll
 0001:000275e0       _GetVersionExA@4           004285e0 f   kernel32:KERNEL32.dll
 0001:000275e6       _GlobalMemoryStatus@4      004285e6 f   kernel32:KERNEL32.dll
 0001:000275ec       _GetSystemInfo@4           004285ec f   kernel32:KERNEL32.dll
 0001:000275f2       _Thread32Next@8            004285f2 f   kernel32:KERNEL32.dll
 0001:000275f8       _GetThreadContext@8        004285f8 f   kernel32:KERNEL32.dll
 0001:000275fe       _OpenThread@12             004285fe f   kernel32:KERNEL32.dll
 0001:00027604       _Thread32First@8           00428604 f   kernel32:KERNEL32.dll
 0001:0002760a       _CreateToolhelp32Snapshot@8 0042860a f   kernel32:KERNEL32.dll
 0001:00027610       _GetCurrentProcessId@0     00428610 f   kernel32:KERNEL32.dll
 0001:00027616       _GetModuleHandleA@4        00428616 f   kernel32:KERNEL32.dll
 0001:0002761c       _FormatMessageA@28         0042861c f   kernel32:KERNEL32.dll
 0001:00027622       _VirtualQuery@12           00428622 f   kernel32:KERNEL32.dll
 0001:00027628       _GetCurrentThread@0        00428628 f   kernel32:KERNEL32.dll
 0001:0002762e       _LocalFree@4               0042862e f   kernel32:KERNEL32.dll
 0001:00027634       _IsBadStringPtrA@8         00428634 f   kernel32:KERNEL32.dll
 0001:0002763a       _WriteFile@20              0042863a f   kernel32:KERNEL32.dll
 0001:00027640       _IsDebuggerPresent@0       00428640 f   kernel32:KERNEL32.dll
 0001:00027646       _RaiseException@16         00428646 f   kernel32:KERNEL32.dll
 0001:0002764c       _DebugBreak@0              0042864c f   kernel32:KERNEL32.dll
 0001:00027652       _WideCharToMultiByte@32    00428652 f   kernel32:KERNEL32.dll
 0001:00027658       _MultiByteToWideChar@24    00428658 f   kernel32:KERNEL32.dll
 0001:0002765e       _lstrlenA@4                0042865e f   kernel32:KERNEL32.dll
 0001:00027664       _GetProcAddress@8          00428664 f   kernel32:KERNEL32.dll
 0001:0002766a       _LoadLibraryA@4            0042866a f   kernel32:KERNEL32.dll
 0001:00027670       _InterlockedExchange@8     00428670 f   kernel32:KERNEL32.dll
 0001:00027676       _InterlockedCompareExchange@12 00428676 f   kernel32:KERNEL32.dll
 0001:0002767c       _TerminateProcess@8        0042867c f   kernel32:KERNEL32.dll
 0001:00027682       _UnhandledExceptionFilter@4 00428682 f   kernel32:KERNEL32.dll
 0001:00027688       _HeapFree@12               00428688 f   kernel32:KERNEL32.dll
 0001:0002768e       _HeapAlloc@12              0042868e f   kernel32:KERNEL32.dll
 0001:00027694       _GetProcessHeap@0          00428694 f   kernel32:KERNEL32.dll
 0001:0002769a       _GetModuleFileNameW@12     0042869a f   kernel32:KERNEL32.dll
 0001:000276a0       _FreeLibrary@4             004286a0 f   kernel32:KERNEL32.dll
 0001:000276a6       _QueryPerformanceCounter@4 004286a6 f   kernel32:KERNEL32.dll
 0001:000276ac       _GetTickCount@0            004286ac f   kernel32:KERNEL32.dll
 0001:000276b2       _GetCurrentThreadId@0      004286b2 f   kernel32:KERNEL32.dll
 0001:000276b8       _GetSystemTimeAsFileTime@4 004286b8 f   kernel32:KERNEL32.dll
 0001:000276c0       ??0TcpSocket@@QAE@AAVISocketHandler@@@Z 004286c0 f   sockets:TcpSocket.obj
 0001:00027840       ??_GTcpSocket@@UAEPAXI@Z   00428840 f i sockets:TcpSocket.obj
 0001:00027840       ??_ETcpSocket@@UAEPAXI@Z   00428840 f i sockets:TcpSocket.obj
 0001:00027880       ??0TcpSocket@@QAE@AAVISocketHandler@@II@Z 00428880 f   sockets:TcpSocket.obj
 0001:00027a00       ??1TcpSocket@@UAE@XZ       00428a00 f   sockets:TcpSocket.obj
 0001:00027b80       ??1?$_Iterator@$00@?$list@PAUOUTPUT@TcpSocket@@V?$allocator@PAUOUTPUT@TcpSocket@@@std@@@std@@QAE@XZ 00428b80 f i sockets:TcpSocket.obj
 0001:00027bb0       ??0?$_Const_iterator@$00@?$list@PAUOUTPUT@TcpSocket@@V?$allocator@PAUOUTPUT@TcpSocket@@@std@@@std@@QAE@ABV012@@Z 00428bb0 f i sockets:TcpSocket.obj
 0001:00027bf0       ??1?$_Const_iterator@$00@?$list@PAUOUTPUT@TcpSocket@@V?$allocator@PAUOUTPUT@TcpSocket@@@std@@@std@@QAE@XZ 00428bf0 f i sockets:TcpSocket.obj
 0001:00027c20       ??0?$_Bidit@PAUOUTPUT@TcpSocket@@HPBQAU12@ABQAU12@@std@@QAE@ABU01@@Z 00428c20 f i sockets:TcpSocket.obj
 0001:00027c50       ??1?$_Bidit@PAUOUTPUT@TcpSocket@@HPBQAU12@ABQAU12@@std@@QAE@XZ 00428c50 f i sockets:TcpSocket.obj
 0001:00027c80       ??0?$_Iterator_with_base@Ubidirectional_iterator_tag@std@@PAUOUTPUT@TcpSocket@@HPBQAU34@ABQAU34@V_Iterator_base@2@@std@@QAE@ABU01@@Z 00428c80 f i sockets:TcpSocket.obj
 0001:00027cb0       ??1?$_Iterator_with_base@Ubidirectional_iterator_tag@std@@PAUOUTPUT@TcpSocket@@HPBQAU34@ABQAU34@V_Iterator_base@2@@std@@QAE@XZ 00428cb0 f i sockets:TcpSocket.obj
 0001:00027ce0       ?Open@TcpSocket@@QAE_NKG_N@Z 00428ce0 f   sockets:TcpSocket.obj
 0001:00027de0       ?Open@TcpSocket@@QAE_NAAVSocketAddress@@_N@Z 00428de0 f   sockets:TcpSocket.obj
 0001:00027ee0       ?Open@TcpSocket@@QAE_NAAVSocketAddress@@0_N@Z 00428ee0 f   sockets:TcpSocket.obj
 0001:000286c0       ?Open@TcpSocket@@QAE_NABV?$basic_string@DU?$char_traits@D@std@@V?$allocator@D@2@@std@@G@Z 004296c0 f   sockets:TcpSocket.obj
 0001:00028850       ?OnResolved@TcpSocket@@UAEXHKG@Z 00429850 f   sockets:TcpSocket.obj
 0001:00028b60       ?OnRead@TcpSocket@@MAEXXZ  00429b60 f   sockets:TcpSocket.obj
 0001:00028f80       ?GetTrafficMonitor@Socket@@IAEPAVIFile@@XZ 00429f80 f i sockets:TcpSocket.obj
 0001:00028fa0       ?OnRead@TcpSocket@@IAEXPADI@Z 00429fa0 f   sockets:TcpSocket.obj
 0001:00029250       ?OnWriteComplete@TcpSocket@@UAEXXZ 0042a250 f   sockets:TcpSocket.obj
 0001:00029270       ?OnWrite@TcpSocket@@MAEXXZ 0042a270 f   sockets:TcpSocket.obj
 0001:000296d0       ?Remove@OUTPUT@TcpSocket@@QAEII@Z 0042a6d0 f i sockets:TcpSocket.obj
 0001:00029710       ?Buf@OUTPUT@TcpSocket@@QAEPBDXZ 0042a710 f i sockets:TcpSocket.obj
 0001:00029730       ?Len@OUTPUT@TcpSocket@@QAEIXZ 0042a730 f i sockets:TcpSocket.obj
 0001:00029750       ?TryWrite@TcpSocket@@AAEHPBDI@Z 0042a750 f   sockets:TcpSocket.obj
 0001:00029950       ?Buffer@TcpSocket@@AAEXPBDI@Z 0042a950 f   sockets:TcpSocket.obj
 0001:00029ad0       ??0OUTPUT@TcpSocket@@QAE@XZ 0042aad0 f i sockets:TcpSocket.obj
 0001:00029b10       ?Space@OUTPUT@TcpSocket@@QAEIXZ 0042ab10 f i sockets:TcpSocket.obj
 0001:00029b30       ?Add@OUTPUT@TcpSocket@@QAEXPBDI@Z 0042ab30 f i sockets:TcpSocket.obj
 0001:00029b90       ?Send@TcpSocket@@UAEXABV?$basic_string@DU?$char_traits@D@std@@V?$allocator@D@2@@std@@H@Z 0042ab90 f   sockets:TcpSocket.obj
 0001:00029c00       ?SendBuf@TcpSocket@@UAEXPBDIH@Z 0042ac00 f   sockets:TcpSocket.obj
 0001:0002a190       ?OnLine@TcpSocket@@UAEXABV?$basic_string@DU?$char_traits@D@std@@V?$allocator@D@2@@std@@@Z 0042b190 f   sockets:TcpSocket.obj
 0001:0002a1b0       ??0TcpSocket@@IAE@ABV0@@Z  0042b1b0 f   sockets:TcpSocket.obj
 0001:0002a280       ??0StreamSocket@@IAE@ABV0@@Z 0042b280 f i sockets:TcpSocket.obj
 0001:0002a2c0       ??0Socket@@IAE@XZ          0042b2c0 f i sockets:TcpSocket.obj
 0001:0002a380       ??_GSocket@@UAEPAXI@Z      0042b380 f i sockets:TcpSocket.obj
 0001:0002a380       ??_ESocket@@UAEPAXI@Z      0042b380 f i sockets:TcpSocket.obj
 0001:0002a3c0       ??_GStreamSocket@@UAEPAXI@Z 0042b3c0 f i sockets:TcpSocket.obj
 0001:0002a3c0       ??_EStreamSocket@@UAEPAXI@Z 0042b3c0 f i sockets:TcpSocket.obj
 0001:0002a400       ?Sendf@TcpSocket@@QAAXPBDZZ 0042b400 f   sockets:TcpSocket.obj
 0001:0002a530       ?Close@TcpSocket@@UAEHXZ   0042b530 f   sockets:TcpSocket.obj
 0001:0002a8e0       ?SetReconnect@TcpSocket@@QAEX_N@Z 0042b8e0 f   sockets:TcpSocket.obj
 0001:0002a900       ?OnRawData@TcpSocket@@UAEXPBDI@Z 0042b900 f   sockets:TcpSocket.obj
 0001:0002a920       ?GetInputLength@TcpSocket@@QAEIXZ 0042b920 f   sockets:TcpSocket.obj
 0001:0002a950       ?GetOutputLength@TcpSocket@@QAEIXZ 0042b950 f   sockets:TcpSocket.obj
 0001:0002a970       ?GetBytesReceived@TcpSocket@@UAE_K_N@Z 0042b970 f   sockets:TcpSocket.obj
 0001:0002a9d0       ?GetBytesSent@TcpSocket@@UAE_K_N@Z 0042b9d0 f   sockets:TcpSocket.obj
 0001:0002aa30       ?Reconnect@TcpSocket@@QAE_NXZ 0042ba30 f   sockets:TcpSocket.obj
 0001:0002aa50       ?SetIsReconnect@TcpSocket@@QAEX_N@Z 0042ba50 f   sockets:TcpSocket.obj
 0001:0002aa70       ?IsReconnect@TcpSocket@@QAE_NXZ 0042ba70 f   sockets:TcpSocket.obj
 0001:0002aa90       ?DisableInputBuffer@TcpSocket@@QAEX_N@Z 0042ba90 f   sockets:TcpSocket.obj
 0001:0002aab0       ?OnOptions@TcpSocket@@UAEXHHHI@Z 0042bab0 f   sockets:TcpSocket.obj
 0001:0002aaf0       ?SetLineProtocol@TcpSocket@@UAEX_N@Z 0042baf0 f   sockets:TcpSocket.obj
 0001:0002ab30       ?SetTcpNodelay@TcpSocket@@QAE_N_N@Z 0042bb30 f   sockets:TcpSocket.obj
 0001:0002acb0       ??0CircularBuffer@TcpSocket@@QAE@I@Z 0042bcb0 f   sockets:TcpSocket.obj
 0001:0002ad30       ??1CircularBuffer@TcpSocket@@QAE@XZ 0042bd30 f   sockets:TcpSocket.obj
 0001:0002ad70       ?Write@CircularBuffer@TcpSocket@@QAE_NPBDI@Z 0042bd70 f   sockets:TcpSocket.obj
 0001:0002aec0       ?Read@CircularBuffer@TcpSocket@@QAE_NPADI@Z 0042bec0 f   sockets:TcpSocket.obj
 0001:0002b000       ?SoftRead@CircularBuffer@TcpSocket@@QAE_NPADI@Z 0042c000 f   sockets:TcpSocket.obj
 0001:0002b0c0       ?Remove@CircularBuffer@TcpSocket@@QAE_NI@Z 0042c0c0 f   sockets:TcpSocket.obj
 0001:0002b0f0       ?GetLength@CircularBuffer@TcpSocket@@QAEIXZ 0042c0f0 f   sockets:TcpSocket.obj
 0001:0002b110       ?GetStart@CircularBuffer@TcpSocket@@QAEPBDXZ 0042c110 f   sockets:TcpSocket.obj
 0001:0002b130       ?GetL@CircularBuffer@TcpSocket@@QAEIXZ 0042c130 f   sockets:TcpSocket.obj
 0001:0002b180       ?Space@CircularBuffer@TcpSocket@@QAEIXZ 0042c180 f   sockets:TcpSocket.obj
 0001:0002b1a0       ?ByteCounter@CircularBuffer@TcpSocket@@QAEK_N@Z 0042c1a0 f   sockets:TcpSocket.obj
 0001:0002b1f0       ?ReadString@CircularBuffer@TcpSocket@@QAE?AV?$basic_string@DU?$char_traits@D@std@@V?$allocator@D@2@@std@@I@Z 0042c1f0 f   sockets:TcpSocket.obj
 0001:0002b370       ?OnConnectTimeout@TcpSocket@@UAEXXZ 0042c370 f   sockets:TcpSocket.obj
 0001:0002b510       ?OnException@TcpSocket@@UAEXXZ 0042c510 f   sockets:TcpSocket.obj
 0001:0002b690       ?Protocol@TcpSocket@@UAEHXZ 0042c690 f   sockets:TcpSocket.obj
 0001:0002b6b0       ?SetTransferLimit@TcpSocket@@QAEXI@Z 0042c6b0 f   sockets:TcpSocket.obj
 0001:0002b6d0       ?OnTransferLimit@TcpSocket@@UAEXXZ 0042c6d0 f   sockets:TcpSocket.obj
 0001:0002b6f0       ??0?$auto_ptr@VSocketAddress@@@std@@QAE@PAVSocketAddress@@@Z 0042c6f0 f i sockets:TcpSocket.obj
 0001:0002b710       ??1?$auto_ptr@VSocketAddress@@@std@@QAE@XZ 0042c710 f i sockets:TcpSocket.obj
 0001:0002b780       ??0?$list@PAUOUTPUT@TcpSocket@@V?$allocator@PAUOUTPUT@TcpSocket@@@std@@@std@@QAE@XZ 0042c780 f i sockets:TcpSocket.obj
 0001:0002b810       ??1?$list@PAUOUTPUT@TcpSocket@@V?$allocator@PAUOUTPUT@TcpSocket@@@std@@@std@@QAE@XZ 0042c810 f i sockets:TcpSocket.obj
 0001:0002b880       ?begin@?$list@PAUOUTPUT@TcpSocket@@V?$allocator@PAUOUTPUT@TcpSocket@@@std@@@std@@QAE?AV?$_Iterator@$00@12@XZ 0042c880 f i sockets:TcpSocket.obj
 0001:0002b8e0       ?size@?$list@PAUOUTPUT@TcpSocket@@V?$allocator@PAUOUTPUT@TcpSocket@@@std@@@std@@QBEIXZ 0042c8e0 f i sockets:TcpSocket.obj
 0001:0002b900       ?push_back@?$list@PAUOUTPUT@TcpSocket@@V?$allocator@PAUOUTPUT@TcpSocket@@@std@@@std@@QAEXABQAUOUTPUT@TcpSocket@@@Z 0042c900 f i sockets:TcpSocket.obj
 0001:0002b9b0       ?erase@?$list@PAUOUTPUT@TcpSocket@@V?$allocator@PAUOUTPUT@TcpSocket@@@std@@@std@@QAE?AV?$_Iterator@$00@12@V?$_Const_iterator@$00@12@@Z 0042c9b0 f i sockets:TcpSocket.obj
 0001:0002bb60       ??D?$_Iterator@$00@?$list@PAUOUTPUT@TcpSocket@@V?$allocator@PAUOUTPUT@TcpSocket@@@std@@@std@@QBEAAPAUOUTPUT@TcpSocket@@XZ 0042cb60 f i sockets:TcpSocket.obj
 0001:0002bb90       ??1?$_List_val@PAUOUTPUT@TcpSocket@@V?$allocator@PAUOUTPUT@TcpSocket@@@std@@@std@@QAE@XZ 0042cb90 f i sockets:TcpSocket.obj
 0001:0002bbc0       ??1?$_List_ptr@PAUOUTPUT@TcpSocket@@V?$allocator@PAUOUTPUT@TcpSocket@@@std@@@std@@QAE@XZ 0042cbc0 f i sockets:TcpSocket.obj
 0001:0002bbf0       ??1?$_List_nod@PAUOUTPUT@TcpSocket@@V?$allocator@PAUOUTPUT@TcpSocket@@@std@@@std@@QAE@XZ 0042cbf0 f i sockets:TcpSocket.obj
 0001:0002bc20       ?_Nextnode@?$list@PAUOUTPUT@TcpSocket@@V?$allocator@PAUOUTPUT@TcpSocket@@@std@@@std@@KAAAPAU_Node@?$_List_nod@PAUOUTPUT@TcpSocket@@V?$allocator@PAUOUTPUT@TcpSocket@@@std@@@2@PAU342@@Z 0042cc20 f i sockets:TcpSocket.obj
 0001:0002bc30       ?_Prevnode@?$list@PAUOUTPUT@TcpSocket@@V?$allocator@PAUOUTPUT@TcpSocket@@@std@@@std@@KAAAPAU_Node@?$_List_nod@PAUOUTPUT@TcpSocket@@V?$allocator@PAUOUTPUT@TcpSocket@@@std@@@2@PAU342@@Z 0042cc30 f i sockets:TcpSocket.obj
 0001:0002bc40       ?end@?$list@PAUOUTPUT@TcpSocket@@V?$allocator@PAUOUTPUT@TcpSocket@@@std@@@std@@QAE?AV?$_Iterator@$00@12@XZ 0042cc40 f i sockets:TcpSocket.obj
 0001:0002bc90       ?_Make_iter@?$list@PAUOUTPUT@TcpSocket@@V?$allocator@PAUOUTPUT@TcpSocket@@@std@@@std@@QBE?AV?$_Iterator@$00@12@V?$_Const_iterator@$00@12@@Z 0042cc90 f i sockets:TcpSocket.obj
 0001:0002bd20       ?_Insert@?$list@PAUOUTPUT@TcpSocket@@V?$allocator@PAUOUTPUT@TcpSocket@@@std@@@std@@QAEXV?$_Const_iterator@$00@12@ABQAUOUTPUT@TcpSocket@@@Z 0042cd20 f i sockets:TcpSocket.obj
 0001:0002be20       ?_Buynode@?$list@PAUOUTPUT@TcpSocket@@V?$allocator@PAUOUTPUT@TcpSocket@@@std@@@std@@IAEPAU_Node@?$_List_nod@PAUOUTPUT@TcpSocket@@V?$allocator@PAUOUTPUT@TcpSocket@@@std@@@2@XZ 0042ce20 f i sockets:TcpSocket.obj
 0001:0002bf70       ?_Tidy@?$list@PAUOUTPUT@TcpSocket@@V?$allocator@PAUOUTPUT@TcpSocket@@@std@@@std@@IAEXXZ 0042cf70 f i sockets:TcpSocket.obj
 0001:0002bff0       ?_Orphan_ptr@?$list@PAUOUTPUT@TcpSocket@@V?$allocator@PAUOUTPUT@TcpSocket@@@std@@@std@@IBEXAAV12@PAU_Node@?$_List_nod@PAUOUTPUT@TcpSocket@@V?$allocator@PAUOUTPUT@TcpSocket@@@std@@@2@@Z 0042cff0 f i sockets:TcpSocket.obj
 0001:0002c0d0       ??0?$_List_val@PAUOUTPUT@TcpSocket@@V?$allocator@PAUOUTPUT@TcpSocket@@@std@@@std@@QAE@V?$allocator@PAUOUTPUT@TcpSocket@@@1@@Z 0042d0d0 f i sockets:TcpSocket.obj
 0001:0002c120       ??1?$_Container_base_aux_alloc_empty@V?$allocator@PAUOUTPUT@TcpSocket@@@std@@@std@@IAE@XZ 0042d120 f i sockets:TcpSocket.obj
 0001:0002c150       ??0?$allocator@PAUOUTPUT@TcpSocket@@@std@@QAE@XZ 0042d150 f i sockets:TcpSocket.obj
 0001:0002c170       ?deallocate@?$allocator@U_Node@?$_List_nod@PAUOUTPUT@TcpSocket@@V?$allocator@PAUOUTPUT@TcpSocket@@@std@@@std@@@std@@QAEXPAU_Node@?$_List_nod@PAUOUTPUT@TcpSocket@@V?$allocator@PAUOUTPUT@TcpSocket@@@std@@@2@I@Z 0042d170 f i sockets:TcpSocket.obj
 0001:0002c1a0       ?destroy@?$allocator@U_Node@?$_List_nod@PAUOUTPUT@TcpSocket@@V?$allocator@PAUOUTPUT@TcpSocket@@@std@@@std@@@std@@QAEXPAU_Node@?$_List_nod@PAUOUTPUT@TcpSocket@@V?$allocator@PAUOUTPUT@TcpSocket@@@std@@@2@@Z 0042d1a0 f i sockets:TcpSocket.obj
 0001:0002c1d0       ??0?$_Iterator@$00@?$list@PAUOUTPUT@TcpSocket@@V?$allocator@PAUOUTPUT@TcpSocket@@@std@@@std@@QAE@PAU_Node@?$_List_nod@PAUOUTPUT@TcpSocket@@V?$allocator@PAUOUTPUT@TcpSocket@@@std@@@2@PBV12@@Z 0042d1d0 f i sockets:TcpSocket.obj
 0001:0002c210       ??D?$_Const_iterator@$00@?$list@PAUOUTPUT@TcpSocket@@V?$allocator@PAUOUTPUT@TcpSocket@@@std@@@std@@QBEABQAUOUTPUT@TcpSocket@@XZ 0042d210 f i sockets:TcpSocket.obj
 0001:0002c2f0       ??E?$_Const_iterator@$00@?$list@PAUOUTPUT@TcpSocket@@V?$allocator@PAUOUTPUT@TcpSocket@@@std@@@std@@QAE?AV012@H@Z 0042d2f0 f i sockets:TcpSocket.obj
 0001:0002c3c0       ?_Mynode@?$_Const_iterator@$00@?$list@PAUOUTPUT@TcpSocket@@V?$allocator@PAUOUTPUT@TcpSocket@@@std@@@std@@QBEPAU_Node@?$_List_nod@PAUOUTPUT@TcpSocket@@V?$allocator@PAUOUTPUT@TcpSocket@@@std@@@3@XZ 0042d3c0 f i sockets:TcpSocket.obj
 0001:0002c3e0       ?_Myval@?$list@PAUOUTPUT@TcpSocket@@V?$allocator@PAUOUTPUT@TcpSocket@@@std@@@std@@KAAAPAUOUTPUT@TcpSocket@@PAU_Node@?$_List_nod@PAUOUTPUT@TcpSocket@@V?$allocator@PAUOUTPUT@TcpSocket@@@std@@@2@@Z 0042d3e0 f i sockets:TcpSocket.obj
 0001:0002c3f0       ?clear@?$list@PAUOUTPUT@TcpSocket@@V?$allocator@PAUOUTPUT@TcpSocket@@@std@@@std@@QAEXXZ 0042d3f0 f i sockets:TcpSocket.obj
 0001:0002c4c0       ?_Buynode@?$list@PAUOUTPUT@TcpSocket@@V?$allocator@PAUOUTPUT@TcpSocket@@@std@@@std@@IAEPAU_Node@?$_List_nod@PAUOUTPUT@TcpSocket@@V?$allocator@PAUOUTPUT@TcpSocket@@@std@@@2@PAU342@0ABQAUOUTPUT@TcpSocket@@@Z 0042d4c0 f i sockets:TcpSocket.obj
 0001:0002c630       ?_Incsize@?$list@PAUOUTPUT@TcpSocket@@V?$allocator@PAUOUTPUT@TcpSocket@@@std@@@std@@IAEXI@Z 0042d630 f i sockets:TcpSocket.obj
 0001:0002c700       ??0?$_List_ptr@PAUOUTPUT@TcpSocket@@V?$allocator@PAUOUTPUT@TcpSocket@@@std@@@std@@IAE@V?$allocator@PAUOUTPUT@TcpSocket@@@1@@Z 0042d700 f i sockets:TcpSocket.obj
 0001:0002c750       ??0?$allocator@PAUOUTPUT@TcpSocket@@@std@@QAE@ABV01@@Z 0042d750 f i sockets:TcpSocket.obj
 0001:0002c770       ?allocate@?$allocator@U_Node@?$_List_nod@PAUOUTPUT@TcpSocket@@V?$allocator@PAUOUTPUT@TcpSocket@@@std@@@std@@@std@@QAEPAU_Node@?$_List_nod@PAUOUTPUT@TcpSocket@@V?$allocator@PAUOUTPUT@TcpSocket@@@std@@@2@I@Z 0042d770 f i sockets:TcpSocket.obj
 0001:0002c7a0       ?construct@?$allocator@PAU_Node@?$_List_nod@PAUOUTPUT@TcpSocket@@V?$allocator@PAUOUTPUT@TcpSocket@@@std@@@std@@@std@@QAEXPAPAU_Node@?$_List_nod@PAUOUTPUT@TcpSocket@@V?$allocator@PAUOUTPUT@TcpSocket@@@std@@@2@ABQAU342@@Z 0042d7a0 f i sockets:TcpSocket.obj
 0001:0002c7d0       ?destroy@?$allocator@PAU_Node@?$_List_nod@PAUOUTPUT@TcpSocket@@V?$allocator@PAUOUTPUT@TcpSocket@@@std@@@std@@@std@@QAEXPAPAU_Node@?$_List_nod@PAUOUTPUT@TcpSocket@@V?$allocator@PAUOUTPUT@TcpSocket@@@std@@@2@@Z 0042d7d0 f i sockets:TcpSocket.obj
 0001:0002c800       ??0?$_Const_iterator@$00@?$list@PAUOUTPUT@TcpSocket@@V?$allocator@PAUOUTPUT@TcpSocket@@@std@@@std@@QAE@PAU_Node@?$_List_nod@PAUOUTPUT@TcpSocket@@V?$allocator@PAUOUTPUT@TcpSocket@@@std@@@2@PBV12@@Z 0042d800 f i sockets:TcpSocket.obj
 0001:0002c880       ??E?$_Const_iterator@$00@?$list@PAUOUTPUT@TcpSocket@@V?$allocator@PAUOUTPUT@TcpSocket@@@std@@@std@@QAEAAV012@XZ 0042d880 f i sockets:TcpSocket.obj
 0001:0002c960       ??0?$_Bidit@PAUOUTPUT@TcpSocket@@HPBQAU12@ABQAU12@@std@@QAE@XZ 0042d960 f i sockets:TcpSocket.obj
 0001:0002c990       ??0?$_Iterator_with_base@Ubidirectional_iterator_tag@std@@PAUOUTPUT@TcpSocket@@HPBQAU34@ABQAU34@V_Iterator_base@2@@std@@QAE@XZ 0042d990 f i sockets:TcpSocket.obj
 0001:0002c9c0       ?max_size@?$list@PAUOUTPUT@TcpSocket@@V?$allocator@PAUOUTPUT@TcpSocket@@@std@@@std@@QBEIXZ 0042d9c0 f i sockets:TcpSocket.obj
 0001:0002c9f0       ??0?$_List_nod@PAUOUTPUT@TcpSocket@@V?$allocator@PAUOUTPUT@TcpSocket@@@std@@@std@@IAE@V?$allocator@PAUOUTPUT@TcpSocket@@@1@@Z 0042d9f0 f i sockets:TcpSocket.obj
 0001:0002ca40       ?construct@?$allocator@PAUOUTPUT@TcpSocket@@@std@@QAEXPAPAUOUTPUT@TcpSocket@@ABQAU34@@Z 0042da40 f i sockets:TcpSocket.obj
 0001:0002ca70       ??0?$_Container_base_aux_alloc_empty@V?$allocator@PAUOUTPUT@TcpSocket@@@std@@@std@@IAE@V?$allocator@PAUOUTPUT@TcpSocket@@@1@@Z 0042da70 f i sockets:TcpSocket.obj
 0001:0002cab0       ?max_size@?$allocator@PAUOUTPUT@TcpSocket@@@std@@QBEIXZ 0042dab0 f i sockets:TcpSocket.obj
 0001:0002cb00       ??$_Destroy@U_Node@?$_List_nod@PAUOUTPUT@TcpSocket@@V?$allocator@PAUOUTPUT@TcpSocket@@@std@@@std@@@std@@YAXPAU_Node@?$_List_nod@PAUOUTPUT@TcpSocket@@V?$allocator@PAUOUTPUT@TcpSocket@@@std@@@0@@Z 0042db00 f i sockets:TcpSocket.obj
 0001:0002cb10       ??$?0PAUOUTPUT@TcpSocket@@@?$allocator@PAU_Node@?$_List_nod@PAUOUTPUT@TcpSocket@@V?$allocator@PAUOUTPUT@TcpSocket@@@std@@@std@@@std@@QAE@ABV?$allocator@PAUOUTPUT@TcpSocket@@@1@@Z 0042db10 f i sockets:TcpSocket.obj
 0001:0002cb30       ??$_Allocate@U_Node@?$_List_nod@PAUOUTPUT@TcpSocket@@V?$allocator@PAUOUTPUT@TcpSocket@@@std@@@std@@@std@@YAPAU_Node@?$_List_nod@PAUOUTPUT@TcpSocket@@V?$allocator@PAUOUTPUT@TcpSocket@@@std@@@0@IPAU120@@Z 0042db30 f i sockets:TcpSocket.obj
 0001:0002cba0       ??$_Construct@PAU_Node@?$_List_nod@PAUOUTPUT@TcpSocket@@V?$allocator@PAUOUTPUT@TcpSocket@@@std@@@std@@PAU123@@std@@YAXPAPAU_Node@?$_List_nod@PAUOUTPUT@TcpSocket@@V?$allocator@PAUOUTPUT@TcpSocket@@@std@@@0@ABQAU120@@Z 0042dba0 f i sockets:TcpSocket.obj
 0001:0002cc00       ??$_Destroy@PAU_Node@?$_List_nod@PAUOUTPUT@TcpSocket@@V?$allocator@PAUOUTPUT@TcpSocket@@@std@@@std@@@std@@YAXPAPAU_Node@?$_List_nod@PAUOUTPUT@TcpSocket@@V?$allocator@PAUOUTPUT@TcpSocket@@@std@@@0@@Z 0042dc00 f i sockets:TcpSocket.obj
 0001:0002cc10       ??$?0PAUOUTPUT@TcpSocket@@@?$allocator@U_Node@?$_List_nod@PAUOUTPUT@TcpSocket@@V?$allocator@PAUOUTPUT@TcpSocket@@@std@@@std@@@std@@QAE@ABV?$allocator@PAUOUTPUT@TcpSocket@@@1@@Z 0042dc10 f i sockets:TcpSocket.obj
 0001:0002cc30       ??$_Construct@PAUOUTPUT@TcpSocket@@PAU12@@std@@YAXPAPAUOUTPUT@TcpSocket@@ABQAU12@@Z 0042dc30 f i sockets:TcpSocket.obj
 0001:0002cc90       ??0Socket@@QAE@AAVISocketHandler@@@Z 0042dc90 f   sockets:Socket.obj
 0001:0002ce20       ??1Socket@@UAE@XZ          0042de20 f   sockets:Socket.obj
 0001:0002cf00       ?Init@Socket@@UAEXXZ       0042df00 f   sockets:Socket.obj
 0001:0002cf20       ?OnRead@Socket@@UAEXXZ     0042df20 f   sockets:Socket.obj
 0001:0002cf40       ?OnWrite@Socket@@UAEXXZ    0042df40 f   sockets:Socket.obj
 0001:0002cf60       ?OnException@Socket@@UAEXXZ 0042df60 f   sockets:Socket.obj
 0001:0002d070       ?OnDelete@Socket@@UAEXXZ   0042e070 f   sockets:Socket.obj
 0001:0002d090       ?OnConnect@Socket@@UAEXXZ  0042e090 f   sockets:Socket.obj
 0001:0002d0b0       ?OnAccept@Socket@@UAEXXZ   0042e0b0 f   sockets:Socket.obj
 0001:0002d0d0       ?Close@Socket@@UAEHXZ      0042e0d0 f   sockets:Socket.obj
 0001:0002d430       ?CreateSocket@Socket@@QAEIHHABV?$basic_string@DU?$char_traits@D@std@@V?$allocator@D@2@@std@@@Z 0042e430 f   sockets:Socket.obj
 0001:0002d750       ?Attach@Socket@@QAEXI@Z    0042e750 f   sockets:Socket.obj
 0001:0002d770       ?GetSocket@Socket@@QAEIXZ  0042e770 f   sockets:Socket.obj
 0001:0002d790       ?SetDeleteByHandler@Socket@@QAEX_N@Z 0042e790 f   sockets:Socket.obj
 0001:0002d7b0       ?DeleteByHandler@Socket@@QAE_NXZ 0042e7b0 f   sockets:Socket.obj
 0001:0002d7d0       ?SetCloseAndDelete@Socket@@QAEX_N@Z 0042e7d0 f   sockets:Socket.obj
 0001:0002d860       ?CloseAndDelete@Socket@@QAE_NXZ 0042e860 f   sockets:Socket.obj
 0001:0002d880       ?SetRemoteAddress@Socket@@QAEXAAVSocketAddress@@@Z 0042e880 f   sockets:Socket.obj
 0001:0002d8f0       ?GetRemoteSocketAddress@Socket@@QAE?AV?$auto_ptr@VSocketAddress@@@std@@XZ 0042e8f0 f   sockets:Socket.obj
 0001:0002d9b0       ?Handler@Socket@@QBEAAVISocketHandler@@XZ 0042e9b0 f   sockets:Socket.obj
 0001:0002d9f0       ?MasterHandler@Socket@@QBEAAVISocketHandler@@XZ 0042e9f0 f   sockets:Socket.obj
 0001:0002da10       ?GetRemoteIP4@Socket@@QAEKXZ 0042ea10 f   sockets:Socket.obj
 0001:0002dad0       ?GetRemotePort@Socket@@QAEGXZ 0042ead0 f   sockets:Socket.obj
 0001:0002db30       ?GetRemoteAddress@Socket@@QAE?AV?$basic_string@DU?$char_traits@D@std@@V?$allocator@D@2@@std@@XZ 0042eb30 f   sockets:Socket.obj
 0001:0002dbe0       ?GetRemoteHostname@Socket@@QAE?AV?$basic_string@DU?$char_traits@D@std@@V?$allocator@D@2@@std@@XZ 0042ebe0 f   sockets:Socket.obj
 0001:0002dc80       ?SetNonblocking@Socket@@QAE_N_N@Z 0042ec80 f   sockets:Socket.obj
 0001:0002ddf0       ?SetNonblocking@Socket@@QAE_N_NI@Z 0042edf0 f   sockets:Socket.obj
 0001:0002df60       ?Set@Socket@@QAEX_N00@Z    0042ef60 f   sockets:Socket.obj
 0001:0002dfc0       ?Ready@Socket@@UAE_NXZ     0042efc0 f   sockets:Socket.obj
 0001:0002e000       ?OnLine@Socket@@UAEXABV?$basic_string@DU?$char_traits@D@std@@V?$allocator@D@2@@std@@@Z 0042f000 f   sockets:Socket.obj
 0001:0002e020       ?OnConnectFailed@Socket@@UAEXXZ 0042f020 f   sockets:Socket.obj
 0001:0002e040       ?GetParent@Socket@@QAEPAV1@XZ 0042f040 f   sockets:Socket.obj
 0001:0002e060       ?SetParent@Socket@@QAEXPAV1@@Z 0042f060 f   sockets:Socket.obj
 0001:0002e080       ?GetPort@Socket@@UAEGXZ    0042f080 f   sockets:Socket.obj
 0001:0002e180       ?OnConnectRetry@Socket@@UAE_NXZ 0042f180 f   sockets:Socket.obj
 0001:0002e1a0       ?OnReconnect@Socket@@UAEXXZ 0042f1a0 f   sockets:Socket.obj
 0001:0002e1c0       ?Uptime@Socket@@QAE_JXZ    0042f1c0 f   sockets:Socket.obj
 0001:0002e1f0       ?DisableRead@Socket@@QAEX_N@Z 0042f1f0 f   sockets:Socket.obj
 0001:0002e210       ?IsDisableRead@Socket@@QAE_NXZ 0042f210 f   sockets:Socket.obj
 0001:0002e230       ?SendBuf@Socket@@UAEXPBDIH@Z 0042f230 f   sockets:Socket.obj
 0001:0002e250       ?Send@Socket@@UAEXABV?$basic_string@DU?$char_traits@D@std@@V?$allocator@D@2@@std@@H@Z 0042f250 f   sockets:Socket.obj
 0001:0002e270       ?SetConnected@Socket@@QAEX_N@Z 0042f270 f   sockets:Socket.obj
 0001:0002e290       ?IsConnected@Socket@@QAE_NXZ 0042f290 f   sockets:Socket.obj
 0001:0002e2b0       ?OnDisconnect@Socket@@UAEXXZ 0042f2b0 f   sockets:Socket.obj
 0001:0002e2d0       ?SetLost@Socket@@QAEXXZ    0042f2d0 f   sockets:Socket.obj
 0001:0002e2f0       ?Lost@Socket@@QAE_NXZ      0042f2f0 f   sockets:Socket.obj
 0001:0002e310       ?SetErasedByHandler@Socket@@QAEX_N@Z 0042f310 f   sockets:Socket.obj
 0001:0002e330       ?ErasedByHandler@Socket@@QAE_NXZ 0042f330 f   sockets:Socket.obj
 0001:0002e350       ?TimeSinceClose@Socket@@QAE_JXZ 0042f350 f   sockets:Socket.obj
 0001:0002e380       ?SetClientRemoteAddress@Socket@@QAEXAAVSocketAddress@@@Z 0042f380 f   sockets:Socket.obj
 0001:0002e4e0       ?GetClientRemoteAddress@Socket@@QAE?AV?$auto_ptr@VSocketAddress@@@std@@XZ 0042f4e0 f   sockets:Socket.obj
 0001:0002e650       ?GetBytesSent@Socket@@UAE_K_N@Z 0042f650 f   sockets:Socket.obj
 0001:0002e670       ?GetBytesReceived@Socket@@UAE_K_N@Z 0042f670 f   sockets:Socket.obj
 0001:0002e690       ?CopyConnection@Socket@@QAEXPAV1@@Z 0042f690 f   sockets:Socket.obj
 0001:0002e7a0       ?SetIsClient@Socket@@QAEXXZ 0042f7a0 f   sockets:Socket.obj
 0001:0002e7c0       ?SetSocketType@Socket@@QAEXH@Z 0042f7c0 f   sockets:Socket.obj
 0001:0002e7e0       ?GetSocketType@Socket@@QAEHXZ 0042f7e0 f   sockets:Socket.obj
 0001:0002e800       ?SetSocketProtocol@Socket@@QAEXABV?$basic_string@DU?$char_traits@D@std@@V?$allocator@D@2@@std@@@Z 0042f800 f   sockets:Socket.obj
 0001:0002e840       ?GetSocketProtocol@Socket@@QAEABV?$basic_string@DU?$char_traits@D@std@@V?$allocator@D@2@@std@@XZ 0042f840 f   sockets:Socket.obj
 0001:0002e860       ?SetRetain@Socket@@QAEXXZ  0042f860 f   sockets:Socket.obj
 0001:0002e890       ?Retain@Socket@@QAE_NXZ    0042f890 f   sockets:Socket.obj
 0001:0002e8b0       ?Detach@Socket@@QAE_NXZ    0042f8b0 f   sockets:Socket.obj
 0001:0002e910       ?DetachSocket@Socket@@QAEXXZ 0042f910 f   sockets:Socket.obj
 0001:0002e9d0       ?OnDetached@Socket@@UAEXXZ 0042f9d0 f   sockets:Socket.obj
 0001:0002e9f0       ?SetDetach@Socket@@QAEX_N@Z 0042f9f0 f   sockets:Socket.obj
 0001:0002ea60       ?IsDetach@Socket@@QAE_NXZ  0042fa60 f   sockets:Socket.obj
 0001:0002ea80       ?SetDetached@Socket@@QAEX_N@Z 0042fa80 f   sockets:Socket.obj
 0001:0002eaa0       ?IsDetached@Socket@@QBE?B_NXZ 0042faa0 f   sockets:Socket.obj
 0001:0002eac0       ?SetSlaveHandler@Socket@@QAEXPAVISocketHandler@@@Z 0042fac0 f   sockets:Socket.obj
 0001:0002eae0       ??0SocketThread@Socket@@QAE@PAV1@@Z 0042fae0 f   sockets:Socket.obj
 0001:0002eb20       ??_ESocketThread@Socket@@UAEPAXI@Z 0042fb20 f i sockets:Socket.obj
 0001:0002eb20       ??_GSocketThread@Socket@@UAEPAXI@Z 0042fb20 f i sockets:Socket.obj
 0001:0002eb60       ??1SocketThread@Socket@@UAE@XZ 0042fb60 f   sockets:Socket.obj
 0001:0002ec00       ?Run@SocketThread@Socket@@UAEXXZ 0042fc00 f   sockets:Socket.obj
 0001:0002ed40       ?Resolve@Socket@@QAEHABV?$basic_string@DU?$char_traits@D@std@@V?$allocator@D@2@@std@@G@Z 0042fd40 f   sockets:Socket.obj
 0001:0002eda0       ?Resolve@Socket@@QAEHK@Z   0042fda0 f   sockets:Socket.obj
 0001:0002ee00       ?OnResolved@Socket@@UAEXHKG@Z 0042fe00 f   sockets:Socket.obj
 0001:0002ee20       ?OnReverseResolved@Socket@@UAEXHABV?$basic_string@DU?$char_traits@D@std@@V?$allocator@D@2@@std@@@Z 0042fe20 f   sockets:Socket.obj
 0001:0002ee40       ?OnResolveFailed@Socket@@UAEXH@Z 0042fe40 f   sockets:Socket.obj
 0001:0002ee60       ?SetIpOptions@Socket@@QAE_NPBXH@Z 0042fe60 f   sockets:Socket.obj
 0001:0002efb0       ?SetIpPktinfo@Socket@@QAE_N_N@Z 0042ffb0 f   sockets:Socket.obj
 0001:0002f130       ?SetIpTOS@Socket@@QAE_NE@Z 00430130 f   sockets:Socket.obj
 0001:0002f280       ?IpTOS@Socket@@QAEEXZ      00430280 f   sockets:Socket.obj
 0001:0002f410       ?SetIpTTL@Socket@@QAE_NH@Z 00430410 f   sockets:Socket.obj
 0001:0002f560       ?IpTTL@Socket@@QAEHXZ      00430560 f   sockets:Socket.obj
 0001:0002f6f0       ?SetIpHdrincl@Socket@@QAE_N_N@Z 004306f0 f   sockets:Socket.obj
 0001:0002f870       ?SetIpMulticastTTL@Socket@@QAE_NH@Z 00430870 f   sockets:Socket.obj
 0001:0002f9c0       ?IpMulticastTTL@Socket@@QAEHXZ 004309c0 f   sockets:Socket.obj
 0001:0002fb50       ?SetMulticastLoop@Socket@@QAE_N_N@Z 00430b50 f   sockets:Socket.obj
 0001:0002fcd0       ?IpAddMembership@Socket@@QAE_NAAUip_mreq@@@Z 00430cd0 f   sockets:Socket.obj
 0001:0002fe20       ?IpDropMembership@Socket@@QAE_NAAUip_mreq@@@Z 00430e20 f   sockets:Socket.obj
 0001:0002ff70       ?SetSoReuseaddr@Socket@@QAE_N_N@Z 00430f70 f   sockets:Socket.obj
 0001:00030100       ?SetSoKeepalive@Socket@@QAE_N_N@Z 00431100 f   sockets:Socket.obj
 0001:00030290       ?SoAcceptconn@Socket@@QAE_NXZ 00431290 f   sockets:Socket.obj
 0001:00030430       ?SetSoBroadcast@Socket@@QAE_N_N@Z 00431430 f   sockets:Socket.obj
 0001:000305c0       ?SetSoDebug@Socket@@QAE_N_N@Z 004315c0 f   sockets:Socket.obj
 0001:00030750       ?SoError@Socket@@QAEHXZ    00431750 f   sockets:Socket.obj
 0001:000308f0       ?SetSoDontroute@Socket@@QAE_N_N@Z 004318f0 f   sockets:Socket.obj
 0001:00030a80       ?SetSoLinger@Socket@@QAE_NHH@Z 00431a80 f   sockets:Socket.obj
 0001:00030c10       ?SetSoOobinline@Socket@@QAE_N_N@Z 00431c10 f   sockets:Socket.obj
 0001:00030da0       ?SetSoRcvlowat@Socket@@QAE_NH@Z 00431da0 f   sockets:Socket.obj
 0001:00030ef0       ?SetSoSndlowat@Socket@@QAE_NH@Z 00431ef0 f   sockets:Socket.obj
 0001:00031040       ?SetSoRcvtimeo@Socket@@QAE_NAAUtimeval@@@Z 00432040 f   sockets:Socket.obj
 0001:00031190       ?SetSoSndtimeo@Socket@@QAE_NAAUtimeval@@@Z 00432190 f   sockets:Socket.obj
 0001:000312e0       ?SetSoRcvbuf@Socket@@QAE_NH@Z 004322e0 f   sockets:Socket.obj
 0001:00031430       ?SoRcvbuf@Socket@@QAEHXZ   00432430 f   sockets:Socket.obj
 0001:000315d0       ?SetSoSndbuf@Socket@@QAE_NH@Z 004325d0 f   sockets:Socket.obj
 0001:00031720       ?SoSndbuf@Socket@@QAEHXZ   00432720 f   sockets:Socket.obj
 0001:000318c0       ?SoType@Socket@@QAEHXZ     004328c0 f   sockets:Socket.obj
 0001:00031a60       ?SetTimeout@Socket@@QAEX_J@Z 00432a60 f   sockets:Socket.obj
 0001:00031b20       ?OnTimeout@Socket@@UAEXXZ  00432b20 f   sockets:Socket.obj
 0001:00031b40       ?OnConnectTimeout@Socket@@UAEXXZ 00432b40 f   sockets:Socket.obj
 0001:00031b60       ?Timeout@Socket@@QAE_N_J@Z 00432b60 f   sockets:Socket.obj
 0001:00031bc0       ?GetSockPort@Socket@@QAEGXZ 00432bc0 f   sockets:Socket.obj
 0001:00031ca0       ?GetSockIP4@Socket@@QAEKXZ 00432ca0 f   sockets:Socket.obj
 0001:00031d90       ?GetSockAddress@Socket@@QAE?AV?$basic_string@DU?$char_traits@D@std@@V?$allocator@D@2@@std@@XZ 00432d90 f   sockets:Socket.obj
 0001:00031ed0       ??0?$auto_ptr@VSocketAddress@@@std@@QAE@U?$auto_ptr_ref@VSocketAddress@@@1@@Z 00432ed0 f i sockets:Socket.obj
 0001:00031f10       ??4?$auto_ptr@VSocketAddress@@@std@@QAEAAV01@U?$auto_ptr_ref@VSocketAddress@@@1@@Z 00432f10 f i sockets:Socket.obj
 0001:00031f60       ??D?$auto_ptr@VSocketAddress@@@std@@QBEAAVSocketAddress@@XZ 00432f60 f i sockets:Socket.obj
 0001:00031fb0       ??C?$auto_ptr@VSocketAddress@@@std@@QBEPAVSocketAddress@@XZ 00432fb0 f i sockets:Socket.obj
 0001:00032000       ?get@?$auto_ptr@VSocketAddress@@@std@@QBEPAVSocketAddress@@XZ 00433000 f i sockets:Socket.obj
 0001:00032020       ?reset@?$auto_ptr@VSocketAddress@@@std@@QAEXPAVSocketAddress@@@Z 00433020 f i sockets:Socket.obj
 0001:000320a0       ??$?BVSocketAddress@@@?$auto_ptr@VSocketAddress@@@std@@QAE?AU?$auto_ptr_ref@VSocketAddress@@@1@XZ 004330a0 f i sockets:Socket.obj
 0001:00032130       ??0?$auto_ptr_ref@VSocketAddress@@@std@@QAE@PAVSocketAddress@@@Z 00433130 f i sockets:Socket.obj
 0001:00032150       ??0WSAInitializer@@QAE@XZ  00433150 f i sockets:Socket.obj
 0001:000321a0       ??1WSAInitializer@@QAE@XZ  004331a0 f i sockets:Socket.obj
 0001:000321d0       ??0StreamSocket@@QAE@AAVISocketHandler@@@Z 004331d0 f   sockets:StreamSocket.obj
 0001:00032270       ??1StreamSocket@@UAE@XZ    00433270 f   sockets:StreamSocket.obj
 0001:000322a0       ?SetConnecting@StreamSocket@@QAEX_N@Z 004332a0 f   sockets:StreamSocket.obj
 0001:00032310       ?Connecting@StreamSocket@@QAE_NXZ 00433310 f   sockets:StreamSocket.obj
 0001:00032330       ?Ready@StreamSocket@@UAE_NXZ 00433330 f   sockets:StreamSocket.obj
 0001:00032380       ?SetConnectTimeout@StreamSocket@@QAEXH@Z 00433380 f   sockets:StreamSocket.obj
 0001:000323a0       ?GetConnectTimeout@StreamSocket@@QAEHXZ 004333a0 f   sockets:StreamSocket.obj
 0001:000323c0       ?SetFlushBeforeClose@StreamSocket@@QAEX_N@Z 004333c0 f   sockets:StreamSocket.obj
 0001:000323e0       ?GetFlushBeforeClose@StreamSocket@@QAE_NXZ 004333e0 f   sockets:StreamSocket.obj
 0001:00032400       ?GetConnectionRetry@StreamSocket@@QAEHXZ 00433400 f   sockets:StreamSocket.obj
 0001:00032420       ?SetConnectionRetry@StreamSocket@@QAEXH@Z 00433420 f   sockets:StreamSocket.obj
 0001:00032440       ?GetConnectionRetries@StreamSocket@@QAEHXZ 00433440 f   sockets:StreamSocket.obj
 0001:00032460       ?IncreaseConnectionRetries@StreamSocket@@QAEXXZ 00433460 f   sockets:StreamSocket.obj
 0001:00032490       ?ResetConnectionRetries@StreamSocket@@QAEXXZ 00433490 f   sockets:StreamSocket.obj
 0001:000324b0       ?SetCallOnConnect@StreamSocket@@QAEX_N@Z 004334b0 f   sockets:StreamSocket.obj
 0001:00032520       ?CallOnConnect@StreamSocket@@QAE_NXZ 00433520 f   sockets:StreamSocket.obj
 0001:00032540       ?SetRetryClientConnect@StreamSocket@@QAEX_N@Z 00433540 f   sockets:StreamSocket.obj
 0001:000325b0       ?RetryClientConnect@StreamSocket@@QAE_NXZ 004335b0 f   sockets:StreamSocket.obj
 0001:000325d0       ?SetLineProtocol@StreamSocket@@UAEX_N@Z 004335d0 f   sockets:StreamSocket.obj
 0001:000325f0       ?LineProtocol@StreamSocket@@QAE_NXZ 004335f0 f   sockets:StreamSocket.obj
 0001:00032610       ?SetShutdown@StreamSocket@@QAEXH@Z 00433610 f   sockets:StreamSocket.obj
 0001:00032630       ?GetShutdown@StreamSocket@@QAEHXZ 00433630 f   sockets:StreamSocket.obj
 0001:00032650       ??0SocketHandler@@QAE@PAVStdLog@@@Z 00433650 f   sockets:SocketHandler.obj
 0001:00032820       ??1ISocketHandler@@UAE@XZ  00433820 f i sockets:SocketHandler.obj
 0001:00032840       ??_GISocketHandler@@UAEPAXI@Z 00433840 f i sockets:SocketHandler.obj
 0001:00032840       ??_EISocketHandler@@UAEPAXI@Z 00433840 f i sockets:SocketHandler.obj
 0001:00032880       ??_ESocketHandler@@UAEPAXI@Z 00433880 f i sockets:SocketHandler.obj
 0001:00032880       ??_GSocketHandler@@UAEPAXI@Z 00433880 f i sockets:SocketHandler.obj
 0001:000328c0       ??0ISocketHandler@@QAE@XZ  004338c0 f i sockets:SocketHandler.obj
 0001:000328e0       ??1?$map@IPAVSocket@@U?$less@I@std@@V?$allocator@U?$pair@$$CBIPAVSocket@@@std@@@3@@std@@QAE@XZ 004338e0 f i sockets:SocketHandler.obj
 0001:00032910       ??0SocketHandler@@QAE@AAVMutex@@PAVStdLog@@@Z 00433910 f   sockets:SocketHandler.obj
 0001:00032af0       ??1?$map@PAVSocket@@_NU?$less@PAVSocket@@@std@@V?$allocator@U?$pair@QAVSocket@@_N@std@@@3@@std@@QAE@XZ 00433af0 f i sockets:SocketHandler.obj
 0001:00032b20       ??1SocketHandler@@UAE@XZ   00433b20 f   sockets:SocketHandler.obj
 0001:00032e20       ??1iterator@?$_Tree@V?$_Tmap_traits@IPAVSocket@@U?$less@I@std@@V?$allocator@U?$pair@$$CBIPAVSocket@@@std@@@3@$0A@@std@@@std@@QAE@XZ 00433e20 f i sockets:SocketHandler.obj
 0001:00032e50       ??0const_iterator@?$_Tree@V?$_Tmap_traits@IPAVSocket@@U?$less@I@std@@V?$allocator@U?$pair@$$CBIPAVSocket@@@std@@@3@$0A@@std@@@std@@QAE@ABV012@@Z 00433e50 f i sockets:SocketHandler.obj
 0001:00032e90       ??1const_iterator@?$_Tree@V?$_Tmap_traits@IPAVSocket@@U?$less@I@std@@V?$allocator@U?$pair@$$CBIPAVSocket@@@std@@@3@$0A@@std@@@std@@QAE@XZ 00433e90 f i sockets:SocketHandler.obj
 0001:00032ec0       ??0?$_Bidit@U?$pair@$$CBIPAVSocket@@@std@@HPBU12@ABU12@@std@@QAE@ABU01@@Z 00433ec0 f i sockets:SocketHandler.obj
 0001:00032ef0       ??1?$_Bidit@U?$pair@$$CBIPAVSocket@@@std@@HPBU12@ABU12@@std@@QAE@XZ 00433ef0 f i sockets:SocketHandler.obj
 0001:00032f20       ??0?$_Iterator_with_base@Ubidirectional_iterator_tag@std@@U?$pair@$$CBIPAVSocket@@@2@HPBU32@ABU32@V_Iterator_base@2@@std@@QAE@ABU01@@Z 00433f20 f i sockets:SocketHandler.obj
 0001:00032f50       ??1?$_Iterator_with_base@Ubidirectional_iterator_tag@std@@U?$pair@$$CBIPAVSocket@@@2@HPBU32@ABU32@V_Iterator_base@2@@std@@QAE@XZ 00433f50 f i sockets:SocketHandler.obj
 0001:00032f80       ?GetMutex@SocketHandler@@UBEAAVMutex@@XZ 00433f80 f   sockets:SocketHandler.obj
 0001:00032fa0       ?SetSlave@SocketHandler@@UAEX_N@Z 00433fa0 f   sockets:SocketHandler.obj
 0001:00032fc0       ?IsSlave@SocketHandler@@UAE_NXZ 00433fc0 f   sockets:SocketHandler.obj
 0001:00032fe0       ?RegStdLog@SocketHandler@@UAEXPAVStdLog@@@Z 00433fe0 f   sockets:SocketHandler.obj
 0001:00033000       ?LogError@SocketHandler@@UAEXPAVSocket@@ABV?$basic_string@DU?$char_traits@D@std@@V?$allocator@D@2@@std@@H1W4loglevel_t@@@Z 00434000 f   sockets:SocketHandler.obj
 0001:00033060       ?Add@SocketHandler@@UAEXPAVSocket@@@Z 00434060 f   sockets:SocketHandler.obj
 0001:00033300       ?Get@SocketHandler@@UAEXIAA_N00@Z 00434300 f   sockets:SocketHandler.obj
 0001:00033380       ?Set@SocketHandler@@UAEXI_N00@Z 00434380 f   sockets:SocketHandler.obj
 0001:00033710       ?Select@SocketHandler@@UAEHJJ@Z 00434710 f   sockets:SocketHandler.obj
 0001:00033790       ?Select@SocketHandler@@UAEHXZ 00434790 f   sockets:SocketHandler.obj
 0001:00033880       ?Select@SocketHandler@@UAEHPAUtimeval@@@Z 00434880 f   sockets:SocketHandler.obj
 0001:000366f0       ??0PoolSocket@ISocketHandler@@QAE@AAV1@PAVSocket@@@Z 004376f0 f i sockets:SocketHandler.obj
 0001:00036780       ?OnRead@PoolSocket@ISocketHandler@@UAEXXZ 00437780 f i sockets:SocketHandler.obj
 0001:00036880       ?OnOptions@PoolSocket@ISocketHandler@@UAEXHHHI@Z 00437880 f i sockets:SocketHandler.obj
 0001:000368a0       ??_EPoolSocket@ISocketHandler@@UAEPAXI@Z 004378a0 f i sockets:SocketHandler.obj
 0001:000368a0       ??_GPoolSocket@ISocketHandler@@UAEPAXI@Z 004378a0 f i sockets:SocketHandler.obj
 0001:000368e0       ??1PoolSocket@ISocketHandler@@UAE@XZ 004378e0 f i sockets:SocketHandler.obj
 0001:00036910       ??1?$_Iterator@$00@?$list@IV?$allocator@I@std@@@std@@QAE@XZ 00437910 f i sockets:SocketHandler.obj
 0001:00036940       ??4iterator@?$_Tree@V?$_Tmap_traits@IPAVSocket@@U?$less@I@std@@V?$allocator@U?$pair@$$CBIPAVSocket@@@std@@@3@$0A@@std@@@std@@QAEAAV012@ABV012@@Z 00437940 f i sockets:SocketHandler.obj
 0001:00036970       ??0?$_Const_iterator@$00@?$list@IV?$allocator@I@std@@@std@@QAE@ABV012@@Z 00437970 f i sockets:SocketHandler.obj
 0001:000369b0       ??1?$_Const_iterator@$00@?$list@IV?$allocator@I@std@@@std@@QAE@XZ 004379b0 f i sockets:SocketHandler.obj
 0001:000369e0       ??1?$_Iterator@$00@?$list@PAVSocket@@V?$allocator@PAVSocket@@@std@@@std@@QAE@XZ 004379e0 f i sockets:SocketHandler.obj
 0001:00036a10       ??0?$_Const_iterator@$00@?$list@PAVSocket@@V?$allocator@PAVSocket@@@std@@@std@@QAE@ABV012@@Z 00437a10 f i sockets:SocketHandler.obj
 0001:00036a50       ??1?$_Const_iterator@$00@?$list@PAVSocket@@V?$allocator@PAVSocket@@@std@@@std@@QAE@XZ 00437a50 f i sockets:SocketHandler.obj
 0001:00036a80       ??4const_iterator@?$_Tree@V?$_Tmap_traits@IPAVSocket@@U?$less@I@std@@V?$allocator@U?$pair@$$CBIPAVSocket@@@std@@@3@$0A@@std@@@std@@QAEAAV012@ABV012@@Z 00437a80 f i sockets:SocketHandler.obj
 0001:00036ac0       ??0?$_Bidit@IHPBIABI@std@@QAE@ABU01@@Z 00437ac0 f i sockets:SocketHandler.obj
 0001:00036af0       ??1?$_Bidit@IHPBIABI@std@@QAE@XZ 00437af0 f i sockets:SocketHandler.obj
 0001:00036b20       ??0?$_Bidit@PAVSocket@@HPBQAV1@ABQAV1@@std@@QAE@ABU01@@Z 00437b20 f i sockets:SocketHandler.obj
 0001:00036b50       ??1?$_Bidit@PAVSocket@@HPBQAV1@ABQAV1@@std@@QAE@XZ 00437b50 f i sockets:SocketHandler.obj
 0001:00036b80       ??4?$_Bidit@U?$pair@$$CBIPAVSocket@@@std@@HPBU12@ABU12@@std@@QAEAAU01@ABU01@@Z 00437b80 f i sockets:SocketHandler.obj
 0001:00036bb0       ??0?$_Iterator_with_base@Ubidirectional_iterator_tag@std@@IHPBIABIV_Iterator_base@2@@std@@QAE@ABU01@@Z 00437bb0 f i sockets:SocketHandler.obj
 0001:00036be0       ??1?$_Iterator_with_base@Ubidirectional_iterator_tag@std@@IHPBIABIV_Iterator_base@2@@std@@QAE@XZ 00437be0 f i sockets:SocketHandler.obj
 0001:00036c10       ??0?$_Iterator_with_base@Ubidirectional_iterator_tag@std@@PAVSocket@@HPBQAV3@ABQAV3@V_Iterator_base@2@@std@@QAE@ABU01@@Z 00437c10 f i sockets:SocketHandler.obj
 0001:00036c40       ??1?$_Iterator_with_base@Ubidirectional_iterator_tag@std@@PAVSocket@@HPBQAV3@ABQAV3@V_Iterator_base@2@@std@@QAE@XZ 00437c40 f i sockets:SocketHandler.obj
 0001:00036c70       ??4?$_Iterator_with_base@Ubidirectional_iterator_tag@std@@U?$pair@$$CBIPAVSocket@@@2@HPBU32@ABU32@V_Iterator_base@2@@std@@QAEAAU01@ABU01@@Z 00437c70 f i sockets:SocketHandler.obj
 0001:00036ca0       ?Resolving@SocketHandler@@UAE_NPAVSocket@@@Z 00437ca0 f   sockets:SocketHandler.obj
 0001:00036d90       ??1iterator@?$_Tree@V?$_Tmap_traits@PAVSocket@@_NU?$less@PAVSocket@@@std@@V?$allocator@U?$pair@QAVSocket@@_N@std@@@3@$0A@@std@@@std@@QAE@XZ 00437d90 f i sockets:SocketHandler.obj
 0001:00036dc0       ??1const_iterator@?$_Tree@V?$_Tmap_traits@PAVSocket@@_NU?$less@PAVSocket@@@std@@V?$allocator@U?$pair@QAVSocket@@_N@std@@@3@$0A@@std@@@std@@QAE@XZ 00437dc0 f i sockets:SocketHandler.obj
 0001:00036df0       ??1?$_Bidit@U?$pair@QAVSocket@@_N@std@@HPBU12@ABU12@@std@@QAE@XZ 00437df0 f i sockets:SocketHandler.obj
 0001:00036e20       ??1?$_Iterator_with_base@Ubidirectional_iterator_tag@std@@U?$pair@QAVSocket@@_N@2@HPBU32@ABU32@V_Iterator_base@2@@std@@QAE@XZ 00437e20 f i sockets:SocketHandler.obj
 0001:00036e50       ?Valid@SocketHandler@@UAE_NPAVSocket@@@Z 00437e50 f   sockets:SocketHandler.obj
 0001:00036f80       ?OkToAccept@SocketHandler@@UAE_NPAVSocket@@@Z 00437f80 f   sockets:SocketHandler.obj
 0001:00036fa0       ?GetCount@SocketHandler@@UAEIXZ 00437fa0 f   sockets:SocketHandler.obj
 0001:00036ff0       ?Resolve@SocketHandler@@UAEHPAVSocket@@ABV?$basic_string@DU?$char_traits@D@std@@V?$allocator@D@2@@std@@G@Z 00437ff0 f   sockets:SocketHandler.obj
 0001:00037250       ?SetId@ResolvSocket@@QAEXH@Z 00438250 f i sockets:SocketHandler.obj
 0001:00037270       ?GetId@ResolvSocket@@QAEHXZ 00438270 f i sockets:SocketHandler.obj
 0001:00037290       ?Resolve@SocketHandler@@UAEHPAVSocket@@K@Z 00438290 f   sockets:SocketHandler.obj
 0001:000374f0       ?EnableResolver@SocketHandler@@UAEXG@Z 004384f0 f   sockets:SocketHandler.obj
 0001:000375b0       ?ResolverReady@SocketHandler@@UAE_NXZ 004385b0 f   sockets:SocketHandler.obj
 0001:00037600       ?ResolverEnabled@SocketHandler@@UAE_NXZ 00438600 f   sockets:SocketHandler.obj
 0001:00037620       ?GetResolverPort@SocketHandler@@UAEGXZ 00438620 f   sockets:SocketHandler.obj
 0001:00037640       ?FindConnection@SocketHandler@@UAEPAVPoolSocket@ISocketHandler@@HABV?$basic_string@DU?$char_traits@D@std@@V?$allocator@D@2@@std@@AAVSocketAddress@@@Z 00438640 f   sockets:SocketHandler.obj
 0001:000378e0       ?EnablePool@SocketHandler@@UAEX_N@Z 004388e0 f   sockets:SocketHandler.obj
 0001:00037900       ?PoolEnabled@SocketHandler@@UAE_NXZ 00438900 f   sockets:SocketHandler.obj
 0001:00037920       ?Remove@SocketHandler@@EAEXPAVSocket@@@Z 00438920 f   sockets:SocketHandler.obj
 0001:00037fb0       ??0const_iterator@?$_Tree@V?$_Tmap_traits@PAVSocket@@_NU?$less@PAVSocket@@@std@@V?$allocator@U?$pair@QAVSocket@@_N@std@@@3@$0A@@std@@@std@@QAE@ABV012@@Z 00438fb0 f i sockets:SocketHandler.obj
 0001:00037ff0       ??0?$_Bidit@U?$pair@QAVSocket@@_N@std@@HPBU12@ABU12@@std@@QAE@ABU01@@Z 00438ff0 f i sockets:SocketHandler.obj
 0001:00038020       ??0?$_Iterator_with_base@Ubidirectional_iterator_tag@std@@U?$pair@QAVSocket@@_N@2@HPBU32@ABU32@V_Iterator_base@2@@std@@QAE@ABU01@@Z 00439020 f i sockets:SocketHandler.obj
 0001:00038050       ?CheckSanity@SocketHandler@@QAEXXZ 00439050 f   sockets:SocketHandler.obj
 0001:000382f0       ?CheckList@SocketHandler@@AAEXAAV?$list@IV?$allocator@I@std@@@std@@ABV?$basic_string@DU?$char_traits@D@std@@V?$allocator@D@2@@3@@Z 004392f0 f   sockets:SocketHandler.obj
 0001:00038660       ?AddList@SocketHandler@@UAEXIW4list_t@@_N@Z 00439660 f   sockets:SocketHandler.obj
 0001:00038980       ??0?$map@IPAVSocket@@U?$less@I@std@@V?$allocator@U?$pair@$$CBIPAVSocket@@@std@@@3@@std@@QAE@XZ 00439980 f i sockets:SocketHandler.obj
 0001:000389c0       ??A?$map@IPAVSocket@@U?$less@I@std@@V?$allocator@U?$pair@$$CBIPAVSocket@@@std@@@3@@std@@QAEAAPAVSocket@@ABI@Z 004399c0 f i sockets:SocketHandler.obj
 0001:00038b80       ??1?$_Tree@V?$_Tmap_traits@IPAVSocket@@U?$less@I@std@@V?$allocator@U?$pair@$$CBIPAVSocket@@@std@@@3@$0A@@std@@@std@@QAE@XZ 00439b80 f i sockets:SocketHandler.obj
 0001:00038bf0       ?begin@?$_Tree@V?$_Tmap_traits@IPAVSocket@@U?$less@I@std@@V?$allocator@U?$pair@$$CBIPAVSocket@@@std@@@3@$0A@@std@@@std@@QAE?AViterator@12@XZ 00439bf0 f i sockets:SocketHandler.obj
 0001:00038c50       ?end@?$_Tree@V?$_Tmap_traits@IPAVSocket@@U?$less@I@std@@V?$allocator@U?$pair@$$CBIPAVSocket@@@std@@@3@$0A@@std@@@std@@QAE?AViterator@12@XZ 00439c50 f i sockets:SocketHandler.obj
 0001:00038ca0       ?size@?$_Tree@V?$_Tmap_traits@IPAVSocket@@U?$less@I@std@@V?$allocator@U?$pair@$$CBIPAVSocket@@@std@@@3@$0A@@std@@@std@@QBEIXZ 00439ca0 f i sockets:SocketHandler.obj
 0001:00038cc0       ?empty@?$_Tree@V?$_Tmap_traits@IPAVSocket@@U?$less@I@std@@V?$allocator@U?$pair@$$CBIPAVSocket@@@std@@@3@$0A@@std@@@std@@QBE_NXZ 00439cc0 f i sockets:SocketHandler.obj
 0001:00038cf0       ?erase@?$_Tree@V?$_Tmap_traits@IPAVSocket@@U?$less@I@std@@V?$allocator@U?$pair@$$CBIPAVSocket@@@std@@@3@$0A@@std@@@std@@QAE?AViterator@12@Vconst_iterator@12@@Z 00439cf0 f i sockets:SocketHandler.obj
 0001:00039510       ?find@?$_Tree@V?$_Tmap_traits@IPAVSocket@@U?$less@I@std@@V?$allocator@U?$pair@$$CBIPAVSocket@@@std@@@3@$0A@@std@@@std@@QAE?AViterator@12@ABI@Z 0043a510 f i sockets:SocketHandler.obj
 0001:000396b0       ??0?$list@PAVSocket@@V?$allocator@PAVSocket@@@std@@@std@@QAE@XZ 0043a6b0 f i sockets:SocketHandler.obj
 0001:00039740       ??1?$list@PAVSocket@@V?$allocator@PAVSocket@@@std@@@std@@QAE@XZ 0043a740 f i sockets:SocketHandler.obj
 0001:000397b0       ?begin@?$list@PAVSocket@@V?$allocator@PAVSocket@@@std@@@std@@QAE?AV?$_Iterator@$00@12@XZ 0043a7b0 f i sockets:SocketHandler.obj
 0001:00039810       ?end@?$list@PAVSocket@@V?$allocator@PAVSocket@@@std@@@std@@QAE?AV?$_Iterator@$00@12@XZ 0043a810 f i sockets:SocketHandler.obj
 0001:00039860       ?size@?$list@PAVSocket@@V?$allocator@PAVSocket@@@std@@@std@@QBEIXZ 0043a860 f i sockets:SocketHandler.obj
 0001:00039880       ?empty@?$list@PAVSocket@@V?$allocator@PAVSocket@@@std@@@std@@QBE_NXZ 0043a880 f i sockets:SocketHandler.obj
 0001:000398a0       ?push_back@?$list@PAVSocket@@V?$allocator@PAVSocket@@@std@@@std@@QAEXABQAVSocket@@@Z 0043a8a0 f i sockets:SocketHandler.obj
 0001:00039950       ?erase@?$list@PAVSocket@@V?$allocator@PAVSocket@@@std@@@std@@QAE?AV?$_Iterator@$00@12@V?$_Const_iterator@$00@12@@Z 0043a950 f i sockets:SocketHandler.obj
 0001:00039b00       ??0?$list@IV?$allocator@I@std@@@std@@QAE@XZ 0043ab00 f i sockets:SocketHandler.obj
 0001:00039b90       ??0?$list@IV?$allocator@I@std@@@std@@QAE@ABV01@@Z 0043ab90 f i sockets:SocketHandler.obj
 0001:00039ce0       ??1?$list@IV?$allocator@I@std@@@std@@QAE@XZ 0043ace0 f i sockets:SocketHandler.obj
 0001:00039d50       ?begin@?$list@IV?$allocator@I@std@@@std@@QAE?AV?$_Iterator@$00@12@XZ 0043ad50 f i sockets:SocketHandler.obj
 0001:00039db0       ?end@?$list@IV?$allocator@I@std@@@std@@QAE?AV?$_Iterator@$00@12@XZ 0043adb0 f i sockets:SocketHandler.obj
 0001:00039e00       ?size@?$list@IV?$allocator@I@std@@@std@@QBEIXZ 0043ae00 f i sockets:SocketHandler.obj
 0001:00039e20       ?empty@?$list@IV?$allocator@I@std@@@std@@QBE_NXZ 0043ae20 f i sockets:SocketHandler.obj
 0001:00039e40       ?push_back@?$list@IV?$allocator@I@std@@@std@@QAEXABI@Z 0043ae40 f i sockets:SocketHandler.obj
 0001:00039ef0       ?erase@?$list@IV?$allocator@I@std@@@std@@QAE?AV?$_Iterator@$00@12@V?$_Const_iterator@$00@12@@Z 0043aef0 f i sockets:SocketHandler.obj
 0001:0003a0a0       ??0?$map@PAVSocket@@_NU?$less@PAVSocket@@@std@@V?$allocator@U?$pair@QAVSocket@@_N@std@@@3@@std@@QAE@XZ 0043b0a0 f i sockets:SocketHandler.obj
 0001:0003a0e0       ??A?$map@PAVSocket@@_NU?$less@PAVSocket@@@std@@V?$allocator@U?$pair@QAVSocket@@_N@std@@@3@@std@@QAEAA_NABQAVSocket@@@Z 0043b0e0 f i sockets:SocketHandler.obj
 0001:0003a2a0       ??1?$_Tree@V?$_Tmap_traits@PAVSocket@@_NU?$less@PAVSocket@@@std@@V?$allocator@U?$pair@QAVSocket@@_N@std@@@3@$0A@@std@@@std@@QAE@XZ 0043b2a0 f i sockets:SocketHandler.obj
 0001:0003a310       ?end@?$_Tree@V?$_Tmap_traits@PAVSocket@@_NU?$less@PAVSocket@@@std@@V?$allocator@U?$pair@QAVSocket@@_N@std@@@3@$0A@@std@@@std@@QAE?AViterator@12@XZ 0043b310 f i sockets:SocketHandler.obj
 0001:0003a360       ?erase@?$_Tree@V?$_Tmap_traits@PAVSocket@@_NU?$less@PAVSocket@@@std@@V?$allocator@U?$pair@QAVSocket@@_N@std@@@3@$0A@@std@@@std@@QAE?AViterator@12@Vconst_iterator@12@@Z 0043b360 f i sockets:SocketHandler.obj
 0001:0003ab80       ?find@?$_Tree@V?$_Tmap_traits@PAVSocket@@_NU?$less@PAVSocket@@@std@@V?$allocator@U?$pair@QAVSocket@@_N@std@@@3@$0A@@std@@@std@@QAE?AViterator@12@ABQAVSocket@@@Z 0043bb80 f i sockets:SocketHandler.obj
 0001:0003ad20       ??Diterator@?$_Tree@V?$_Tmap_traits@IPAVSocket@@U?$less@I@std@@V?$allocator@U?$pair@$$CBIPAVSocket@@@std@@@3@$0A@@std@@@std@@QBEAAU?$pair@$$CBIPAVSocket@@@2@XZ 0043bd20 f i sockets:SocketHandler.obj
 0001:0003ad50       ??Citerator@?$_Tree@V?$_Tmap_traits@IPAVSocket@@U?$less@I@std@@V?$allocator@U?$pair@$$CBIPAVSocket@@@std@@@3@$0A@@std@@@std@@QBEPAU?$pair@$$CBIPAVSocket@@@2@XZ 0043bd50 f i sockets:SocketHandler.obj
 0001:0003ad80       ??Eiterator@?$_Tree@V?$_Tmap_traits@IPAVSocket@@U?$less@I@std@@V?$allocator@U?$pair@$$CBIPAVSocket@@@std@@@3@$0A@@std@@@std@@QAE?AV012@H@Z 0043bd80 f i sockets:SocketHandler.obj
 0001:0003ae50       ??9const_iterator@?$_Tree@V?$_Tmap_traits@IPAVSocket@@U?$less@I@std@@V?$allocator@U?$pair@$$CBIPAVSocket@@@std@@@3@$0A@@std@@@std@@QBE_NABV012@@Z 0043be50 f i sockets:SocketHandler.obj
 0001:0003ae90       ??D?$_Iterator@$00@?$list@IV?$allocator@I@std@@@std@@QBEAAIXZ 0043be90 f i sockets:SocketHandler.obj
 0001:0003aec0       ??E?$_Iterator@$00@?$list@IV?$allocator@I@std@@@std@@QAE?AV012@H@Z 0043bec0 f i sockets:SocketHandler.obj
 0001:0003af90       ??9?$_Const_iterator@$00@?$list@IV?$allocator@I@std@@@std@@QBE_NABV012@@Z 0043bf90 f i sockets:SocketHandler.obj
 0001:0003afd0       ??D?$_Iterator@$00@?$list@PAVSocket@@V?$allocator@PAVSocket@@@std@@@std@@QBEAAPAVSocket@@XZ 0043bfd0 f i sockets:SocketHandler.obj
 0001:0003b000       ??E?$_Iterator@$00@?$list@PAVSocket@@V?$allocator@PAVSocket@@@std@@@std@@QAE?AV012@H@Z 0043c000 f i sockets:SocketHandler.obj
 0001:0003b0d0       ??9?$_Const_iterator@$00@?$list@PAVSocket@@V?$allocator@PAVSocket@@@std@@@std@@QBE_NABV012@@Z 0043c0d0 f i sockets:SocketHandler.obj
 0001:0003b110       ??9const_iterator@?$_Tree@V?$_Tmap_traits@PAVSocket@@_NU?$less@PAVSocket@@@std@@V?$allocator@U?$pair@QAVSocket@@_N@std@@@3@$0A@@std@@@std@@QBE_NABV012@@Z 0043c110 f i sockets:SocketHandler.obj
 0001:0003b150       ??1?$_Tree_val@V?$_Tmap_traits@IPAVSocket@@U?$less@I@std@@V?$allocator@U?$pair@$$CBIPAVSocket@@@std@@@3@$0A@@std@@@std@@QAE@XZ 0043c150 f i sockets:SocketHandler.obj
 0001:0003b180       ??0iterator@?$_Tree@V?$_Tmap_traits@IPAVSocket@@U?$less@I@std@@V?$allocator@U?$pair@$$CBIPAVSocket@@@std@@@3@$0A@@std@@@std@@QAE@ABV012@@Z 0043c180 f i sockets:SocketHandler.obj
 0001:0003b1b0       ??1?$_List_val@PAVSocket@@V?$allocator@PAVSocket@@@std@@@std@@QAE@XZ 0043c1b0 f i sockets:SocketHandler.obj
 0001:0003b1e0       ??1?$_List_val@IV?$allocator@I@std@@@std@@QAE@XZ 0043c1e0 f i sockets:SocketHandler.obj
 0001:0003b210       ??4iterator@?$_Tree@V?$_Tmap_traits@PAVSocket@@_NU?$less@PAVSocket@@@std@@V?$allocator@U?$pair@QAVSocket@@_N@std@@@3@$0A@@std@@@std@@QAEAAV012@ABV012@@Z 0043c210 f i sockets:SocketHandler.obj
 0001:0003b240       ??1?$_Tree_val@V?$_Tmap_traits@PAVSocket@@_NU?$less@PAVSocket@@@std@@V?$allocator@U?$pair@QAVSocket@@_N@std@@@3@$0A@@std@@@std@@QAE@XZ 0043c240 f i sockets:SocketHandler.obj
 0001:0003b270       ??0iterator@?$_Tree@V?$_Tmap_traits@PAVSocket@@_NU?$less@PAVSocket@@@std@@V?$allocator@U?$pair@QAVSocket@@_N@std@@@3@$0A@@std@@@std@@QAE@ABV012@@Z 0043c270 f i sockets:SocketHandler.obj
 0001:0003b2a0       ??0?$_Iterator@$00@?$list@IV?$allocator@I@std@@@std@@QAE@ABV012@@Z 0043c2a0 f i sockets:SocketHandler.obj
 0001:0003b2d0       ??0?$_Iterator@$00@?$list@PAVSocket@@V?$allocator@PAVSocket@@@std@@@std@@QAE@ABV012@@Z 0043c2d0 f i sockets:SocketHandler.obj
 0001:0003b300       ??1?$_Tree_ptr@V?$_Tmap_traits@IPAVSocket@@U?$less@I@std@@V?$allocator@U?$pair@$$CBIPAVSocket@@@std@@@3@$0A@@std@@@std@@QAE@XZ 0043c300 f i sockets:SocketHandler.obj
 0001:0003b330       ??1?$_List_ptr@PAVSocket@@V?$allocator@PAVSocket@@@std@@@std@@QAE@XZ 0043c330 f i sockets:SocketHandler.obj
 0001:0003b360       ??1?$_List_ptr@IV?$allocator@I@std@@@std@@QAE@XZ 0043c360 f i sockets:SocketHandler.obj
 0001:0003b390       ??4const_iterator@?$_Tree@V?$_Tmap_traits@PAVSocket@@_NU?$less@PAVSocket@@@std@@V?$allocator@U?$pair@QAVSocket@@_N@std@@@3@$0A@@std@@@std@@QAEAAV012@ABV012@@Z 0043c390 f i sockets:SocketHandler.obj
 0001:0003b3d0       ??1?$_Tree_ptr@V?$_Tmap_traits@PAVSocket@@_NU?$less@PAVSocket@@@std@@V?$allocator@U?$pair@QAVSocket@@_N@std@@@3@$0A@@std@@@std@@QAE@XZ 0043c3d0 f i sockets:SocketHandler.obj
 0001:0003b400       ??1?$_Tree_nod@V?$_Tmap_traits@IPAVSocket@@U?$less@I@std@@V?$allocator@U?$pair@$$CBIPAVSocket@@@std@@@3@$0A@@std@@@std@@QAE@XZ 0043c400 f i sockets:SocketHandler.obj
 0001:0003b430       ??1?$_List_nod@PAVSocket@@V?$allocator@PAVSocket@@@std@@@std@@QAE@XZ 0043c430 f i sockets:SocketHandler.obj
 0001:0003b460       ??1?$_List_nod@IV?$allocator@I@std@@@std@@QAE@XZ 0043c460 f i sockets:SocketHandler.obj
 0001:0003b490       ??4?$_Bidit@U?$pair@QAVSocket@@_N@std@@HPBU12@ABU12@@std@@QAEAAU01@ABU01@@Z 0043c490 f i sockets:SocketHandler.obj
 0001:0003b4c0       ??1?$_Tree_nod@V?$_Tmap_traits@PAVSocket@@_NU?$less@PAVSocket@@@std@@V?$allocator@U?$pair@QAVSocket@@_N@std@@@3@$0A@@std@@@std@@QAE@XZ 0043c4c0 f i sockets:SocketHandler.obj
 0001:0003b4f0       ??1?$_Tmap_traits@IPAVSocket@@U?$less@I@std@@V?$allocator@U?$pair@$$CBIPAVSocket@@@std@@@3@$0A@@std@@QAE@XZ 0043c4f0 f i sockets:SocketHandler.obj
 0001:0003b520       ??4?$_Iterator_with_base@Ubidirectional_iterator_tag@std@@U?$pair@QAVSocket@@_N@2@HPBU32@ABU32@V_Iterator_base@2@@std@@QAEAAU01@ABU01@@Z 0043c520 f i sockets:SocketHandler.obj
 0001:0003b550       ??1?$_Tmap_traits@PAVSocket@@_NU?$less@PAVSocket@@@std@@V?$allocator@U?$pair@QAVSocket@@_N@std@@@3@$0A@@std@@QAE@XZ 0043c550 f i sockets:SocketHandler.obj
 0001:0003b580       ?_Color@?$_Tree@V?$_Tmap_traits@IPAVSocket@@U?$less@I@std@@V?$allocator@U?$pair@$$CBIPAVSocket@@@std@@@3@$0A@@std@@@std@@KAAADPAU_Node@?$_Tree_nod@V?$_Tmap_traits@IPAVSocket@@U?$less@I@std@@V?$allocator@U?$pair@$$CBIPAVSocket@@@std@@@3@$0A@@std@@@2@@Z 0043c580 f i sockets:SocketHandler.obj
 0001:0003b590       ?_Isnil@?$_Tree@V?$_Tmap_traits@IPAVSocket@@U?$less@I@std@@V?$allocator@U?$pair@$$CBIPAVSocket@@@std@@@3@$0A@@std@@@std@@KAAADPAU_Node@?$_Tree_nod@V?$_Tmap_traits@IPAVSocket@@U?$less@I@std@@V?$allocator@U?$pair@$$CBIPAVSocket@@@std@@@3@$0A@@std@@@2@@Z 0043c590 f i sockets:SocketHandler.obj
 0001:0003b5a0       ?_Key@?$_Tree@V?$_Tmap_traits@IPAVSocket@@U?$less@I@std@@V?$allocator@U?$pair@$$CBIPAVSocket@@@std@@@3@$0A@@std@@@std@@KAABIPAU_Node@?$_Tree_nod@V?$_Tmap_traits@IPAVSocket@@U?$less@I@std@@V?$allocator@U?$pair@$$CBIPAVSocket@@@std@@@3@$0A@@std@@@2@@Z 0043c5a0 f i sockets:SocketHandler.obj
 0001:0003b5d0       ?_Left@?$_Tree@V?$_Tmap_traits@IPAVSocket@@U?$less@I@std@@V?$allocator@U?$pair@$$CBIPAVSocket@@@std@@@3@$0A@@std@@@std@@KAAAPAU_Node@?$_Tree_nod@V?$_Tmap_traits@IPAVSocket@@U?$less@I@std@@V?$allocator@U?$pair@$$CBIPAVSocket@@@std@@@3@$0A@@std@@@2@PAU342@@Z 0043c5d0 f i sockets:SocketHandler.obj
 0001:0003b5e0       ?_Parent@?$_Tree@V?$_Tmap_traits@IPAVSocket@@U?$less@I@std@@V?$allocator@U?$pair@$$CBIPAVSocket@@@std@@@3@$0A@@std@@@std@@KAAAPAU_Node@?$_Tree_nod@V?$_Tmap_traits@IPAVSocket@@U?$less@I@std@@V?$allocator@U?$pair@$$CBIPAVSocket@@@std@@@3@$0A@@std@@@2@PAU342@@Z 0043c5e0 f i sockets:SocketHandler.obj
 0001:0003b5f0       ?_Right@?$_Tree@V?$_Tmap_traits@IPAVSocket@@U?$less@I@std@@V?$allocator@U?$pair@$$CBIPAVSocket@@@std@@@3@$0A@@std@@@std@@KAAAPAU_Node@?$_Tree_nod@V?$_Tmap_traits@IPAVSocket@@U?$less@I@std@@V?$allocator@U?$pair@$$CBIPAVSocket@@@std@@@3@$0A@@std@@@2@PAU342@@Z 0043c5f0 f i sockets:SocketHandler.obj
 0001:0003b600       ??0?$_Tree@V?$_Tmap_traits@IPAVSocket@@U?$less@I@std@@V?$allocator@U?$pair@$$CBIPAVSocket@@@std@@@3@$0A@@std@@@std@@QAE@ABU?$less@I@1@ABV?$allocator@U?$pair@$$CBIPAVSocket@@@std@@@1@@Z 0043c600 f i sockets:SocketHandler.obj
 0001:0003b690       ?_Make_iter@?$_Tree@V?$_Tmap_traits@IPAVSocket@@U?$less@I@std@@V?$allocator@U?$pair@$$CBIPAVSocket@@@std@@@3@$0A@@std@@@std@@QBE?AViterator@12@Vconst_iterator@12@@Z 0043c690 f i sockets:SocketHandler.obj
 0001:0003b750       ?insert@?$_Tree@V?$_Tmap_traits@IPAVSocket@@U?$less@I@std@@V?$allocator@U?$pair@$$CBIPAVSocket@@@std@@@3@$0A@@std@@@std@@QAE?AViterator@12@Vconst_iterator@12@ABU?$pair@$$CBIPAVSocket@@@2@@Z 0043c750 f i sockets:SocketHandler.obj
 0001:0003c2f0       ?lower_bound@?$_Tree@V?$_Tmap_traits@IPAVSocket@@U?$less@I@std@@V?$allocator@U?$pair@$$CBIPAVSocket@@@std@@@3@$0A@@std@@@std@@QAE?AViterator@12@ABI@Z 0043d2f0 f i sockets:SocketHandler.obj
 0001:0003c350       ?_Lmost@?$_Tree@V?$_Tmap_traits@IPAVSocket@@U?$less@I@std@@V?$allocator@U?$pair@$$CBIPAVSocket@@@std@@@3@$0A@@std@@@std@@IBEAAPAU_Node@?$_Tree_nod@V?$_Tmap_traits@IPAVSocket@@U?$less@I@std@@V?$allocator@U?$pair@$$CBIPAVSocket@@@std@@@3@$0A@@std@@@2@XZ 0043d350 f i sockets:SocketHandler.obj
 0001:0003c380       ?_Lrotate@?$_Tree@V?$_Tmap_traits@IPAVSocket@@U?$less@I@std@@V?$allocator@U?$pair@$$CBIPAVSocket@@@std@@@3@$0A@@std@@@std@@IAEXPAU_Node@?$_Tree_nod@V?$_Tmap_traits@IPAVSocket@@U?$less@I@std@@V?$allocator@U?$pair@$$CBIPAVSocket@@@std@@@3@$0A@@std@@@2@@Z 0043d380 f i sockets:SocketHandler.obj
 0001:0003c4d0       ?_Max@?$_Tree@V?$_Tmap_traits@IPAVSocket@@U?$less@I@std@@V?$allocator@U?$pair@$$CBIPAVSocket@@@std@@@3@$0A@@std@@@std@@KAPAU_Node@?$_Tree_nod@V?$_Tmap_traits@IPAVSocket@@U?$less@I@std@@V?$allocator@U?$pair@$$CBIPAVSocket@@@std@@@3@$0A@@std@@@2@PAU342@@Z 0043d4d0 f i sockets:SocketHandler.obj
 0001:0003c510       ?_Min@?$_Tree@V?$_Tmap_traits@IPAVSocket@@U?$less@I@std@@V?$allocator@U?$pair@$$CBIPAVSocket@@@std@@@3@$0A@@std@@@std@@KAPAU_Node@?$_Tree_nod@V?$_Tmap_traits@IPAVSocket@@U?$less@I@std@@V?$allocator@U?$pair@$$CBIPAVSocket@@@std@@@3@$0A@@std@@@2@PAU342@@Z 0043d510 f i sockets:SocketHandler.obj
 0001:0003c550       ?_Rmost@?$_Tree@V?$_Tmap_traits@IPAVSocket@@U?$less@I@std@@V?$allocator@U?$pair@$$CBIPAVSocket@@@std@@@3@$0A@@std@@@std@@IBEAAPAU_Node@?$_Tree_nod@V?$_Tmap_traits@IPAVSocket@@U?$less@I@std@@V?$allocator@U?$pair@$$CBIPAVSocket@@@std@@@3@$0A@@std@@@2@XZ 0043d550 f i sockets:SocketHandler.obj
 0001:0003c580       ?_Root@?$_Tree@V?$_Tmap_traits@IPAVSocket@@U?$less@I@std@@V?$allocator@U?$pair@$$CBIPAVSocket@@@std@@@3@$0A@@std@@@std@@IBEAAPAU_Node@?$_Tree_nod@V?$_Tmap_traits@IPAVSocket@@U?$less@I@std@@V?$allocator@U?$pair@$$CBIPAVSocket@@@std@@@3@$0A@@std@@@2@XZ 0043d580 f i sockets:SocketHandler.obj
 0001:0003c5b0       ?_Rrotate@?$_Tree@V?$_Tmap_traits@IPAVSocket@@U?$less@I@std@@V?$allocator@U?$pair@$$CBIPAVSocket@@@std@@@3@$0A@@std@@@std@@IAEXPAU_Node@?$_Tree_nod@V?$_Tmap_traits@IPAVSocket@@U?$less@I@std@@V?$allocator@U?$pair@$$CBIPAVSocket@@@std@@@3@$0A@@std@@@2@@Z 0043d5b0 f i sockets:SocketHandler.obj
 0001:0003c700       ?_Orphan_ptr@?$_Tree@V?$_Tmap_traits@IPAVSocket@@U?$less@I@std@@V?$allocator@U?$pair@$$CBIPAVSocket@@@std@@@3@$0A@@std@@@std@@IBEXAAV12@PAU_Node@?$_Tree_nod@V?$_Tmap_traits@IPAVSocket@@U?$less@I@std@@V?$allocator@U?$pair@$$CBIPAVSocket@@@std@@@3@$0A@@std@@@2@@Z 0043d700 f i sockets:SocketHandler.obj
 0001:0003c7e0       ?_Tidy@?$_Tree@V?$_Tmap_traits@IPAVSocket@@U?$less@I@std@@V?$allocator@U?$pair@$$CBIPAVSocket@@@std@@@3@$0A@@std@@@std@@IAEXXZ 0043d7e0 f i sockets:SocketHandler.obj
 0001:0003c950       ??1?$_Container_base_aux_alloc_empty@V?$allocator@U?$pair@$$CBIPAVSocket@@@std@@@std@@@std@@IAE@XZ 0043d950 f i sockets:SocketHandler.obj
 0001:0003c980       ??0?$allocator@U?$pair@$$CBIPAVSocket@@@std@@@std@@QAE@XZ 0043d980 f i sockets:SocketHandler.obj
 0001:0003c9a0       ??R?$less@I@std@@QBE_NABI0@Z 0043d9a0 f i sockets:SocketHandler.obj
 0001:0003c9d0       ?deallocate@?$allocator@U_Node@?$_Tree_nod@V?$_Tmap_traits@IPAVSocket@@U?$less@I@std@@V?$allocator@U?$pair@$$CBIPAVSocket@@@std@@@3@$0A@@std@@@std@@@std@@QAEXPAU_Node@?$_Tree_nod@V?$_Tmap_traits@IPAVSocket@@U?$less@I@std@@V?$allocator@U?$pair@$$CBIPAVSocket@@@std@@@3@$0A@@std@@@2@I@Z 0043d9d0 f i sockets:SocketHandler.obj
 0001:0003ca00       ?destroy@?$allocator@U_Node@?$_Tree_nod@V?$_Tmap_traits@IPAVSocket@@U?$less@I@std@@V?$allocator@U?$pair@$$CBIPAVSocket@@@std@@@3@$0A@@std@@@std@@@std@@QAEXPAU_Node@?$_Tree_nod@V?$_Tmap_traits@IPAVSocket@@U?$less@I@std@@V?$allocator@U?$pair@$$CBIPAVSocket@@@std@@@3@$0A@@std@@@2@@Z 0043da00 f i sockets:SocketHandler.obj
 0001:0003ca30       ??0?$allocator@I@std@@QAE@XZ 0043da30 f i sockets:SocketHandler.obj
 0001:0003ca50       ??0?$allocator@I@std@@QAE@ABV01@@Z 0043da50 f i sockets:SocketHandler.obj
 0001:0003ca70       ?_Nextnode@?$list@PAVSocket@@V?$allocator@PAVSocket@@@std@@@std@@KAAAPAU_Node@?$_List_nod@PAVSocket@@V?$allocator@PAVSocket@@@std@@@2@PAU342@@Z 0043da70 f i sockets:SocketHandler.obj
 0001:0003ca80       ?_Prevnode@?$list@PAVSocket@@V?$allocator@PAVSocket@@@std@@@std@@KAAAPAU_Node@?$_List_nod@PAVSocket@@V?$allocator@PAVSocket@@@std@@@2@PAU342@@Z 0043da80 f i sockets:SocketHandler.obj
 0001:0003ca90       ?_Make_iter@?$list@PAVSocket@@V?$allocator@PAVSocket@@@std@@@std@@QBE?AV?$_Iterator@$00@12@V?$_Const_iterator@$00@12@@Z 0043da90 f i sockets:SocketHandler.obj
 0001:0003cb20       ?_Insert@?$list@PAVSocket@@V?$allocator@PAVSocket@@@std@@@std@@QAEXV?$_Const_iterator@$00@12@ABQAVSocket@@@Z 0043db20 f i sockets:SocketHandler.obj
 0001:0003cc20       ?_Buynode@?$list@PAVSocket@@V?$allocator@PAVSocket@@@std@@@std@@IAEPAU_Node@?$_List_nod@PAVSocket@@V?$allocator@PAVSocket@@@std@@@2@XZ 0043dc20 f i sockets:SocketHandler.obj
 0001:0003cd70       ?_Tidy@?$list@PAVSocket@@V?$allocator@PAVSocket@@@std@@@std@@IAEXXZ 0043dd70 f i sockets:SocketHandler.obj
 0001:0003cdf0       ?_Orphan_ptr@?$list@PAVSocket@@V?$allocator@PAVSocket@@@std@@@std@@IBEXAAV12@PAU_Node@?$_List_nod@PAVSocket@@V?$allocator@PAVSocket@@@std@@@2@@Z 0043ddf0 f i sockets:SocketHandler.obj
 0001:0003ced0       ??0?$_List_val@PAVSocket@@V?$allocator@PAVSocket@@@std@@@std@@QAE@V?$allocator@PAVSocket@@@1@@Z 0043ded0 f i sockets:SocketHandler.obj
 0001:0003cf20       ??1?$_Container_base_aux_alloc_empty@V?$allocator@PAVSocket@@@std@@@std@@IAE@XZ 0043df20 f i sockets:SocketHandler.obj
 0001:0003cf50       ??0?$allocator@PAVSocket@@@std@@QAE@XZ 0043df50 f i sockets:SocketHandler.obj
 0001:0003cf70       ?deallocate@?$allocator@U_Node@?$_List_nod@PAVSocket@@V?$allocator@PAVSocket@@@std@@@std@@@std@@QAEXPAU_Node@?$_List_nod@PAVSocket@@V?$allocator@PAVSocket@@@std@@@2@I@Z 0043df70 f i sockets:SocketHandler.obj
 0001:0003cfa0       ?destroy@?$allocator@U_Node@?$_List_nod@PAVSocket@@V?$allocator@PAVSocket@@@std@@@std@@@std@@QAEXPAU_Node@?$_List_nod@PAVSocket@@V?$allocator@PAVSocket@@@std@@@2@@Z 0043dfa0 f i sockets:SocketHandler.obj
 0001:0003cfd0       ?_Nextnode@?$list@IV?$allocator@I@std@@@std@@KAAAPAU_Node@?$_List_nod@IV?$allocator@I@std@@@2@PAU342@@Z 0043dfd0 f i sockets:SocketHandler.obj
 0001:0003cfe0       ?_Prevnode@?$list@IV?$allocator@I@std@@@std@@KAAAPAU_Node@?$_List_nod@IV?$allocator@I@std@@@2@PAU342@@Z 0043dfe0 f i sockets:SocketHandler.obj
 0001:0003cff0       ?begin@?$list@IV?$allocator@I@std@@@std@@QBE?AV?$_Const_iterator@$00@12@XZ 0043dff0 f i sockets:SocketHandler.obj
 0001:0003d050       ?end@?$list@IV?$allocator@I@std@@@std@@QBE?AV?$_Const_iterator@$00@12@XZ 0043e050 f i sockets:SocketHandler.obj
 0001:0003d0a0       ?_Make_iter@?$list@IV?$allocator@I@std@@@std@@QBE?AV?$_Iterator@$00@12@V?$_Const_iterator@$00@12@@Z 0043e0a0 f i sockets:SocketHandler.obj
 0001:0003d130       ?_Insert@?$list@IV?$allocator@I@std@@@std@@QAEXV?$_Const_iterator@$00@12@ABI@Z 0043e130 f i sockets:SocketHandler.obj
 0001:0003d230       ?_Buynode@?$list@IV?$allocator@I@std@@@std@@IAEPAU_Node@?$_List_nod@IV?$allocator@I@std@@@2@XZ 0043e230 f i sockets:SocketHandler.obj
 0001:0003d380       ?_Tidy@?$list@IV?$allocator@I@std@@@std@@IAEXXZ 0043e380 f i sockets:SocketHandler.obj
 0001:0003d400       ?_Orphan_ptr@?$list@IV?$allocator@I@std@@@std@@IBEXAAV12@PAU_Node@?$_List_nod@IV?$allocator@I@std@@@2@@Z 0043e400 f i sockets:SocketHandler.obj
 0001:0003d4e0       ??0?$_List_val@IV?$allocator@I@std@@@std@@QAE@V?$allocator@I@1@@Z 0043e4e0 f i sockets:SocketHandler.obj
 0001:0003d530       ??1?$_Container_base_aux_alloc_empty@V?$allocator@I@std@@@std@@IAE@XZ 0043e530 f i sockets:SocketHandler.obj
 0001:0003d560       ?deallocate@?$allocator@U_Node@?$_List_nod@IV?$allocator@I@std@@@std@@@std@@QAEXPAU_Node@?$_List_nod@IV?$allocator@I@std@@@2@I@Z 0043e560 f i sockets:SocketHandler.obj
 0001:0003d590       ?destroy@?$allocator@U_Node@?$_List_nod@IV?$allocator@I@std@@@std@@@std@@QAEXPAU_Node@?$_List_nod@IV?$allocator@I@std@@@2@@Z 0043e590 f i sockets:SocketHandler.obj
 0001:0003d5c0       ?_Color@?$_Tree@V?$_Tmap_traits@PAVSocket@@_NU?$less@PAVSocket@@@std@@V?$allocator@U?$pair@QAVSocket@@_N@std@@@3@$0A@@std@@@std@@KAAADPAU_Node@?$_Tree_nod@V?$_Tmap_traits@PAVSocket@@_NU?$less@PAVSocket@@@std@@V?$allocator@U?$pair@QAVSocket@@_N@std@@@3@$0A@@std@@@2@@Z 0043e5c0 f i sockets:SocketHandler.obj
 0001:0003d5d0       ?_Isnil@?$_Tree@V?$_Tmap_traits@PAVSocket@@_NU?$less@PAVSocket@@@std@@V?$allocator@U?$pair@QAVSocket@@_N@std@@@3@$0A@@std@@@std@@KAAADPAU_Node@?$_Tree_nod@V?$_Tmap_traits@PAVSocket@@_NU?$less@PAVSocket@@@std@@V?$allocator@U?$pair@QAVSocket@@_N@std@@@3@$0A@@std@@@2@@Z 0043e5d0 f i sockets:SocketHandler.obj
 0001:0003d5e0       ?_Key@?$_Tree@V?$_Tmap_traits@PAVSocket@@_NU?$less@PAVSocket@@@std@@V?$allocator@U?$pair@QAVSocket@@_N@std@@@3@$0A@@std@@@std@@KAABQAVSocket@@PAU_Node@?$_Tree_nod@V?$_Tmap_traits@PAVSocket@@_NU?$less@PAVSocket@@@std@@V?$allocator@U?$pair@QAVSocket@@_N@std@@@3@$0A@@std@@@2@@Z 0043e5e0 f i sockets:SocketHandler.obj
 0001:0003d610       ?_Left@?$_Tree@V?$_Tmap_traits@PAVSocket@@_NU?$less@PAVSocket@@@std@@V?$allocator@U?$pair@QAVSocket@@_N@std@@@3@$0A@@std@@@std@@KAAAPAU_Node@?$_Tree_nod@V?$_Tmap_traits@PAVSocket@@_NU?$less@PAVSocket@@@std@@V?$allocator@U?$pair@QAVSocket@@_N@std@@@3@$0A@@std@@@2@PAU342@@Z 0043e610 f i sockets:SocketHandler.obj
 0001:0003d620       ?_Parent@?$_Tree@V?$_Tmap_traits@PAVSocket@@_NU?$less@PAVSocket@@@std@@V?$allocator@U?$pair@QAVSocket@@_N@std@@@3@$0A@@std@@@std@@KAAAPAU_Node@?$_Tree_nod@V?$_Tmap_traits@PAVSocket@@_NU?$less@PAVSocket@@@std@@V?$allocator@U?$pair@QAVSocket@@_N@std@@@3@$0A@@std@@@2@PAU342@@Z 0043e620 f i sockets:SocketHandler.obj
 0001:0003d630       ?_Right@?$_Tree@V?$_Tmap_traits@PAVSocket@@_NU?$less@PAVSocket@@@std@@V?$allocator@U?$pair@QAVSocket@@_N@std@@@3@$0A@@std@@@std@@KAAAPAU_Node@?$_Tree_nod@V?$_Tmap_traits@PAVSocket@@_NU?$less@PAVSocket@@@std@@V?$allocator@U?$pair@QAVSocket@@_N@std@@@3@$0A@@std@@@2@PAU342@@Z 0043e630 f i sockets:SocketHandler.obj
 0001:0003d640       ??0?$_Tree@V?$_Tmap_traits@PAVSocket@@_NU?$less@PAVSocket@@@std@@V?$allocator@U?$pair@QAVSocket@@_N@std@@@3@$0A@@std@@@std@@QAE@ABU?$less@PAVSocket@@@1@ABV?$allocator@U?$pair@QAVSocket@@_N@std@@@1@@Z 0043e640 f i sockets:SocketHandler.obj
 0001:0003d6d0       ?_Make_iter@?$_Tree@V?$_Tmap_traits@PAVSocket@@_NU?$less@PAVSocket@@@std@@V?$allocator@U?$pair@QAVSocket@@_N@std@@@3@$0A@@std@@@std@@QBE?AViterator@12@Vconst_iterator@12@@Z 0043e6d0 f i sockets:SocketHandler.obj
 0001:0003d790       ?insert@?$_Tree@V?$_Tmap_traits@PAVSocket@@_NU?$less@PAVSocket@@@std@@V?$allocator@U?$pair@QAVSocket@@_N@std@@@3@$0A@@std@@@std@@QAE?AViterator@12@Vconst_iterator@12@ABU?$pair@QAVSocket@@_N@2@@Z 0043e790 f i sockets:SocketHandler.obj
 0001:0003e330       ?lower_bound@?$_Tree@V?$_Tmap_traits@PAVSocket@@_NU?$less@PAVSocket@@@std@@V?$allocator@U?$pair@QAVSocket@@_N@std@@@3@$0A@@std@@@std@@QAE?AViterator@12@ABQAVSocket@@@Z 0043f330 f i sockets:SocketHandler.obj
 0001:0003e390       ?_Lmost@?$_Tree@V?$_Tmap_traits@PAVSocket@@_NU?$less@PAVSocket@@@std@@V?$allocator@U?$pair@QAVSocket@@_N@std@@@3@$0A@@std@@@std@@IBEAAPAU_Node@?$_Tree_nod@V?$_Tmap_traits@PAVSocket@@_NU?$less@PAVSocket@@@std@@V?$allocator@U?$pair@QAVSocket@@_N@std@@@3@$0A@@std@@@2@XZ 0043f390 f i sockets:SocketHandler.obj
 0001:0003e3c0       ?_Lrotate@?$_Tree@V?$_Tmap_traits@PAVSocket@@_NU?$less@PAVSocket@@@std@@V?$allocator@U?$pair@QAVSocket@@_N@std@@@3@$0A@@std@@@std@@IAEXPAU_Node@?$_Tree_nod@V?$_Tmap_traits@PAVSocket@@_NU?$less@PAVSocket@@@std@@V?$allocator@U?$pair@QAVSocket@@_N@std@@@3@$0A@@std@@@2@@Z 0043f3c0 f i sockets:SocketHandler.obj
 0001:0003e510       ?_Max@?$_Tree@V?$_Tmap_traits@PAVSocket@@_NU?$less@PAVSocket@@@std@@V?$allocator@U?$pair@QAVSocket@@_N@std@@@3@$0A@@std@@@std@@KAPAU_Node@?$_Tree_nod@V?$_Tmap_traits@PAVSocket@@_NU?$less@PAVSocket@@@std@@V?$allocator@U?$pair@QAVSocket@@_N@std@@@3@$0A@@std@@@2@PAU342@@Z 0043f510 f i sockets:SocketHandler.obj
 0001:0003e550       ?_Min@?$_Tree@V?$_Tmap_traits@PAVSocket@@_NU?$less@PAVSocket@@@std@@V?$allocator@U?$pair@QAVSocket@@_N@std@@@3@$0A@@std@@@std@@KAPAU_Node@?$_Tree_nod@V?$_Tmap_traits@PAVSocket@@_NU?$less@PAVSocket@@@std@@V?$allocator@U?$pair@QAVSocket@@_N@std@@@3@$0A@@std@@@2@PAU342@@Z 0043f550 f i sockets:SocketHandler.obj
 0001:0003e590       ?_Rmost@?$_Tree@V?$_Tmap_traits@PAVSocket@@_NU?$less@PAVSocket@@@std@@V?$allocator@U?$pair@QAVSocket@@_N@std@@@3@$0A@@std@@@std@@IBEAAPAU_Node@?$_Tree_nod@V?$_Tmap_traits@PAVSocket@@_NU?$less@PAVSocket@@@std@@V?$allocator@U?$pair@QAVSocket@@_N@std@@@3@$0A@@std@@@2@XZ 0043f590 f i sockets:SocketHandler.obj
 0001:0003e5c0       ?_Root@?$_Tree@V?$_Tmap_traits@PAVSocket@@_NU?$less@PAVSocket@@@std@@V?$allocator@U?$pair@QAVSocket@@_N@std@@@3@$0A@@std@@@std@@IBEAAPAU_Node@?$_Tree_nod@V?$_Tmap_traits@PAVSocket@@_NU?$less@PAVSocket@@@std@@V?$allocator@U?$pair@QAVSocket@@_N@std@@@3@$0A@@std@@@2@XZ 0043f5c0 f i sockets:SocketHandler.obj
 0001:0003e5f0       ?_Rrotate@?$_Tree@V?$_Tmap_traits@PAVSocket@@_NU?$less@PAVSocket@@@std@@V?$allocator@U?$pair@QAVSocket@@_N@std@@@3@$0A@@std@@@std@@IAEXPAU_Node@?$_Tree_nod@V?$_Tmap_traits@PAVSocket@@_NU?$less@PAVSocket@@@std@@V?$allocator@U?$pair@QAVSocket@@_N@std@@@3@$0A@@std@@@2@@Z 0043f5f0 f i sockets:SocketHandler.obj
 0001:0003e740       ?_Orphan_ptr@?$_Tree@V?$_Tmap_traits@PAVSocket@@_NU?$less@PAVSocket@@@std@@V?$allocator@U?$pair@QAVSocket@@_N@std@@@3@$0A@@std@@@std@@IBEXAAV12@PAU_Node@?$_Tree_nod@V?$_Tmap_traits@PAVSocket@@_NU?$less@PAVSocket@@@std@@V?$allocator@U?$pair@QAVSocket@@_N@std@@@3@$0A@@std@@@2@@Z 0043f740 f i sockets:SocketHandler.obj
 0001:0003e820       ?_Tidy@?$_Tree@V?$_Tmap_traits@PAVSocket@@_NU?$less@PAVSocket@@@std@@V?$allocator@U?$pair@QAVSocket@@_N@std@@@3@$0A@@std@@@std@@IAEXXZ 0043f820 f i sockets:SocketHandler.obj
 0001:0003e990       ??1?$_Container_base_aux_alloc_empty@V?$allocator@U?$pair@QAVSocket@@_N@std@@@std@@@std@@IAE@XZ 0043f990 f i sockets:SocketHandler.obj
 0001:0003e9c0       ??0?$allocator@U?$pair@QAVSocket@@_N@std@@@std@@QAE@XZ 0043f9c0 f i sockets:SocketHandler.obj
 0001:0003e9e0       ??R?$less@PAVSocket@@@std@@QBE_NABQAVSocket@@0@Z 0043f9e0 f i sockets:SocketHandler.obj
 0001:0003ea10       ?deallocate@?$allocator@U_Node@?$_Tree_nod@V?$_Tmap_traits@PAVSocket@@_NU?$less@PAVSocket@@@std@@V?$allocator@U?$pair@QAVSocket@@_N@std@@@3@$0A@@std@@@std@@@std@@QAEXPAU_Node@?$_Tree_nod@V?$_Tmap_traits@PAVSocket@@_NU?$less@PAVSocket@@@std@@V?$allocator@U?$pair@QAVSocket@@_N@std@@@3@$0A@@std@@@2@I@Z 0043fa10 f i sockets:SocketHandler.obj
 0001:0003ea40       ?destroy@?$allocator@U_Node@?$_Tree_nod@V?$_Tmap_traits@PAVSocket@@_NU?$less@PAVSocket@@@std@@V?$allocator@U?$pair@QAVSocket@@_N@std@@@3@$0A@@std@@@std@@@std@@QAEXPAU_Node@?$_Tree_nod@V?$_Tmap_traits@PAVSocket@@_NU?$less@PAVSocket@@@std@@V?$allocator@U?$pair@QAVSocket@@_N@std@@@3@$0A@@std@@@2@@Z 0043fa40 f i sockets:SocketHandler.obj
 0001:0003ea70       ??0iterator@?$_Tree@V?$_Tmap_traits@IPAVSocket@@U?$less@I@std@@V?$allocator@U?$pair@$$CBIPAVSocket@@@std@@@3@$0A@@std@@@std@@QAE@PAU_Node@?$_Tree_nod@V?$_Tmap_traits@IPAVSocket@@U?$less@I@std@@V?$allocator@U?$pair@$$CBIPAVSocket@@@std@@@3@$0A@@std@@@2@PBV12@@Z 0043fa70 f i sockets:SocketHandler.obj
 0001:0003eab0       ??Eiterator@?$_Tree@V?$_Tmap_traits@IPAVSocket@@U?$less@I@std@@V?$allocator@U?$pair@$$CBIPAVSocket@@@std@@@3@$0A@@std@@@std@@QAEAAV012@XZ 0043fab0 f i sockets:SocketHandler.obj
 0001:0003eae0       ??Dconst_iterator@?$_Tree@V?$_Tmap_traits@IPAVSocket@@U?$less@I@std@@V?$allocator@U?$pair@$$CBIPAVSocket@@@std@@@3@$0A@@std@@@std@@QBEABU?$pair@$$CBIPAVSocket@@@2@XZ 0043fae0 f i sockets:SocketHandler.obj
 0001:0003ebb0       ??Econst_iterator@?$_Tree@V?$_Tmap_traits@IPAVSocket@@U?$less@I@std@@V?$allocator@U?$pair@$$CBIPAVSocket@@@std@@@3@$0A@@std@@@std@@QAEAAV012@XZ 0043fbb0 f i sockets:SocketHandler.obj
 0001:0003ebe0       ??8const_iterator@?$_Tree@V?$_Tmap_traits@IPAVSocket@@U?$less@I@std@@V?$allocator@U?$pair@$$CBIPAVSocket@@@std@@@3@$0A@@std@@@std@@QBE_NABV012@@Z 0043fbe0 f i sockets:SocketHandler.obj
 0001:0003eca0       ?_Mynode@const_iterator@?$_Tree@V?$_Tmap_traits@IPAVSocket@@U?$less@I@std@@V?$allocator@U?$pair@$$CBIPAVSocket@@@std@@@3@$0A@@std@@@std@@QBEPAU_Node@?$_Tree_nod@V?$_Tmap_traits@IPAVSocket@@U?$less@I@std@@V?$allocator@U?$pair@$$CBIPAVSocket@@@std@@@3@$0A@@std@@@3@XZ 0043fca0 f i sockets:SocketHandler.obj
 0001:0003ecc0       ??0?$pair@$$CBIPAVSocket@@@std@@QAE@ABIABQAVSocket@@@Z 0043fcc0 f i sockets:SocketHandler.obj
 0001:0003ecf0       ??0?$_Iterator@$00@?$list@IV?$allocator@I@std@@@std@@QAE@PAU_Node@?$_List_nod@IV?$allocator@I@std@@@2@PBV12@@Z 0043fcf0 f i sockets:SocketHandler.obj
 0001:0003ed30       ??E?$_Iterator@$00@?$list@IV?$allocator@I@std@@@std@@QAEAAV012@XZ 0043fd30 f i sockets:SocketHandler.obj
 0001:0003ed60       ??D?$_Const_iterator@$00@?$list@IV?$allocator@I@std@@@std@@QBEABIXZ 0043fd60 f i sockets:SocketHandler.obj
 0001:0003ee40       ??E?$_Const_iterator@$00@?$list@IV?$allocator@I@std@@@std@@QAE?AV012@H@Z 0043fe40 f i sockets:SocketHandler.obj
 0001:0003ef10       ??8?$_Const_iterator@$00@?$list@IV?$allocator@I@std@@@std@@QBE_NABV012@@Z 0043ff10 f i sockets:SocketHandler.obj
 0001:0003ef50       ?_Mynode@?$_Const_iterator@$00@?$list@IV?$allocator@I@std@@@std@@QBEPAU_Node@?$_List_nod@IV?$allocator@I@std@@@3@XZ 0043ff50 f i sockets:SocketHandler.obj
 0001:0003ef70       ??0?$_Iterator@$00@?$list@PAVSocket@@V?$allocator@PAVSocket@@@std@@@std@@QAE@PAU_Node@?$_List_nod@PAVSocket@@V?$allocator@PAVSocket@@@std@@@2@PBV12@@Z 0043ff70 f i sockets:SocketHandler.obj
 0001:0003efb0       ??E?$_Iterator@$00@?$list@PAVSocket@@V?$allocator@PAVSocket@@@std@@@std@@QAEAAV012@XZ 0043ffb0 f i sockets:SocketHandler.obj
 0001:0003efe0       ??D?$_Const_iterator@$00@?$list@PAVSocket@@V?$allocator@PAVSocket@@@std@@@std@@QBEABQAVSocket@@XZ 0043ffe0 f i sockets:SocketHandler.obj
 0001:0003f0c0       ??E?$_Const_iterator@$00@?$list@PAVSocket@@V?$allocator@PAVSocket@@@std@@@std@@QAE?AV012@H@Z 004400c0 f i sockets:SocketHandler.obj
 0001:0003f190       ??8?$_Const_iterator@$00@?$list@PAVSocket@@V?$allocator@PAVSocket@@@std@@@std@@QBE_NABV012@@Z 00440190 f i sockets:SocketHandler.obj
 0001:0003f1d0       ?_Mynode@?$_Const_iterator@$00@?$list@PAVSocket@@V?$allocator@PAVSocket@@@std@@@std@@QBEPAU_Node@?$_List_nod@PAVSocket@@V?$allocator@PAVSocket@@@std@@@3@XZ 004401d0 f i sockets:SocketHandler.obj
 0001:0003f1f0       ??0iterator@?$_Tree@V?$_Tmap_traits@PAVSocket@@_NU?$less@PAVSocket@@@std@@V?$allocator@U?$pair@QAVSocket@@_N@std@@@3@$0A@@std@@@std@@QAE@PAU_Node@?$_Tree_nod@V?$_Tmap_traits@PAVSocket@@_NU?$less@PAVSocket@@@std@@V?$allocator@U?$pair@QAVSocket@@_N@std@@@3@$0A@@std@@@2@PBV12@@Z 004401f0 f i sockets:SocketHandler.obj
 0001:0003f230       ??Diterator@?$_Tree@V?$_Tmap_traits@PAVSocket@@_NU?$less@PAVSocket@@@std@@V?$allocator@U?$pair@QAVSocket@@_N@std@@@3@$0A@@std@@@std@@QBEAAU?$pair@QAVSocket@@_N@2@XZ 00440230 f i sockets:SocketHandler.obj
 0001:0003f260       ??Econst_iterator@?$_Tree@V?$_Tmap_traits@PAVSocket@@_NU?$less@PAVSocket@@@std@@V?$allocator@U?$pair@QAVSocket@@_N@std@@@3@$0A@@std@@@std@@QAEAAV012@XZ 00440260 f i sockets:SocketHandler.obj
 0001:0003f290       ??8const_iterator@?$_Tree@V?$_Tmap_traits@PAVSocket@@_NU?$less@PAVSocket@@@std@@V?$allocator@U?$pair@QAVSocket@@_N@std@@@3@$0A@@std@@@std@@QBE_NABV012@@Z 00440290 f i sockets:SocketHandler.obj
 0001:0003f350       ?_Mynode@const_iterator@?$_Tree@V?$_Tmap_traits@PAVSocket@@_NU?$less@PAVSocket@@@std@@V?$allocator@U?$pair@QAVSocket@@_N@std@@@3@$0A@@std@@@std@@QBEPAU_Node@?$_Tree_nod@V?$_Tmap_traits@PAVSocket@@_NU?$less@PAVSocket@@@std@@V?$allocator@U?$pair@QAVSocket@@_N@std@@@3@$0A@@std@@@3@XZ 00440350 f i sockets:SocketHandler.obj
 0001:0003f370       ??0?$pair@QAVSocket@@_N@std@@QAE@ABQAVSocket@@AB_N@Z 00440370 f i sockets:SocketHandler.obj
 0001:0003f3a0       ??1?$pair@Viterator@?$_Tree@V?$_Tmap_traits@IPAVSocket@@U?$less@I@std@@V?$allocator@U?$pair@$$CBIPAVSocket@@@std@@@3@$0A@@std@@@std@@_N@std@@QAE@XZ 004403a0 f i sockets:SocketHandler.obj
 0001:0003f3d0       ??1?$pair@Viterator@?$_Tree@V?$_Tmap_traits@PAVSocket@@_NU?$less@PAVSocket@@@std@@V?$allocator@U?$pair@QAVSocket@@_N@std@@@3@$0A@@std@@@std@@_N@std@@QAE@XZ 004403d0 f i sockets:SocketHandler.obj
 0001:0003f400       ?_Myval@?$_Tree@V?$_Tmap_traits@IPAVSocket@@U?$less@I@std@@V?$allocator@U?$pair@$$CBIPAVSocket@@@std@@@3@$0A@@std@@@std@@KAAAU?$pair@$$CBIPAVSocket@@@2@PAU_Node@?$_Tree_nod@V?$_Tmap_traits@IPAVSocket@@U?$less@I@std@@V?$allocator@U?$pair@$$CBIPAVSocket@@@std@@@3@$0A@@std@@@2@@Z 00440400 f i sockets:SocketHandler.obj
 0001:0003f410       ?insert@?$_Tree@V?$_Tmap_traits@IPAVSocket@@U?$less@I@std@@V?$allocator@U?$pair@$$CBIPAVSocket@@@std@@@3@$0A@@std@@@std@@QAE?AU?$pair@Viterator@?$_Tree@V?$_Tmap_traits@IPAVSocket@@U?$less@I@std@@V?$allocator@U?$pair@$$CBIPAVSocket@@@std@@@3@$0A@@std@@@std@@_N@2@ABU?$pair@$$CBIPAVSocket@@@2@@Z 00440410 f i sockets:SocketHandler.obj
 0001:0003f780       ?erase@?$_Tree@V?$_Tmap_traits@IPAVSocket@@U?$less@I@std@@V?$allocator@U?$pair@$$CBIPAVSocket@@@std@@@3@$0A@@std@@@std@@QAE?AViterator@12@Vconst_iterator@12@0@Z 00440780 f i sockets:SocketHandler.obj
 0001:0003f990       ?_Init@?$_Tree@V?$_Tmap_traits@IPAVSocket@@U?$less@I@std@@V?$allocator@U?$pair@$$CBIPAVSocket@@@std@@@3@$0A@@std@@@std@@IAEXXZ 00440990 f i sockets:SocketHandler.obj
 0001:0003fa10       ?_Insert@?$_Tree@V?$_Tmap_traits@IPAVSocket@@U?$less@I@std@@V?$allocator@U?$pair@$$CBIPAVSocket@@@std@@@3@$0A@@std@@@std@@IAE?AViterator@12@_NPAU_Node@?$_Tree_nod@V?$_Tmap_traits@IPAVSocket@@U?$less@I@std@@V?$allocator@U?$pair@$$CBIPAVSocket@@@std@@@3@$0A@@std@@@2@ABU?$pair@$$CBIPAVSocket@@@2@@Z 00440a10 f i sockets:SocketHandler.obj
 0001:0003fed0       ?_Lbound@?$_Tree@V?$_Tmap_traits@IPAVSocket@@U?$less@I@std@@V?$allocator@U?$pair@$$CBIPAVSocket@@@std@@@3@$0A@@std@@@std@@IBEPAU_Node@?$_Tree_nod@V?$_Tmap_traits@IPAVSocket@@U?$less@I@std@@V?$allocator@U?$pair@$$CBIPAVSocket@@@std@@@3@$0A@@std@@@2@ABI@Z 00440ed0 f i sockets:SocketHandler.obj
 0001:0003ff90       ??0?$_Tree_val@V?$_Tmap_traits@IPAVSocket@@U?$less@I@std@@V?$allocator@U?$pair@$$CBIPAVSocket@@@std@@@3@$0A@@std@@@std@@IAE@ABU?$less@I@1@V?$allocator@U?$pair@$$CBIPAVSocket@@@std@@@1@@Z 00440f90 f i sockets:SocketHandler.obj
 0001:0003fff0       ?_Kfn@?$_Tmap_traits@IPAVSocket@@U?$less@I@std@@V?$allocator@U?$pair@$$CBIPAVSocket@@@std@@@3@$0A@@std@@SAABIABU?$pair@$$CBIPAVSocket@@@2@@Z 00440ff0 f i sockets:SocketHandler.obj
 0001:00040000       ??0?$allocator@U?$pair@$$CBIPAVSocket@@@std@@@std@@QAE@ABV01@@Z 00441000 f i sockets:SocketHandler.obj
 0001:00040020       ?destroy@?$allocator@PAU_Node@?$_Tree_nod@V?$_Tmap_traits@IPAVSocket@@U?$less@I@std@@V?$allocator@U?$pair@$$CBIPAVSocket@@@std@@@3@$0A@@std@@@std@@@std@@QAEXPAPAU_Node@?$_Tree_nod@V?$_Tmap_traits@IPAVSocket@@U?$less@I@std@@V?$allocator@U?$pair@$$CBIPAVSocket@@@std@@@3@$0A@@std@@@2@@Z 00441020 f i sockets:SocketHandler.obj
 0001:00040050       ?_Myval@?$list@PAVSocket@@V?$allocator@PAVSocket@@@std@@@std@@KAAAPAVSocket@@PAU_Node@?$_List_nod@PAVSocket@@V?$allocator@PAVSocket@@@std@@@2@@Z 00441050 f i sockets:SocketHandler.obj
 0001:00040060       ?clear@?$list@PAVSocket@@V?$allocator@PAVSocket@@@std@@@std@@QAEXXZ 00441060 f i sockets:SocketHandler.obj
 0001:00040130       ?_Buynode@?$list@PAVSocket@@V?$allocator@PAVSocket@@@std@@@std@@IAEPAU_Node@?$_List_nod@PAVSocket@@V?$allocator@PAVSocket@@@std@@@2@PAU342@0ABQAVSocket@@@Z 00441130 f i sockets:SocketHandler.obj
 0001:000402a0       ?_Incsize@?$list@PAVSocket@@V?$allocator@PAVSocket@@@std@@@std@@IAEXI@Z 004412a0 f i sockets:SocketHandler.obj
 0001:00040370       ??0?$_List_ptr@PAVSocket@@V?$allocator@PAVSocket@@@std@@@std@@IAE@V?$allocator@PAVSocket@@@1@@Z 00441370 f i sockets:SocketHandler.obj
 0001:000403c0       ??0?$allocator@PAVSocket@@@std@@QAE@ABV01@@Z 004413c0 f i sockets:SocketHandler.obj
 0001:000403e0       ?allocate@?$allocator@U_Node@?$_List_nod@PAVSocket@@V?$allocator@PAVSocket@@@std@@@std@@@std@@QAEPAU_Node@?$_List_nod@PAVSocket@@V?$allocator@PAVSocket@@@std@@@2@I@Z 004413e0 f i sockets:SocketHandler.obj
 0001:00040410       ?construct@?$allocator@PAU_Node@?$_List_nod@PAVSocket@@V?$allocator@PAVSocket@@@std@@@std@@@std@@QAEXPAPAU_Node@?$_List_nod@PAVSocket@@V?$allocator@PAVSocket@@@std@@@2@ABQAU342@@Z 00441410 f i sockets:SocketHandler.obj
 0001:00040440       ?destroy@?$allocator@PAU_Node@?$_List_nod@PAVSocket@@V?$allocator@PAVSocket@@@std@@@std@@@std@@QAEXPAPAU_Node@?$_List_nod@PAVSocket@@V?$allocator@PAVSocket@@@std@@@2@@Z 00441440 f i sockets:SocketHandler.obj
 0001:00040470       ?_Myval@?$list@IV?$allocator@I@std@@@std@@KAAAIPAU_Node@?$_List_nod@IV?$allocator@I@std@@@2@@Z 00441470 f i sockets:SocketHandler.obj
 0001:00040480       ?clear@?$list@IV?$allocator@I@std@@@std@@QAEXXZ 00441480 f i sockets:SocketHandler.obj
 0001:00040550       ?_Buynode@?$list@IV?$allocator@I@std@@@std@@IAEPAU_Node@?$_List_nod@IV?$allocator@I@std@@@2@PAU342@0ABI@Z 00441550 f i sockets:SocketHandler.obj
 0001:000406c0       ?_Incsize@?$list@IV?$allocator@I@std@@@std@@IAEXI@Z 004416c0 f i sockets:SocketHandler.obj
 0001:00040790       ??0?$_List_ptr@IV?$allocator@I@std@@@std@@IAE@V?$allocator@I@1@@Z 00441790 f i sockets:SocketHandler.obj
 0001:000407e0       ?allocate@?$allocator@U_Node@?$_List_nod@IV?$allocator@I@std@@@std@@@std@@QAEPAU_Node@?$_List_nod@IV?$allocator@I@std@@@2@I@Z 004417e0 f i sockets:SocketHandler.obj
 0001:00040810       ?construct@?$allocator@PAU_Node@?$_List_nod@IV?$allocator@I@std@@@std@@@std@@QAEXPAPAU_Node@?$_List_nod@IV?$allocator@I@std@@@2@ABQAU342@@Z 00441810 f i sockets:SocketHandler.obj
 0001:00040840       ?destroy@?$allocator@PAU_Node@?$_List_nod@IV?$allocator@I@std@@@std@@@std@@QAEXPAPAU_Node@?$_List_nod@IV?$allocator@I@std@@@2@@Z 00441840 f i sockets:SocketHandler.obj
 0001:00040870       ?_Myval@?$_Tree@V?$_Tmap_traits@PAVSocket@@_NU?$less@PAVSocket@@@std@@V?$allocator@U?$pair@QAVSocket@@_N@std@@@3@$0A@@std@@@std@@KAAAU?$pair@QAVSocket@@_N@2@PAU_Node@?$_Tree_nod@V?$_Tmap_traits@PAVSocket@@_NU?$less@PAVSocket@@@std@@V?$allocator@U?$pair@QAVSocket@@_N@std@@@3@$0A@@std@@@2@@Z 00441870 f i sockets:SocketHandler.obj
 0001:00040880       ?begin@?$_Tree@V?$_Tmap_traits@PAVSocket@@_NU?$less@PAVSocket@@@std@@V?$allocator@U?$pair@QAVSocket@@_N@std@@@3@$0A@@std@@@std@@QAE?AViterator@12@XZ 00441880 f i sockets:SocketHandler.obj
 0001:000408e0       ?size@?$_Tree@V?$_Tmap_traits@PAVSocket@@_NU?$less@PAVSocket@@@std@@V?$allocator@U?$pair@QAVSocket@@_N@std@@@3@$0A@@std@@@std@@QBEIXZ 004418e0 f i sockets:SocketHandler.obj
 0001:00040900       ?insert@?$_Tree@V?$_Tmap_traits@PAVSocket@@_NU?$less@PAVSocket@@@std@@V?$allocator@U?$pair@QAVSocket@@_N@std@@@3@$0A@@std@@@std@@QAE?AU?$pair@Viterator@?$_Tree@V?$_Tmap_traits@PAVSocket@@_NU?$less@PAVSocket@@@std@@V?$allocator@U?$pair@QAVSocket@@_N@std@@@3@$0A@@std@@@std@@_N@2@ABU?$pair@QAVSocket@@_N@2@@Z 00441900 f i sockets:SocketHandler.obj
 0001:00040c70       ?erase@?$_Tree@V?$_Tmap_traits@PAVSocket@@_NU?$less@PAVSocket@@@std@@V?$allocator@U?$pair@QAVSocket@@_N@std@@@3@$0A@@std@@@std@@QAE?AViterator@12@Vconst_iterator@12@0@Z 00441c70 f i sockets:SocketHandler.obj
 0001:00040e80       ?_Init@?$_Tree@V?$_Tmap_traits@PAVSocket@@_NU?$less@PAVSocket@@@std@@V?$allocator@U?$pair@QAVSocket@@_N@std@@@3@$0A@@std@@@std@@IAEXXZ 00441e80 f i sockets:SocketHandler.obj
 0001:00040f00       ?_Insert@?$_Tree@V?$_Tmap_traits@PAVSocket@@_NU?$less@PAVSocket@@@std@@V?$allocator@U?$pair@QAVSocket@@_N@std@@@3@$0A@@std@@@std@@IAE?AViterator@12@_NPAU_Node@?$_Tree_nod@V?$_Tmap_traits@PAVSocket@@_NU?$less@PAVSocket@@@std@@V?$allocator@U?$pair@QAVSocket@@_N@std@@@3@$0A@@std@@@2@ABU?$pair@QAVSocket@@_N@2@@Z 00441f00 f i sockets:SocketHandler.obj
 0001:000413c0       ?_Lbound@?$_Tree@V?$_Tmap_traits@PAVSocket@@_NU?$less@PAVSocket@@@std@@V?$allocator@U?$pair@QAVSocket@@_N@std@@@3@$0A@@std@@@std@@IBEPAU_Node@?$_Tree_nod@V?$_Tmap_traits@PAVSocket@@_NU?$less@PAVSocket@@@std@@V?$allocator@U?$pair@QAVSocket@@_N@std@@@3@$0A@@std@@@2@ABQAVSocket@@@Z 004423c0 f i sockets:SocketHandler.obj
 0001:00041480       ??0?$_Tree_val@V?$_Tmap_traits@PAVSocket@@_NU?$less@PAVSocket@@@std@@V?$allocator@U?$pair@QAVSocket@@_N@std@@@3@$0A@@std@@@std@@IAE@ABU?$less@PAVSocket@@@1@V?$allocator@U?$pair@QAVSocket@@_N@std@@@1@@Z 00442480 f i sockets:SocketHandler.obj
 0001:000414e0       ?_Kfn@?$_Tmap_traits@PAVSocket@@_NU?$less@PAVSocket@@@std@@V?$allocator@U?$pair@QAVSocket@@_N@std@@@3@$0A@@std@@SAABQAVSocket@@ABU?$pair@QAVSocket@@_N@2@@Z 004424e0 f i sockets:SocketHandler.obj
 0001:000414f0       ??0?$allocator@U?$pair@QAVSocket@@_N@std@@@std@@QAE@ABV01@@Z 004424f0 f i sockets:SocketHandler.obj
 0001:00041510       ?destroy@?$allocator@PAU_Node@?$_Tree_nod@V?$_Tmap_traits@PAVSocket@@_NU?$less@PAVSocket@@@std@@V?$allocator@U?$pair@QAVSocket@@_N@std@@@3@$0A@@std@@@std@@@std@@QAEXPAPAU_Node@?$_Tree_nod@V?$_Tmap_traits@PAVSocket@@_NU?$less@PAVSocket@@@std@@V?$allocator@U?$pair@QAVSocket@@_N@std@@@3@$0A@@std@@@2@@Z 00442510 f i sockets:SocketHandler.obj
 0001:00041540       ??0const_iterator@?$_Tree@V?$_Tmap_traits@IPAVSocket@@U?$less@I@std@@V?$allocator@U?$pair@$$CBIPAVSocket@@@std@@@3@$0A@@std@@@std@@QAE@XZ 00442540 f i sockets:SocketHandler.obj
 0001:00041580       ??0const_iterator@?$_Tree@V?$_Tmap_traits@IPAVSocket@@U?$less@I@std@@V?$allocator@U?$pair@$$CBIPAVSocket@@@std@@@3@$0A@@std@@@std@@QAE@PAU_Node@?$_Tree_nod@V?$_Tmap_traits@IPAVSocket@@U?$less@I@std@@V?$allocator@U?$pair@$$CBIPAVSocket@@@std@@@3@$0A@@std@@@2@PBV12@@Z 00442580 f i sockets:SocketHandler.obj
 0001:00041600       ??Fconst_iterator@?$_Tree@V?$_Tmap_traits@IPAVSocket@@U?$less@I@std@@V?$allocator@U?$pair@$$CBIPAVSocket@@@std@@@3@$0A@@std@@@std@@QAEAAV012@XZ 00442600 f i sockets:SocketHandler.obj
 0001:00041630       ?_Inc@const_iterator@?$_Tree@V?$_Tmap_traits@IPAVSocket@@U?$less@I@std@@V?$allocator@U?$pair@$$CBIPAVSocket@@@std@@@3@$0A@@std@@@std@@QAEXXZ 00442630 f i sockets:SocketHandler.obj
 0001:00041790       ??0?$_Const_iterator@$00@?$list@IV?$allocator@I@std@@@std@@QAE@PAU_Node@?$_List_nod@IV?$allocator@I@std@@@2@PBV12@@Z 00442790 f i sockets:SocketHandler.obj
 0001:00041810       ??E?$_Const_iterator@$00@?$list@IV?$allocator@I@std@@@std@@QAEAAV012@XZ 00442810 f i sockets:SocketHandler.obj
 0001:000418f0       ?_Compat@?$_Const_iterator@$00@?$list@IV?$allocator@I@std@@@std@@QBEXABV123@@Z 004428f0 f i sockets:SocketHandler.obj
 0001:000419b0       ??0?$_Const_iterator@$00@?$list@PAVSocket@@V?$allocator@PAVSocket@@@std@@@std@@QAE@PAU_Node@?$_List_nod@PAVSocket@@V?$allocator@PAVSocket@@@std@@@2@PBV12@@Z 004429b0 f i sockets:SocketHandler.obj
 0001:00041a30       ??E?$_Const_iterator@$00@?$list@PAVSocket@@V?$allocator@PAVSocket@@@std@@@std@@QAEAAV012@XZ 00442a30 f i sockets:SocketHandler.obj
 0001:00041b10       ?_Compat@?$_Const_iterator@$00@?$list@PAVSocket@@V?$allocator@PAVSocket@@@std@@@std@@QBEXABV123@@Z 00442b10 f i sockets:SocketHandler.obj
 0001:00041bd0       ??0const_iterator@?$_Tree@V?$_Tmap_traits@PAVSocket@@_NU?$less@PAVSocket@@@std@@V?$allocator@U?$pair@QAVSocket@@_N@std@@@3@$0A@@std@@@std@@QAE@XZ 00442bd0 f i sockets:SocketHandler.obj
 0001:00041c10       ??0const_iterator@?$_Tree@V?$_Tmap_traits@PAVSocket@@_NU?$less@PAVSocket@@@std@@V?$allocator@U?$pair@QAVSocket@@_N@std@@@3@$0A@@std@@@std@@QAE@PAU_Node@?$_Tree_nod@V?$_Tmap_traits@PAVSocket@@_NU?$less@PAVSocket@@@std@@V?$allocator@U?$pair@QAVSocket@@_N@std@@@3@$0A@@std@@@2@PBV12@@Z 00442c10 f i sockets:SocketHandler.obj
 0001:00041c90       ??Dconst_iterator@?$_Tree@V?$_Tmap_traits@PAVSocket@@_NU?$less@PAVSocket@@@std@@V?$allocator@U?$pair@QAVSocket@@_N@std@@@3@$0A@@std@@@std@@QBEABU?$pair@QAVSocket@@_N@2@XZ 00442c90 f i sockets:SocketHandler.obj
 0001:00041d60       ??Fconst_iterator@?$_Tree@V?$_Tmap_traits@PAVSocket@@_NU?$less@PAVSocket@@@std@@V?$allocator@U?$pair@QAVSocket@@_N@std@@@3@$0A@@std@@@std@@QAEAAV012@XZ 00442d60 f i sockets:SocketHandler.obj
 0001:00041d90       ?_Inc@const_iterator@?$_Tree@V?$_Tmap_traits@PAVSocket@@_NU?$less@PAVSocket@@@std@@V?$allocator@U?$pair@QAVSocket@@_N@std@@@3@$0A@@std@@@std@@QAEXXZ 00442d90 f i sockets:SocketHandler.obj
 0001:00041ef0       ??0?$_Bidit@U?$pair@$$CBIPAVSocket@@@std@@HPBU12@ABU12@@std@@QAE@XZ 00442ef0 f i sockets:SocketHandler.obj
 0001:00041f20       ??0?$_Bidit@IHPBIABI@std@@QAE@XZ 00442f20 f i sockets:SocketHandler.obj
 0001:00041f50       ??0?$_Bidit@PAVSocket@@HPBQAV1@ABQAV1@@std@@QAE@XZ 00442f50 f i sockets:SocketHandler.obj
 0001:00041f80       ??0?$_Bidit@U?$pair@QAVSocket@@_N@std@@HPBU12@ABU12@@std@@QAE@XZ 00442f80 f i sockets:SocketHandler.obj
 0001:00041fb0       ??0?$_Iterator_with_base@Ubidirectional_iterator_tag@std@@U?$pair@$$CBIPAVSocket@@@2@HPBU32@ABU32@V_Iterator_base@2@@std@@QAE@XZ 00442fb0 f i sockets:SocketHandler.obj
 0001:00041fe0       ??0?$_Iterator_with_base@Ubidirectional_iterator_tag@std@@IHPBIABIV_Iterator_base@2@@std@@QAE@XZ 00442fe0 f i sockets:SocketHandler.obj
 0001:00042010       ??0?$_Iterator_with_base@Ubidirectional_iterator_tag@std@@PAVSocket@@HPBQAV3@ABQAV3@V_Iterator_base@2@@std@@QAE@XZ 00443010 f i sockets:SocketHandler.obj
 0001:00042040       ??0?$_Iterator_with_base@Ubidirectional_iterator_tag@std@@U?$pair@QAVSocket@@_N@2@HPBU32@ABU32@V_Iterator_base@2@@std@@QAE@XZ 00443040 f i sockets:SocketHandler.obj
 0001:00042070       ?max_size@?$_Tree@V?$_Tmap_traits@IPAVSocket@@U?$less@I@std@@V?$allocator@U?$pair@$$CBIPAVSocket@@@std@@@3@$0A@@std@@@std@@QBEIXZ 00443070 f i sockets:SocketHandler.obj
 0001:000420a0       ?clear@?$_Tree@V?$_Tmap_traits@IPAVSocket@@U?$less@I@std@@V?$allocator@U?$pair@$$CBIPAVSocket@@@std@@@3@$0A@@std@@@std@@QAEXXZ 004430a0 f i sockets:SocketHandler.obj
 0001:00042120       ?_Buynode@?$_Tree@V?$_Tmap_traits@IPAVSocket@@U?$less@I@std@@V?$allocator@U?$pair@$$CBIPAVSocket@@@std@@@3@$0A@@std@@@std@@IAEPAU_Node@?$_Tree_nod@V?$_Tmap_traits@IPAVSocket@@U?$less@I@std@@V?$allocator@U?$pair@$$CBIPAVSocket@@@std@@@3@$0A@@std@@@2@XZ 00443120 f i sockets:SocketHandler.obj
 0001:000422d0       ?_Buynode@?$_Tree@V?$_Tmap_traits@IPAVSocket@@U?$less@I@std@@V?$allocator@U?$pair@$$CBIPAVSocket@@@std@@@3@$0A@@std@@@std@@IAEPAU_Node@?$_Tree_nod@V?$_Tmap_traits@IPAVSocket@@U?$less@I@std@@V?$allocator@U?$pair@$$CBIPAVSocket@@@std@@@3@$0A@@std@@@2@PAU342@00ABU?$pair@$$CBIPAVSocket@@@2@D@Z 004432d0 f i sockets:SocketHandler.obj
 0001:000423e0       ??0?$_Tree_ptr@V?$_Tmap_traits@IPAVSocket@@U?$less@I@std@@V?$allocator@U?$pair@$$CBIPAVSocket@@@std@@@3@$0A@@std@@@std@@QAE@ABU?$less@I@1@V?$allocator@U?$pair@$$CBIPAVSocket@@@std@@@1@@Z 004433e0 f i sockets:SocketHandler.obj
 0001:00042440       ?construct@?$allocator@I@std@@QAEXPAIABI@Z 00443440 f i sockets:SocketHandler.obj
 0001:00042470       ?max_size@?$list@PAVSocket@@V?$allocator@PAVSocket@@@std@@@std@@QBEIXZ 00443470 f i sockets:SocketHandler.obj
 0001:000424a0       ??0?$_List_nod@PAVSocket@@V?$allocator@PAVSocket@@@std@@@std@@IAE@V?$allocator@PAVSocket@@@1@@Z 004434a0 f i sockets:SocketHandler.obj
 0001:000424f0       ?construct@?$allocator@PAVSocket@@@std@@QAEXPAPAVSocket@@ABQAV3@@Z 004434f0 f i sockets:SocketHandler.obj
 0001:00042520       ?max_size@?$list@IV?$allocator@I@std@@@std@@QBEIXZ 00443520 f i sockets:SocketHandler.obj
 0001:00042550       ??0?$_List_nod@IV?$allocator@I@std@@@std@@IAE@V?$allocator@I@1@@Z 00443550 f i sockets:SocketHandler.obj
 0001:000425a0       ?max_size@?$_Tree@V?$_Tmap_traits@PAVSocket@@_NU?$less@PAVSocket@@@std@@V?$allocator@U?$pair@QAVSocket@@_N@std@@@3@$0A@@std@@@std@@QBEIXZ 004435a0 f i sockets:SocketHandler.obj
 0001:000425d0       ?clear@?$_Tree@V?$_Tmap_traits@PAVSocket@@_NU?$less@PAVSocket@@@std@@V?$allocator@U?$pair@QAVSocket@@_N@std@@@3@$0A@@std@@@std@@QAEXXZ 004435d0 f i sockets:SocketHandler.obj
 0001:00042650       ?_Buynode@?$_Tree@V?$_Tmap_traits@PAVSocket@@_NU?$less@PAVSocket@@@std@@V?$allocator@U?$pair@QAVSocket@@_N@std@@@3@$0A@@std@@@std@@IAEPAU_Node@?$_Tree_nod@V?$_Tmap_traits@PAVSocket@@_NU?$less@PAVSocket@@@std@@V?$allocator@U?$pair@QAVSocket@@_N@std@@@3@$0A@@std@@@2@XZ 00443650 f i sockets:SocketHandler.obj
 0001:00042800       ?_Buynode@?$_Tree@V?$_Tmap_traits@PAVSocket@@_NU?$less@PAVSocket@@@std@@V?$allocator@U?$pair@QAVSocket@@_N@std@@@3@$0A@@std@@@std@@IAEPAU_Node@?$_Tree_nod@V?$_Tmap_traits@PAVSocket@@_NU?$less@PAVSocket@@@std@@V?$allocator@U?$pair@QAVSocket@@_N@std@@@3@$0A@@std@@@2@PAU342@00ABU?$pair@QAVSocket@@_N@2@D@Z 00443800 f i sockets:SocketHandler.obj
 0001:00042910       ??0?$_Tree_ptr@V?$_Tmap_traits@PAVSocket@@_NU?$less@PAVSocket@@@std@@V?$allocator@U?$pair@QAVSocket@@_N@std@@@3@$0A@@std@@@std@@QAE@ABU?$less@PAVSocket@@@1@V?$allocator@U?$pair@QAVSocket@@_N@std@@@1@@Z 00443910 f i sockets:SocketHandler.obj
 0001:00042970       ??Fiterator@?$_Tree@V?$_Tmap_traits@IPAVSocket@@U?$less@I@std@@V?$allocator@U?$pair@$$CBIPAVSocket@@@std@@@3@$0A@@std@@@std@@QAEAAV012@XZ 00443970 f i sockets:SocketHandler.obj
 0001:000429a0       ??Econst_iterator@?$_Tree@V?$_Tmap_traits@IPAVSocket@@U?$less@I@std@@V?$allocator@U?$pair@$$CBIPAVSocket@@@std@@@3@$0A@@std@@@std@@QAE?AV012@H@Z 004439a0 f i sockets:SocketHandler.obj
 0001:00042a70       ?_Dec@const_iterator@?$_Tree@V?$_Tmap_traits@IPAVSocket@@U?$less@I@std@@V?$allocator@U?$pair@$$CBIPAVSocket@@@std@@@3@$0A@@std@@@std@@QAEXXZ 00443a70 f i sockets:SocketHandler.obj
 0001:00042d10       ??Fiterator@?$_Tree@V?$_Tmap_traits@PAVSocket@@_NU?$less@PAVSocket@@@std@@V?$allocator@U?$pair@QAVSocket@@_N@std@@@3@$0A@@std@@@std@@QAEAAV012@XZ 00443d10 f i sockets:SocketHandler.obj
 0001:00042d40       ??Econst_iterator@?$_Tree@V?$_Tmap_traits@PAVSocket@@_NU?$less@PAVSocket@@@std@@V?$allocator@U?$pair@QAVSocket@@_N@std@@@3@$0A@@std@@@std@@QAE?AV012@H@Z 00443d40 f i sockets:SocketHandler.obj
 0001:00042e10       ?_Dec@const_iterator@?$_Tree@V?$_Tmap_traits@PAVSocket@@_NU?$less@PAVSocket@@@std@@V?$allocator@U?$pair@QAVSocket@@_N@std@@@3@$0A@@std@@@std@@QAEXXZ 00443e10 f i sockets:SocketHandler.obj
 0001:000430b0       ??0?$pair@Viterator@?$_Tree@V?$_Tmap_traits@IPAVSocket@@U?$less@I@std@@V?$allocator@U?$pair@$$CBIPAVSocket@@@std@@@3@$0A@@std@@@std@@_N@std@@QAE@ABViterator@?$_Tree@V?$_Tmap_traits@IPAVSocket@@U?$less@I@std@@V?$allocator@U?$pair@$$CBIPAVSocket@@@std@@@3@$0A@@std@@@1@AB_N@Z 004440b0 f i sockets:SocketHandler.obj
 0001:000430f0       ??0?$pair@Viterator@?$_Tree@V?$_Tmap_traits@PAVSocket@@_NU?$less@PAVSocket@@@std@@V?$allocator@U?$pair@QAVSocket@@_N@std@@@3@$0A@@std@@@std@@_N@std@@QAE@ABViterator@?$_Tree@V?$_Tmap_traits@PAVSocket@@_NU?$less@PAVSocket@@@std@@V?$allocator@U?$pair@QAVSocket@@_N@std@@@3@$0A@@std@@@1@AB_N@Z 004440f0 f i sockets:SocketHandler.obj
 0001:00043130       ?_Erase@?$_Tree@V?$_Tmap_traits@IPAVSocket@@U?$less@I@std@@V?$allocator@U?$pair@$$CBIPAVSocket@@@std@@@3@$0A@@std@@@std@@IAEXPAU_Node@?$_Tree_nod@V?$_Tmap_traits@IPAVSocket@@U?$less@I@std@@V?$allocator@U?$pair@$$CBIPAVSocket@@@std@@@3@$0A@@std@@@2@@Z 00444130 f i sockets:SocketHandler.obj
 0001:000431d0       ??0?$_Tree_nod@V?$_Tmap_traits@IPAVSocket@@U?$less@I@std@@V?$allocator@U?$pair@$$CBIPAVSocket@@@std@@@3@$0A@@std@@@std@@IAE@ABU?$less@I@1@V?$allocator@U?$pair@$$CBIPAVSocket@@@std@@@1@@Z 004441d0 f i sockets:SocketHandler.obj
 0001:00043230       ?max_size@?$allocator@U?$pair@$$CBIPAVSocket@@@std@@@std@@QBEIXZ 00444230 f i sockets:SocketHandler.obj
 0001:00043280       ?allocate@?$allocator@U_Node@?$_Tree_nod@V?$_Tmap_traits@IPAVSocket@@U?$less@I@std@@V?$allocator@U?$pair@$$CBIPAVSocket@@@std@@@3@$0A@@std@@@std@@@std@@QAEPAU_Node@?$_Tree_nod@V?$_Tmap_traits@IPAVSocket@@U?$less@I@std@@V?$allocator@U?$pair@$$CBIPAVSocket@@@std@@@3@$0A@@std@@@2@I@Z 00444280 f i sockets:SocketHandler.obj
 0001:000432b0       ?construct@?$allocator@PAU_Node@?$_Tree_nod@V?$_Tmap_traits@IPAVSocket@@U?$less@I@std@@V?$allocator@U?$pair@$$CBIPAVSocket@@@std@@@3@$0A@@std@@@std@@@std@@QAEXPAPAU_Node@?$_Tree_nod@V?$_Tmap_traits@IPAVSocket@@U?$less@I@std@@V?$allocator@U?$pair@$$CBIPAVSocket@@@std@@@3@$0A@@std@@@2@ABQAU342@@Z 004442b0 f i sockets:SocketHandler.obj
 0001:000432e0       ?max_size@?$allocator@I@std@@QBEIXZ 004442e0 f i sockets:SocketHandler.obj
 0001:00043330       ??0?$_Container_base_aux_alloc_empty@V?$allocator@PAVSocket@@@std@@@std@@IAE@V?$allocator@PAVSocket@@@1@@Z 00444330 f i sockets:SocketHandler.obj
 0001:00043370       ?max_size@?$allocator@PAVSocket@@@std@@QBEIXZ 00444370 f i sockets:SocketHandler.obj
 0001:000433c0       ??0?$_Container_base_aux_alloc_empty@V?$allocator@I@std@@@std@@IAE@V?$allocator@I@1@@Z 004443c0 f i sockets:SocketHandler.obj
 0001:00043400       ?_Erase@?$_Tree@V?$_Tmap_traits@PAVSocket@@_NU?$less@PAVSocket@@@std@@V?$allocator@U?$pair@QAVSocket@@_N@std@@@3@$0A@@std@@@std@@IAEXPAU_Node@?$_Tree_nod@V?$_Tmap_traits@PAVSocket@@_NU?$less@PAVSocket@@@std@@V?$allocator@U?$pair@QAVSocket@@_N@std@@@3@$0A@@std@@@2@@Z 00444400 f i sockets:SocketHandler.obj
 0001:000434a0       ??0?$_Tree_nod@V?$_Tmap_traits@PAVSocket@@_NU?$less@PAVSocket@@@std@@V?$allocator@U?$pair@QAVSocket@@_N@std@@@3@$0A@@std@@@std@@IAE@ABU?$less@PAVSocket@@@1@V?$allocator@U?$pair@QAVSocket@@_N@std@@@1@@Z 004444a0 f i sockets:SocketHandler.obj
 0001:00043500       ?max_size@?$allocator@U?$pair@QAVSocket@@_N@std@@@std@@QBEIXZ 00444500 f i sockets:SocketHandler.obj
 0001:00043550       ?allocate@?$allocator@U_Node@?$_Tree_nod@V?$_Tmap_traits@PAVSocket@@_NU?$less@PAVSocket@@@std@@V?$allocator@U?$pair@QAVSocket@@_N@std@@@3@$0A@@std@@@std@@@std@@QAEPAU_Node@?$_Tree_nod@V?$_Tmap_traits@PAVSocket@@_NU?$less@PAVSocket@@@std@@V?$allocator@U?$pair@QAVSocket@@_N@std@@@3@$0A@@std@@@2@I@Z 00444550 f i sockets:SocketHandler.obj
 0001:00043580       ?construct@?$allocator@PAU_Node@?$_Tree_nod@V?$_Tmap_traits@PAVSocket@@_NU?$less@PAVSocket@@@std@@V?$allocator@U?$pair@QAVSocket@@_N@std@@@3@$0A@@std@@@std@@@std@@QAEXPAPAU_Node@?$_Tree_nod@V?$_Tmap_traits@PAVSocket@@_NU?$less@PAVSocket@@@std@@V?$allocator@U?$pair@QAVSocket@@_N@std@@@3@$0A@@std@@@2@ABQAU342@@Z 00444580 f i sockets:SocketHandler.obj
 0001:000435b0       ??0_Node@?$_Tree_nod@V?$_Tmap_traits@IPAVSocket@@U?$less@I@std@@V?$allocator@U?$pair@$$CBIPAVSocket@@@std@@@3@$0A@@std@@@std@@QAE@PAU012@00ABU?$pair@$$CBIPAVSocket@@@2@D@Z 004445b0 f i sockets:SocketHandler.obj
 0001:00043610       ??0_Node@?$_Tree_nod@V?$_Tmap_traits@PAVSocket@@_NU?$less@PAVSocket@@@std@@V?$allocator@U?$pair@QAVSocket@@_N@std@@@3@$0A@@std@@@std@@QAE@PAU012@00ABU?$pair@QAVSocket@@_N@2@D@Z 00444610 f i sockets:SocketHandler.obj
 0001:00043670       ??0?$_Tmap_traits@IPAVSocket@@U?$less@I@std@@V?$allocator@U?$pair@$$CBIPAVSocket@@@std@@@3@$0A@@std@@QAE@U?$less@I@1@V?$allocator@U?$pair@$$CBIPAVSocket@@@std@@@1@@Z 00444670 f i sockets:SocketHandler.obj
 0001:000436c0       ??0?$_Tmap_traits@PAVSocket@@_NU?$less@PAVSocket@@@std@@V?$allocator@U?$pair@QAVSocket@@_N@std@@@3@$0A@@std@@QAE@U?$less@PAVSocket@@@1@V?$allocator@U?$pair@QAVSocket@@_N@std@@@1@@Z 004446c0 f i sockets:SocketHandler.obj
 0001:00043710       ??0?$_Container_base_aux_alloc_empty@V?$allocator@U?$pair@$$CBIPAVSocket@@@std@@@std@@@std@@IAE@V?$allocator@U?$pair@$$CBIPAVSocket@@@std@@@1@@Z 00444710 f i sockets:SocketHandler.obj
 0001:00043750       ??0?$_Container_base_aux_alloc_empty@V?$allocator@U?$pair@QAVSocket@@_N@std@@@std@@@std@@IAE@V?$allocator@U?$pair@QAVSocket@@_N@std@@@1@@Z 00444750 f i sockets:SocketHandler.obj
 0001:00043790       ??$_Debug_lt_pred@U?$less@I@std@@II@std@@YA_NU?$less@I@0@ABI1PB_WI@Z 00444790 f i sockets:SocketHandler.obj
 0001:00043800       ??$insert@V?$_Const_iterator@$00@?$list@IV?$allocator@I@std@@@std@@@?$list@IV?$allocator@I@std@@@std@@QAEXV?$_Const_iterator@$00@01@00@Z 00444800 f i sockets:SocketHandler.obj
 0001:00043900       ??$_Debug_lt_pred@U?$less@PAVSocket@@@std@@PAVSocket@@PAV3@@std@@YA_NU?$less@PAVSocket@@@0@ABQAVSocket@@1PB_WI@Z 00444900 f i sockets:SocketHandler.obj
 0001:00043970       ??$_Destroy@U_Node@?$_Tree_nod@V?$_Tmap_traits@IPAVSocket@@U?$less@I@std@@V?$allocator@U?$pair@$$CBIPAVSocket@@@std@@@3@$0A@@std@@@std@@@std@@YAXPAU_Node@?$_Tree_nod@V?$_Tmap_traits@IPAVSocket@@U?$less@I@std@@V?$allocator@U?$pair@$$CBIPAVSocket@@@std@@@3@$0A@@std@@@0@@Z 00444970 f i sockets:SocketHandler.obj
 0001:00043980       ??$_Destroy@U_Node@?$_List_nod@PAVSocket@@V?$allocator@PAVSocket@@@std@@@std@@@std@@YAXPAU_Node@?$_List_nod@PAVSocket@@V?$allocator@PAVSocket@@@std@@@0@@Z 00444980 f i sockets:SocketHandler.obj
 0001:00043990       ??$_Destroy@U_Node@?$_List_nod@IV?$allocator@I@std@@@std@@@std@@YAXPAU_Node@?$_List_nod@IV?$allocator@I@std@@@0@@Z 00444990 f i sockets:SocketHandler.obj
 0001:000439a0       ??$_Destroy@U_Node@?$_Tree_nod@V?$_Tmap_traits@PAVSocket@@_NU?$less@PAVSocket@@@std@@V?$allocator@U?$pair@QAVSocket@@_N@std@@@3@$0A@@std@@@std@@@std@@YAXPAU_Node@?$_Tree_nod@V?$_Tmap_traits@PAVSocket@@_NU?$less@PAVSocket@@@std@@V?$allocator@U?$pair@QAVSocket@@_N@std@@@3@$0A@@std@@@0@@Z 004449a0 f i sockets:SocketHandler.obj
 0001:000439b0       ??$_Destroy@PAU_Node@?$_Tree_nod@V?$_Tmap_traits@IPAVSocket@@U?$less@I@std@@V?$allocator@U?$pair@$$CBIPAVSocket@@@std@@@3@$0A@@std@@@std@@@std@@YAXPAPAU_Node@?$_Tree_nod@V?$_Tmap_traits@IPAVSocket@@U?$less@I@std@@V?$allocator@U?$pair@$$CBIPAVSocket@@@std@@@3@$0A@@std@@@0@@Z 004449b0 f i sockets:SocketHandler.obj
 0001:000439c0       ??$?0PAVSocket@@@?$allocator@PAU_Node@?$_List_nod@PAVSocket@@V?$allocator@PAVSocket@@@std@@@std@@@std@@QAE@ABV?$allocator@PAVSocket@@@1@@Z 004449c0 f i sockets:SocketHandler.obj
 0001:000439e0       ??$_Allocate@U_Node@?$_List_nod@PAVSocket@@V?$allocator@PAVSocket@@@std@@@std@@@std@@YAPAU_Node@?$_List_nod@PAVSocket@@V?$allocator@PAVSocket@@@std@@@0@IPAU120@@Z 004449e0 f i sockets:SocketHandler.obj
 0001:00043a50       ??$_Construct@PAU_Node@?$_List_nod@PAVSocket@@V?$allocator@PAVSocket@@@std@@@std@@PAU123@@std@@YAXPAPAU_Node@?$_List_nod@PAVSocket@@V?$allocator@PAVSocket@@@std@@@0@ABQAU120@@Z 00444a50 f i sockets:SocketHandler.obj
 0001:00043ab0       ??$_Destroy@PAU_Node@?$_List_nod@PAVSocket@@V?$allocator@PAVSocket@@@std@@@std@@@std@@YAXPAPAU_Node@?$_List_nod@PAVSocket@@V?$allocator@PAVSocket@@@std@@@0@@Z 00444ab0 f i sockets:SocketHandler.obj
 0001:00043ac0       ??$?0I@?$allocator@PAU_Node@?$_List_nod@IV?$allocator@I@std@@@std@@@std@@QAE@ABV?$allocator@I@1@@Z 00444ac0 f i sockets:SocketHandler.obj
 0001:00043ae0       ??$_Allocate@U_Node@?$_List_nod@IV?$allocator@I@std@@@std@@@std@@YAPAU_Node@?$_List_nod@IV?$allocator@I@std@@@0@IPAU120@@Z 00444ae0 f i sockets:SocketHandler.obj
 0001:00043b50       ??$_Construct@PAU_Node@?$_List_nod@IV?$allocator@I@std@@@std@@PAU123@@std@@YAXPAPAU_Node@?$_List_nod@IV?$allocator@I@std@@@0@ABQAU120@@Z 00444b50 f i sockets:SocketHandler.obj
 0001:00043bb0       ??$_Destroy@PAU_Node@?$_List_nod@IV?$allocator@I@std@@@std@@@std@@YAXPAPAU_Node@?$_List_nod@IV?$allocator@I@std@@@0@@Z 00444bb0 f i sockets:SocketHandler.obj
 0001:00043bc0       ??$_Destroy@PAU_Node@?$_Tree_nod@V?$_Tmap_traits@PAVSocket@@_NU?$less@PAVSocket@@@std@@V?$allocator@U?$pair@QAVSocket@@_N@std@@@3@$0A@@std@@@std@@@std@@YAXPAPAU_Node@?$_Tree_nod@V?$_Tmap_traits@PAVSocket@@_NU?$less@PAVSocket@@@std@@V?$allocator@U?$pair@QAVSocket@@_N@std@@@3@$0A@@std@@@0@@Z 00444bc0 f i sockets:SocketHandler.obj
 0001:00043bd0       ??$?0U?$pair@$$CBIPAVSocket@@@std@@@?$allocator@PAU_Node@?$_Tree_nod@V?$_Tmap_traits@IPAVSocket@@U?$less@I@std@@V?$allocator@U?$pair@$$CBIPAVSocket@@@std@@@3@$0A@@std@@@std@@@std@@QAE@ABV?$allocator@U?$pair@$$CBIPAVSocket@@@std@@@1@@Z 00444bd0 f i sockets:SocketHandler.obj
 0001:00043bf0       ??$_Construct@II@std@@YAXPAIABI@Z 00444bf0 f i sockets:SocketHandler.obj
 0001:00043c50       ??$?0PAVSocket@@@?$allocator@U_Node@?$_List_nod@PAVSocket@@V?$allocator@PAVSocket@@@std@@@std@@@std@@QAE@ABV?$allocator@PAVSocket@@@1@@Z 00444c50 f i sockets:SocketHandler.obj
 0001:00043c70       ??$_Construct@PAVSocket@@PAV1@@std@@YAXPAPAVSocket@@ABQAV1@@Z 00444c70 f i sockets:SocketHandler.obj
 0001:00043cd0       ??$?0I@?$allocator@U_Node@?$_List_nod@IV?$allocator@I@std@@@std@@@std@@QAE@ABV?$allocator@I@1@@Z 00444cd0 f i sockets:SocketHandler.obj
 0001:00043cf0       ??$?0U?$pair@QAVSocket@@_N@std@@@?$allocator@PAU_Node@?$_Tree_nod@V?$_Tmap_traits@PAVSocket@@_NU?$less@PAVSocket@@@std@@V?$allocator@U?$pair@QAVSocket@@_N@std@@@3@$0A@@std@@@std@@@std@@QAE@ABV?$allocator@U?$pair@QAVSocket@@_N@std@@@1@@Z 00444cf0 f i sockets:SocketHandler.obj
 0001:00043d10       ??$?0U?$pair@$$CBIPAVSocket@@@std@@@?$allocator@U_Node@?$_Tree_nod@V?$_Tmap_traits@IPAVSocket@@U?$less@I@std@@V?$allocator@U?$pair@$$CBIPAVSocket@@@std@@@3@$0A@@std@@@std@@@std@@QAE@ABV?$allocator@U?$pair@$$CBIPAVSocket@@@std@@@1@@Z 00444d10 f i sockets:SocketHandler.obj
 0001:00043d30       ??$_Allocate@U_Node@?$_Tree_nod@V?$_Tmap_traits@IPAVSocket@@U?$less@I@std@@V?$allocator@U?$pair@$$CBIPAVSocket@@@std@@@3@$0A@@std@@@std@@@std@@YAPAU_Node@?$_Tree_nod@V?$_Tmap_traits@IPAVSocket@@U?$less@I@std@@V?$allocator@U?$pair@$$CBIPAVSocket@@@std@@@3@$0A@@std@@@0@IPAU120@@Z 00444d30 f i sockets:SocketHandler.obj
 0001:00043da0       ??$_Construct@PAU_Node@?$_Tree_nod@V?$_Tmap_traits@IPAVSocket@@U?$less@I@std@@V?$allocator@U?$pair@$$CBIPAVSocket@@@std@@@3@$0A@@std@@@std@@PAU123@@std@@YAXPAPAU_Node@?$_Tree_nod@V?$_Tmap_traits@IPAVSocket@@U?$less@I@std@@V?$allocator@U?$pair@$$CBIPAVSocket@@@std@@@3@$0A@@std@@@0@ABQAU120@@Z 00444da0 f i sockets:SocketHandler.obj
 0001:00043e00       ??$?0U?$pair@QAVSocket@@_N@std@@@?$allocator@U_Node@?$_Tree_nod@V?$_Tmap_traits@PAVSocket@@_NU?$less@PAVSocket@@@std@@V?$allocator@U?$pair@QAVSocket@@_N@std@@@3@$0A@@std@@@std@@@std@@QAE@ABV?$allocator@U?$pair@QAVSocket@@_N@std@@@1@@Z 00444e00 f i sockets:SocketHandler.obj
 0001:00043e20       ??$_Allocate@U_Node@?$_Tree_nod@V?$_Tmap_traits@PAVSocket@@_NU?$less@PAVSocket@@@std@@V?$allocator@U?$pair@QAVSocket@@_N@std@@@3@$0A@@std@@@std@@@std@@YAPAU_Node@?$_Tree_nod@V?$_Tmap_traits@PAVSocket@@_NU?$less@PAVSocket@@@std@@V?$allocator@U?$pair@QAVSocket@@_N@std@@@3@$0A@@std@@@0@IPAU120@@Z 00444e20 f i sockets:SocketHandler.obj
 0001:00043e90       ??$_Construct@PAU_Node@?$_Tree_nod@V?$_Tmap_traits@PAVSocket@@_NU?$less@PAVSocket@@@std@@V?$allocator@U?$pair@QAVSocket@@_N@std@@@3@$0A@@std@@@std@@PAU123@@std@@YAXPAPAU_Node@?$_Tree_nod@V?$_Tmap_traits@PAVSocket@@_NU?$less@PAVSocket@@@std@@V?$allocator@U?$pair@QAVSocket@@_N@std@@@3@$0A@@std@@@0@ABQAU120@@Z 00444e90 f i sockets:SocketHandler.obj
 0001:00043ef0       ??$_Iter_cat@V?$_Const_iterator@$00@?$list@IV?$allocator@I@std@@@std@@@std@@YA?AUbidirectional_iterator_tag@0@ABV?$_Const_iterator@$00@?$list@IV?$allocator@I@std@@@0@@Z 00444ef0 f i sockets:SocketHandler.obj
 0001:00043f40       ??$_Insert@V?$_Const_iterator@$00@?$list@IV?$allocator@I@std@@@std@@@?$list@IV?$allocator@I@std@@@std@@QAEXV?$_Const_iterator@$00@01@00Uforward_iterator_tag@1@@Z 00444f40 f i sockets:SocketHandler.obj
 0001:00044150       ??F?$_Const_iterator@$00@?$list@IV?$allocator@I@std@@@std@@QAEAAV012@XZ 00445150 f i sockets:SocketHandler.obj
 0001:00044230       ??$_Debug_range@V?$_Const_iterator@$00@?$list@IV?$allocator@I@std@@@std@@@std@@YAXV?$_Const_iterator@$00@?$list@IV?$allocator@I@std@@@0@0PB_WI@Z 00445230 f i sockets:SocketHandler.obj
 0001:00044310       ??$_Debug_range2@V?$_Const_iterator@$00@?$list@IV?$allocator@I@std@@@std@@@std@@YAXV?$_Const_iterator@$00@?$list@IV?$allocator@I@std@@@0@0PB_WIUinput_iterator_tag@0@@Z 00445310 f i sockets:SocketHandler.obj
 0001:00044370       ??0Ipv4Address@@QAE@G@Z    00445370 f   sockets:Ipv4Address.obj
 0001:000443f0       ??_EIpv4Address@@UAEPAXI@Z 004453f0 f i sockets:Ipv4Address.obj
 0001:000443f0       ??_GIpv4Address@@UAEPAXI@Z 004453f0 f i sockets:Ipv4Address.obj
 0001:00044430       ??0SocketAddress@@QAE@XZ   00445430 f i sockets:Ipv4Address.obj
 0001:00044450       ??_GSocketAddress@@UAEPAXI@Z 00445450 f i sockets:Ipv4Address.obj
 0001:00044450       ??_ESocketAddress@@UAEPAXI@Z 00445450 f i sockets:Ipv4Address.obj
 0001:00044490       ??1SocketAddress@@UAE@XZ   00445490 f i sockets:Ipv4Address.obj
 0001:000444b0       ??0Ipv4Address@@QAE@KG@Z   004454b0 f   sockets:Ipv4Address.obj
 0001:00044540       ??0Ipv4Address@@QAE@AAUin_addr@@G@Z 00445540 f   sockets:Ipv4Address.obj
 0001:000445c0       ??0Ipv4Address@@QAE@ABV?$basic_string@DU?$char_traits@D@std@@V?$allocator@D@2@@std@@G@Z 004455c0 f   sockets:Ipv4Address.obj
 0001:000446e0       ??0Ipv4Address@@QAE@AAUsockaddr_in@@@Z 004456e0 f   sockets:Ipv4Address.obj
 0001:00044750       ??1Ipv4Address@@UAE@XZ     00445750 f   sockets:Ipv4Address.obj
 0001:00044780       ??BIpv4Address@@UAEPAUsockaddr@@XZ 00445780 f   sockets:Ipv4Address.obj
 0001:000447a0       ??BIpv4Address@@UAEHXZ     004457a0 f   sockets:Ipv4Address.obj
 0001:000447c0       ?SetPort@Ipv4Address@@UAEXG@Z 004457c0 f   sockets:Ipv4Address.obj
 0001:00044800       ?GetPort@Ipv4Address@@UAEGXZ 00445800 f   sockets:Ipv4Address.obj
 0001:00044840       ?Resolve@Ipv4Address@@SA_NABV?$basic_string@DU?$char_traits@D@std@@V?$allocator@D@2@@std@@AAUin_addr@@@Z 00445840 f   sockets:Ipv4Address.obj
 0001:00044920       ?Reverse@Ipv4Address@@SA_NAAUin_addr@@AAV?$basic_string@DU?$char_traits@D@std@@V?$allocator@D@2@@std@@@Z 00445920 f   sockets:Ipv4Address.obj
 0001:000449c0       ?Convert@Ipv4Address@@UAE?AV?$basic_string@DU?$char_traits@D@std@@V?$allocator@D@2@@std@@_N@Z 004459c0 f   sockets:Ipv4Address.obj
 0001:00044b60       ?Convert@Ipv4Address@@SA?AV?$basic_string@DU?$char_traits@D@std@@V?$allocator@D@2@@std@@AAUin_addr@@@Z 00445b60 f   sockets:Ipv4Address.obj
 0001:00044ca0       ?SetAddress@Ipv4Address@@UAEXPAUsockaddr@@@Z 00445ca0 f   sockets:Ipv4Address.obj
 0001:00044ce0       ?GetFamily@Ipv4Address@@UAEHXZ 00445ce0 f   sockets:Ipv4Address.obj
 0001:00044d00       ?IsValid@Ipv4Address@@UAE_NXZ 00445d00 f   sockets:Ipv4Address.obj
 0001:00044d20       ??8Ipv4Address@@UAE_NAAVSocketAddress@@@Z 00445d20 f   sockets:Ipv4Address.obj
 0001:00044e00       ?GetCopy@Ipv4Address@@UAE?AV?$auto_ptr@VSocketAddress@@@std@@XZ 00445e00 f   sockets:Ipv4Address.obj
 0001:00044ef0       ?Reverse@Ipv4Address@@UAE?AV?$basic_string@DU?$char_traits@D@std@@V?$allocator@D@2@@std@@XZ 00445ef0 f   sockets:Ipv4Address.obj
 0001:00045000       ?StrError@@YAPBDH@Z        00446000 f   sockets:socket_include.obj
 0001:00045350       ?base64@Utility@@SA?AV?$basic_string@DU?$char_traits@D@std@@V?$allocator@D@2@@std@@ABV23@@Z 00446350 f   sockets:Utility.obj
 0001:00045470       ?base64d@Utility@@SA?AV?$basic_string@DU?$char_traits@D@std@@V?$allocator@D@2@@std@@ABV23@@Z 00446470 f   sockets:Utility.obj
 0001:00045590       ?l2string@Utility@@SA?AV?$basic_string@DU?$char_traits@D@std@@V?$allocator@D@2@@std@@J@Z 00446590 f   sockets:Utility.obj
 0001:000456e0       ?bigint2string@Utility@@SA?AV?$basic_string@DU?$char_traits@D@std@@V?$allocator@D@2@@std@@_K@Z 004466e0 f   sockets:Utility.obj
 0001:000458b0       ?atoi64@Utility@@SA_KABV?$basic_string@DU?$char_traits@D@std@@V?$allocator@D@2@@std@@@Z 004468b0 f   sockets:Utility.obj
 0001:00045960       ?hex2unsigned@Utility@@SAIABV?$basic_string@DU?$char_traits@D@std@@V?$allocator@D@2@@std@@@Z 00446960 f   sockets:Utility.obj
 0001:00045a40       ?rfc1738_encode@Utility@@SA?AV?$basic_string@DU?$char_traits@D@std@@V?$allocator@D@2@@std@@ABV23@@Z 00446a40 f   sockets:Utility.obj
 0001:00045c80       ?rfc1738_decode@Utility@@SA?AV?$basic_string@DU?$char_traits@D@std@@V?$allocator@D@2@@std@@ABV23@@Z 00446c80 f   sockets:Utility.obj
 0001:00045f60       ?isipv4@Utility@@SA_NABV?$basic_string@DU?$char_traits@D@std@@V?$allocator@D@2@@std@@@Z 00446f60 f   sockets:Utility.obj
 0001:00046020       ?isipv6@Utility@@SA_NABV?$basic_string@DU?$char_traits@D@std@@V?$allocator@D@2@@std@@@Z 00447020 f   sockets:Utility.obj
 0001:00046440       ?u2ip@Utility@@SA_NABV?$basic_string@DU?$char_traits@D@std@@V?$allocator@D@2@@std@@AAK@Z 00447440 f   sockets:Utility.obj
 0001:000464e0       ?l2ip@Utility@@SAXKAAV?$basic_string@DU?$char_traits@D@std@@V?$allocator@D@2@@std@@@Z 004474e0 f   sockets:Utility.obj
 0001:00046590       ?l2ip@Utility@@SAXABUin_addr@@AAV?$basic_string@DU?$char_traits@D@std@@V?$allocator@D@2@@std@@@Z 00447590 f   sockets:Utility.obj
 0001:00046630       ?ResolveLocal@Utility@@SAXXZ 00447630 f   sockets:Utility.obj
 0001:00046780       ?GetLocalHostname@Utility@@SAABV?$basic_string@DU?$char_traits@D@std@@V?$allocator@D@2@@std@@XZ 00447780 f   sockets:Utility.obj
 0001:000467b0       ?GetLocalIP@Utility@@SAKXZ 004477b0 f   sockets:Utility.obj
 0001:000467e0       ?GetLocalAddress@Utility@@SAABV?$basic_string@DU?$char_traits@D@std@@V?$allocator@D@2@@std@@XZ 004477e0 f   sockets:Utility.obj
 0001:00046810       ?SetEnv@Utility@@SAXABV?$basic_string@DU?$char_traits@D@std@@V?$allocator@D@2@@std@@0@Z 00447810 f   sockets:Utility.obj
 0001:00046940       ?Sa2String@Utility@@SA?AV?$basic_string@DU?$char_traits@D@std@@V?$allocator@D@2@@std@@PAUsockaddr@@@Z 00447940 f   sockets:Utility.obj
 0001:00046b70       ?GetTime@Utility@@SAXPAUtimeval@@@Z 00447b70 f   sockets:Utility.obj
 0001:00046c40       ?CreateAddress@Utility@@SA?AV?$auto_ptr@VSocketAddress@@@std@@PAUsockaddr@@H@Z 00447c40 f   sockets:Utility.obj
 0001:00046d80       ?u2ip@Utility@@SA_NABV?$basic_string@DU?$char_traits@D@std@@V?$allocator@D@2@@std@@AAUsockaddr_in@@H@Z 00447d80 f   sockets:Utility.obj
 0001:00046fc0       ?reverse@Utility@@SA_NPAUsockaddr@@HAAV?$basic_string@DU?$char_traits@D@std@@V?$allocator@D@2@@std@@H@Z 00447fc0 f   sockets:Utility.obj
 0001:000470b0       ?reverse@Utility@@SA_NPAUsockaddr@@HAAV?$basic_string@DU?$char_traits@D@std@@V?$allocator@D@2@@std@@1H@Z 004480b0 f   sockets:Utility.obj
 0001:00047240       ?u2service@Utility@@SA_NABV?$basic_string@DU?$char_traits@D@std@@V?$allocator@D@2@@std@@AAHH@Z 00448240 f   sockets:Utility.obj
 0001:00047250       ?ThreadID@Utility@@SAKXZ   00448250 f   sockets:Utility.obj
 0001:00047270       ?ToLower@Utility@@SA?AV?$basic_string@DU?$char_traits@D@std@@V?$allocator@D@2@@std@@ABV23@@Z 00448270 f   sockets:Utility.obj
 0001:00047430       ?ToUpper@Utility@@SA?AV?$basic_string@DU?$char_traits@D@std@@V?$allocator@D@2@@std@@ABV23@@Z 00448430 f   sockets:Utility.obj
 0001:000475f0       ?ToString@Utility@@SA?AV?$basic_string@DU?$char_traits@D@std@@V?$allocator@D@2@@std@@N@Z 004485f0 f   sockets:Utility.obj
 0001:000476b0       ?Rnd@Utility@@SAKXZ        004486b0 f   sockets:Utility.obj
 0001:00047770       ??0Rng@Utility@@QAE@K@Z    00448770 f   sockets:Utility.obj
 0001:000477f0       ?Get@Rng@Utility@@QAEKXZ   004487f0 f   sockets:Utility.obj
 0001:00047970       ??0Thread@@QAE@_N@Z        00448970 f   sockets:Thread.obj
 0001:00047a00       ??_EThread@@UAEPAXI@Z      00448a00 f i sockets:Thread.obj
 0001:00047a00       ??_GThread@@UAEPAXI@Z      00448a00 f i sockets:Thread.obj
 0001:00047a40       ??1Thread@@UAE@XZ          00448a40 f   sockets:Thread.obj
 0001:00047ac0       ?StartThread@Thread@@SGIPAX@Z 00448ac0 f   sockets:Thread.obj
 0001:00047bb0       ?IsRunning@Thread@@QAE_NXZ 00448bb0 f   sockets:Thread.obj
 0001:00047bd0       ?SetRunning@Thread@@QAEX_N@Z 00448bd0 f   sockets:Thread.obj
 0001:00047bf0       ?IsReleased@Thread@@QAE_NXZ 00448bf0 f   sockets:Thread.obj
 0001:00047c10       ?SetRelease@Thread@@QAEX_N@Z 00448c10 f   sockets:Thread.obj
 0001:00047c30       ?DeleteOnExit@Thread@@QAE_NXZ 00448c30 f   sockets:Thread.obj
 0001:00047c50       ?SetDeleteOnExit@Thread@@QAEX_N@Z 00448c50 f   sockets:Thread.obj
 0001:00047c70       ?IsDestructor@Thread@@QAE_NXZ 00448c70 f   sockets:Thread.obj
 0001:00047c90       ??0Mutex@@QAE@XZ           00448c90 f   sockets:Mutex.obj
 0001:00047cd0       ??1Mutex@@QAE@XZ           00448cd0 f   sockets:Mutex.obj
 0001:00047d10       ?Lock@Mutex@@QAEXXZ        00448d10 f   sockets:Mutex.obj
 0001:00047d50       ?Unlock@Mutex@@QAEXXZ      00448d50 f   sockets:Mutex.obj
 0001:00047d90       ??0ResolvServer@@QAE@G@Z   00448d90 f   sockets:ResolvServer.obj
 0001:00047de0       ??_GResolvServer@@UAEPAXI@Z 00448de0 f i sockets:ResolvServer.obj
 0001:00047de0       ??_EResolvServer@@UAEPAXI@Z 00448de0 f i sockets:ResolvServer.obj
 0001:00047e20       ??1ResolvServer@@UAE@XZ    00448e20 f   sockets:ResolvServer.obj
 0001:00047e50       ?Run@ResolvServer@@UAEXXZ  00448e50 f   sockets:ResolvServer.obj
 0001:00048020       ?Quit@ResolvServer@@QAEXXZ 00449020 f   sockets:ResolvServer.obj
 0001:00048040       ?Ready@ResolvServer@@QAE_NXZ 00449040 f   sockets:ResolvServer.obj
 0001:00048060       ??0?$ListenSocket@VResolvSocket@@@@QAE@AAVISocketHandler@@_N@Z 00449060 f i sockets:ResolvServer.obj
 0001:000481f0       ??1?$ListenSocket@VResolvSocket@@@@UAE@XZ 004491f0 f i sockets:ResolvServer.obj
 0001:000482b0       ?Close@?$ListenSocket@VResolvSocket@@@@UAEHXZ 004492b0 f i sockets:ResolvServer.obj
 0001:00048300       ?Bind@?$ListenSocket@VResolvSocket@@@@QAEHABV?$basic_string@DU?$char_traits@D@std@@V?$allocator@D@2@@std@@GH@Z 00449300 f i sockets:ResolvServer.obj
 0001:00048490       ?GetPort@?$ListenSocket@VResolvSocket@@@@UAEGXZ 00449490 f i sockets:ResolvServer.obj
 0001:000484c0       ?OnRead@?$ListenSocket@VResolvSocket@@@@UAEXXZ 004494c0 f i sockets:ResolvServer.obj
 0001:00048a60       ?Accept@?$ListenSocket@VResolvSocket@@@@UAEIIPAUsockaddr@@PAH@Z 00449a60 f i sockets:ResolvServer.obj
 0001:00048aa0       ?OnOptions@?$ListenSocket@VResolvSocket@@@@UAEXHHHI@Z 00449aa0 f i sockets:ResolvServer.obj
 0001:00048ad0       ??_G?$ListenSocket@VResolvSocket@@@@UAEPAXI@Z 00449ad0 f i sockets:ResolvServer.obj
 0001:00048ad0       ??_E?$ListenSocket@VResolvSocket@@@@UAEPAXI@Z 00449ad0 f i sockets:ResolvServer.obj
 0001:00048b10       ?Bind@?$ListenSocket@VResolvSocket@@@@QAEHAAVSocketAddress@@H@Z 00449b10 f i sockets:ResolvServer.obj
 0001:00048bc0       ?Bind@?$ListenSocket@VResolvSocket@@@@QAEHAAVSocketAddress@@ABV?$basic_string@DU?$char_traits@D@std@@V?$allocator@D@2@@std@@H@Z 00449bc0 f i sockets:ResolvServer.obj
 0001:00048ea0       ??0ResolvSocket@@QAE@AAVISocketHandler@@@Z 00449ea0 f   sockets:ResolvSocket.obj
 0001:00048fd0       ?OnAccept@ResolvSocket@@UAEXXZ 00449fd0 f i sockets:ResolvSocket.obj
 0001:00048ff0       ??_GResolvSocket@@UAEPAXI@Z 00449ff0 f i sockets:ResolvSocket.obj
 0001:00048ff0       ??_EResolvSocket@@UAEPAXI@Z 00449ff0 f i sockets:ResolvSocket.obj
 0001:00049030       ??0ResolvSocket@@QAE@AAVISocketHandler@@PAVSocket@@ABV?$basic_string@DU?$char_traits@D@std@@V?$allocator@D@2@@std@@G_N@Z 0044a030 f   sockets:ResolvSocket.obj
 0001:00049160       ??0ResolvSocket@@QAE@AAVISocketHandler@@PAVSocket@@K@Z 0044a160 f   sockets:ResolvSocket.obj
 0001:000492a0       ??1ResolvSocket@@UAE@XZ    0044a2a0 f   sockets:ResolvSocket.obj
 0001:00049360       ?OnLine@ResolvSocket@@UAEXABV?$basic_string@DU?$char_traits@D@std@@V?$allocator@D@2@@std@@@Z 0044a360 f   sockets:ResolvSocket.obj
 0001:0004a0f0       ??1iterator@?$_Tree@V?$_Tmap_traits@V?$basic_string@DU?$char_traits@D@std@@V?$allocator@D@2@@std@@V12@U?$less@V?$basic_string@DU?$char_traits@D@std@@V?$allocator@D@2@@std@@@2@V?$allocator@U?$pair@$$CBV?$basic_string@DU?$char_traits@D@std@@V?$allocator@D@2@@std@@V12@@std@@@2@$0A@@std@@@std@@QAE@XZ 0044b0f0 f i sockets:ResolvSocket.obj
 0001:0004a120       ??1const_iterator@?$_Tree@V?$_Tmap_traits@V?$basic_string@DU?$char_traits@D@std@@V?$allocator@D@2@@std@@V12@U?$less@V?$basic_string@DU?$char_traits@D@std@@V?$allocator@D@2@@std@@@2@V?$allocator@U?$pair@$$CBV?$basic_string@DU?$char_traits@D@std@@V?$allocator@D@2@@std@@V12@@std@@@2@$0A@@std@@@std@@QAE@XZ 0044b120 f i sockets:ResolvSocket.obj
 0001:0004a150       ??1?$_Bidit@U?$pair@$$CBV?$basic_string@DU?$char_traits@D@std@@V?$allocator@D@2@@std@@V12@@std@@HPBU12@ABU12@@std@@QAE@XZ 0044b150 f i sockets:ResolvSocket.obj
 0001:0004a180       ??1?$_Iterator_with_base@Ubidirectional_iterator_tag@std@@U?$pair@$$CBV?$basic_string@DU?$char_traits@D@std@@V?$allocator@D@2@@std@@V12@@2@HPBU32@ABU32@V_Iterator_base@2@@std@@QAE@XZ 0044b180 f i sockets:ResolvSocket.obj
 0001:0004a1b0       ?OnDetached@ResolvSocket@@UAEXXZ 0044b1b0 f   sockets:ResolvSocket.obj
 0001:0004a960       ?OnConnect@ResolvSocket@@UAEXXZ 0044b960 f   sockets:ResolvSocket.obj
 0001:0004ac70       ?OnDelete@ResolvSocket@@UAEXXZ 0044bc70 f   sockets:ResolvSocket.obj
 0001:0004aea0       ??A?$map@V?$basic_string@DU?$char_traits@D@std@@V?$allocator@D@2@@std@@V?$map@V?$basic_string@DU?$char_traits@D@std@@V?$allocator@D@2@@std@@V12@U?$less@V?$basic_string@DU?$char_traits@D@std@@V?$allocator@D@2@@std@@@2@V?$allocator@U?$pair@$$CBV?$basic_string@DU?$char_traits@D@std@@V?$allocator@D@2@@std@@V12@@std@@@2@@2@U?$less@V?$basic_string@DU?$char_traits@D@std@@V?$allocator@D@2@@std@@@2@V?$allocator@U?$pair@$$CBV?$basic_string@DU?$char_traits@D@std@@V?$allocator@D@2@@std@@V?$map@V?$basic_string@DU?$char_traits@D@std@@V?$allocator@D@2@@std@@V12@U?$less@V?$basic_string@DU?$char_traits@D@std@@V?$allocator@D@2@@std@@@2@V?$allocator@U?$pair@$$CBV?$basic_string@DU?$char_traits@D@std@@V?$allocator@D@2@@std@@V12@@std@@@2@@2@@std@@@2@@std@@QAEAAV?$map@V?$basic_string@DU?$char_traits@D@std@@V?$allocator@D@2@@std@@V12@U?$less@V?$basic_string@DU?$char_traits@D@std@@V?$allocator@D@2@@std@@@2@V?$allocator@U?$pair@$$CBV?$basic_string@DU?$char_traits@D@std@@V?$allocator@D@2@@std@@V12@@std@@@2@@1@ABV?$basic_string@DU?$char_traits@D@std@@V?$allocator@D@2@@1@@Z 0044bea0 f i sockets:ResolvSocket.obj
 0001:0004b100       ??A?$map@V?$basic_string@DU?$char_traits@D@std@@V?$allocator@D@2@@std@@V?$map@V?$basic_string@DU?$char_traits@D@std@@V?$allocator@D@2@@std@@_JU?$less@V?$basic_string@DU?$char_traits@D@std@@V?$allocator@D@2@@std@@@2@V?$allocator@U?$pair@$$CBV?$basic_string@DU?$char_traits@D@std@@V?$allocator@D@2@@std@@_J@std@@@2@@2@U?$less@V?$basic_string@DU?$char_traits@D@std@@V?$allocator@D@2@@std@@@2@V?$allocator@U?$pair@$$CBV?$basic_string@DU?$char_traits@D@std@@V?$allocator@D@2@@std@@V?$map@V?$basic_string@DU?$char_traits@D@std@@V?$allocator@D@2@@std@@_JU?$less@V?$basic_string@DU?$char_traits@D@std@@V?$allocator@D@2@@std@@@2@V?$allocator@U?$pair@$$CBV?$basic_string@DU?$char_traits@D@std@@V?$allocator@D@2@@std@@_J@std@@@2@@2@@std@@@2@@std@@QAEAAV?$map@V?$basic_string@DU?$char_traits@D@std@@V?$allocator@D@2@@std@@_JU?$less@V?$basic_string@DU?$char_traits@D@std@@V?$allocator@D@2@@std@@@2@V?$allocator@U?$pair@$$CBV?$basic_string@DU?$char_traits@D@std@@V?$allocator@D@2@@std@@_J@std@@@2@@1@ABV?$basic_string@DU?$char_traits@D@std@@V?$allocator@D@2@@1@@Z 0044c100 f i sockets:ResolvSocket.obj
 0001:0004b360       ??A?$map@V?$basic_string@DU?$char_traits@D@std@@V?$allocator@D@2@@std@@V12@U?$less@V?$basic_string@DU?$char_traits@D@std@@V?$allocator@D@2@@std@@@2@V?$allocator@U?$pair@$$CBV?$basic_string@DU?$char_traits@D@std@@V?$allocator@D@2@@std@@V12@@std@@@2@@std@@QAEAAV?$basic_string@DU?$char_traits@D@std@@V?$allocator@D@2@@1@ABV21@@Z 0044c360 f i sockets:ResolvSocket.obj
 0001:0004b5e0       ?end@?$_Tree@V?$_Tmap_traits@V?$basic_string@DU?$char_traits@D@std@@V?$allocator@D@2@@std@@V12@U?$less@V?$basic_string@DU?$char_traits@D@std@@V?$allocator@D@2@@std@@@2@V?$allocator@U?$pair@$$CBV?$basic_string@DU?$char_traits@D@std@@V?$allocator@D@2@@std@@V12@@std@@@2@$0A@@std@@@std@@QAE?AViterator@12@XZ 0044c5e0 f i sockets:ResolvSocket.obj
 0001:0004b630       ?find@?$_Tree@V?$_Tmap_traits@V?$basic_string@DU?$char_traits@D@std@@V?$allocator@D@2@@std@@V12@U?$less@V?$basic_string@DU?$char_traits@D@std@@V?$allocator@D@2@@std@@@2@V?$allocator@U?$pair@$$CBV?$basic_string@DU?$char_traits@D@std@@V?$allocator@D@2@@std@@V12@@std@@@2@$0A@@std@@@std@@QAE?AViterator@12@ABV?$basic_string@DU?$char_traits@D@std@@V?$allocator@D@2@@2@@Z 0044c630 f i sockets:ResolvSocket.obj
 0001:0004b7d0       ??9const_iterator@?$_Tree@V?$_Tmap_traits@V?$basic_string@DU?$char_traits@D@std@@V?$allocator@D@2@@std@@V12@U?$less@V?$basic_string@DU?$char_traits@D@std@@V?$allocator@D@2@@std@@@2@V?$allocator@U?$pair@$$CBV?$basic_string@DU?$char_traits@D@std@@V?$allocator@D@2@@std@@V12@@std@@@2@$0A@@std@@@std@@QBE_NABV012@@Z 0044c7d0 f i sockets:ResolvSocket.obj
 0001:0004b810       ??A?$map@V?$basic_string@DU?$char_traits@D@std@@V?$allocator@D@2@@std@@_JU?$less@V?$basic_string@DU?$char_traits@D@std@@V?$allocator@D@2@@std@@@2@V?$allocator@U?$pair@$$CBV?$basic_string@DU?$char_traits@D@std@@V?$allocator@D@2@@std@@_J@std@@@2@@std@@QAEAA_JABV?$basic_string@DU?$char_traits@D@std@@V?$allocator@D@2@@1@@Z 0044c810 f i sockets:ResolvSocket.obj
 0001:0004ba20       ??1iterator@?$_Tree@V?$_Tmap_traits@V?$basic_string@DU?$char_traits@D@std@@V?$allocator@D@2@@std@@V?$map@V?$basic_string@DU?$char_traits@D@std@@V?$allocator@D@2@@std@@V12@U?$less@V?$basic_string@DU?$char_traits@D@std@@V?$allocator@D@2@@std@@@2@V?$allocator@U?$pair@$$CBV?$basic_string@DU?$char_traits@D@std@@V?$allocator@D@2@@std@@V12@@std@@@2@@2@U?$less@V?$basic_string@DU?$char_traits@D@std@@V?$allocator@D@2@@std@@@2@V?$allocator@U?$pair@$$CBV?$basic_string@DU?$char_traits@D@std@@V?$allocator@D@2@@std@@V?$map@V?$basic_string@DU?$char_traits@D@std@@V?$allocator@D@2@@std@@V12@U?$less@V?$basic_string@DU?$char_traits@D@std@@V?$allocator@D@2@@std@@@2@V?$allocator@U?$pair@$$CBV?$basic_string@DU?$char_traits@D@std@@V?$allocator@D@2@@std@@V12@@std@@@2@@2@@std@@@2@$0A@@std@@@std@@QAE@XZ 0044ca20 f i sockets:ResolvSocket.obj
 0001:0004ba50       ??1?$map@V?$basic_string@DU?$char_traits@D@std@@V?$allocator@D@2@@std@@V12@U?$less@V?$basic_string@DU?$char_traits@D@std@@V?$allocator@D@2@@std@@@2@V?$allocator@U?$pair@$$CBV?$basic_string@DU?$char_traits@D@std@@V?$allocator@D@2@@std@@V12@@std@@@2@@std@@QAE@XZ 0044ca50 f i sockets:ResolvSocket.obj
 0001:0004ba80       ??1?$pair@$$CBV?$basic_string@DU?$char_traits@D@std@@V?$allocator@D@2@@std@@V?$map@V?$basic_string@DU?$char_traits@D@std@@V?$allocator@D@2@@std@@V12@U?$less@V?$basic_string@DU?$char_traits@D@std@@V?$allocator@D@2@@std@@@2@V?$allocator@U?$pair@$$CBV?$basic_string@DU?$char_traits@D@std@@V?$allocator@D@2@@std@@V12@@std@@@2@@2@@std@@QAE@XZ 0044ca80 f i sockets:ResolvSocket.obj
 0001:0004bb00       ??0const_iterator@?$_Tree@V?$_Tmap_traits@V?$basic_string@DU?$char_traits@D@std@@V?$allocator@D@2@@std@@V?$map@V?$basic_string@DU?$char_traits@D@std@@V?$allocator@D@2@@std@@V12@U?$less@V?$basic_string@DU?$char_traits@D@std@@V?$allocator@D@2@@std@@@2@V?$allocator@U?$pair@$$CBV?$basic_string@DU?$char_traits@D@std@@V?$allocator@D@2@@std@@V12@@std@@@2@@2@U?$less@V?$basic_string@DU?$char_traits@D@std@@V?$allocator@D@2@@std@@@2@V?$allocator@U?$pair@$$CBV?$basic_string@DU?$char_traits@D@std@@V?$allocator@D@2@@std@@V?$map@V?$basic_string@DU?$char_traits@D@std@@V?$allocator@D@2@@std@@V12@U?$less@V?$basic_string@DU?$char_traits@D@std@@V?$allocator@D@2@@std@@@2@V?$allocator@U?$pair@$$CBV?$basic_string@DU?$char_traits@D@std@@V?$allocator@D@2@@std@@V12@@std@@@2@@2@@std@@@2@$0A@@std@@@std@@QAE@ABV012@@Z 0044cb00 f i sockets:ResolvSocket.obj
 0001:0004bb40       ??1const_iterator@?$_Tree@V?$_Tmap_traits@V?$basic_string@DU?$char_traits@D@std@@V?$allocator@D@2@@std@@V?$map@V?$basic_string@DU?$char_traits@D@std@@V?$allocator@D@2@@std@@V12@U?$less@V?$basic_string@DU?$char_traits@D@std@@V?$allocator@D@2@@std@@@2@V?$allocator@U?$pair@$$CBV?$basic_string@DU?$char_traits@D@std@@V?$allocator@D@2@@std@@V12@@std@@@2@@2@U?$less@V?$basic_string@DU?$char_traits@D@std@@V?$allocator@D@2@@std@@@2@V?$allocator@U?$pair@$$CBV?$basic_string@DU?$char_traits@D@std@@V?$allocator@D@2@@std@@V?$map@V?$basic_string@DU?$char_traits@D@std@@V?$allocator@D@2@@std@@V12@U?$less@V?$basic_string@DU?$char_traits@D@std@@V?$allocator@D@2@@std@@@2@V?$allocator@U?$pair@$$CBV?$basic_string@DU?$char_traits@D@std@@V?$allocator@D@2@@std@@V12@@std@@@2@@2@@std@@@2@$0A@@std@@@std@@QAE@XZ 0044cb40 f i sockets:ResolvSocket.obj
 0001:0004bb70       ??4iterator@?$_Tree@V?$_Tmap_traits@V?$basic_string@DU?$char_traits@D@std@@V?$allocator@D@2@@std@@V?$map@V?$basic_string@DU?$char_traits@D@std@@V?$allocator@D@2@@std@@V12@U?$less@V?$basic_string@DU?$char_traits@D@std@@V?$allocator@D@2@@std@@@2@V?$allocator@U?$pair@$$CBV?$basic_string@DU?$char_traits@D@std@@V?$allocator@D@2@@std@@V12@@std@@@2@@2@U?$less@V?$basic_string@DU?$char_traits@D@std@@V?$allocator@D@2@@std@@@2@V?$allocator@U?$pair@$$CBV?$basic_string@DU?$char_traits@D@std@@V?$allocator@D@2@@std@@V?$map@V?$basic_string@DU?$char_traits@D@std@@V?$allocator@D@2@@std@@V12@U?$less@V?$basic_string@DU?$char_traits@D@std@@V?$allocator@D@2@@std@@@2@V?$allocator@U?$pair@$$CBV?$basic_string@DU?$char_traits@D@std@@V?$allocator@D@2@@std@@V12@@std@@@2@@2@@std@@@2@$0A@@std@@@std@@QAEAAV012@ABV012@@Z 0044cb70 f i sockets:ResolvSocket.obj
 0001:0004bba0       ??1iterator@?$_Tree@V?$_Tmap_traits@V?$basic_string@DU?$char_traits@D@std@@V?$allocator@D@2@@std@@V?$map@V?$basic_string@DU?$char_traits@D@std@@V?$allocator@D@2@@std@@_JU?$less@V?$basic_string@DU?$char_traits@D@std@@V?$allocator@D@2@@std@@@2@V?$allocator@U?$pair@$$CBV?$basic_string@DU?$char_traits@D@std@@V?$allocator@D@2@@std@@_J@std@@@2@@2@U?$less@V?$basic_string@DU?$char_traits@D@std@@V?$allocator@D@2@@std@@@2@V?$allocator@U?$pair@$$CBV?$basic_string@DU?$char_traits@D@std@@V?$allocator@D@2@@std@@V?$map@V?$basic_string@DU?$char_traits@D@std@@V?$allocator@D@2@@std@@_JU?$less@V?$basic_string@DU?$char_traits@D@std@@V?$allocator@D@2@@std@@@2@V?$allocator@U?$pair@$$CBV?$basic_string@DU?$char_traits@D@std@@V?$allocator@D@2@@std@@_J@std@@@2@@2@@std@@@2@$0A@@std@@@std@@QAE@XZ 0044cba0 f i sockets:ResolvSocket.obj
 0001:0004bbd0       ??1?$map@V?$basic_string@DU?$char_traits@D@std@@V?$allocator@D@2@@std@@_JU?$less@V?$basic_string@DU?$char_traits@D@std@@V?$allocator@D@2@@std@@@2@V?$allocator@U?$pair@$$CBV?$basic_string@DU?$char_traits@D@std@@V?$allocator@D@2@@std@@_J@std@@@2@@std@@QAE@XZ 0044cbd0 f i sockets:ResolvSocket.obj
 0001:0004bc00       ??1?$pair@$$CBV?$basic_string@DU?$char_traits@D@std@@V?$allocator@D@2@@std@@V?$map@V?$basic_string@DU?$char_traits@D@std@@V?$allocator@D@2@@std@@_JU?$less@V?$basic_string@DU?$char_traits@D@std@@V?$allocator@D@2@@std@@@2@V?$allocator@U?$pair@$$CBV?$basic_string@DU?$char_traits@D@std@@V?$allocator@D@2@@std@@_J@std@@@2@@2@@std@@QAE@XZ 0044cc00 f i sockets:ResolvSocket.obj
 0001:0004bc80       ??0const_iterator@?$_Tree@V?$_Tmap_traits@V?$basic_string@DU?$char_traits@D@std@@V?$allocator@D@2@@std@@V?$map@V?$basic_string@DU?$char_traits@D@std@@V?$allocator@D@2@@std@@_JU?$less@V?$basic_string@DU?$char_traits@D@std@@V?$allocator@D@2@@std@@@2@V?$allocator@U?$pair@$$CBV?$basic_string@DU?$char_traits@D@std@@V?$allocator@D@2@@std@@_J@std@@@2@@2@U?$less@V?$basic_string@DU?$char_traits@D@std@@V?$allocator@D@2@@std@@@2@V?$allocator@U?$pair@$$CBV?$basic_string@DU?$char_traits@D@std@@V?$allocator@D@2@@std@@V?$map@V?$basic_string@DU?$char_traits@D@std@@V?$allocator@D@2@@std@@_JU?$less@V?$basic_string@DU?$char_traits@D@std@@V?$allocator@D@2@@std@@@2@V?$allocator@U?$pair@$$CBV?$basic_string@DU?$char_traits@D@std@@V?$allocator@D@2@@std@@_J@std@@@2@@2@@std@@@2@$0A@@std@@@std@@QAE@ABV012@@Z 0044cc80 f i sockets:ResolvSocket.obj
 0001:0004bcc0       ??1const_iterator@?$_Tree@V?$_Tmap_traits@V?$basic_string@DU?$char_traits@D@std@@V?$allocator@D@2@@std@@V?$map@V?$basic_string@DU?$char_traits@D@std@@V?$allocator@D@2@@std@@_JU?$less@V?$basic_string@DU?$char_traits@D@std@@V?$allocator@D@2@@std@@@2@V?$allocator@U?$pair@$$CBV?$basic_string@DU?$char_traits@D@std@@V?$allocator@D@2@@std@@_J@std@@@2@@2@U?$less@V?$basic_string@DU?$char_traits@D@std@@V?$allocator@D@2@@std@@@2@V?$allocator@U?$pair@$$CBV?$basic_string@DU?$char_traits@D@std@@V?$allocator@D@2@@std@@V?$map@V?$basic_string@DU?$char_traits@D@std@@V?$allocator@D@2@@std@@_JU?$less@V?$basic_string@DU?$char_traits@D@std@@V?$allocator@D@2@@std@@@2@V?$allocator@U?$pair@$$CBV?$basic_string@DU?$char_traits@D@std@@V?$allocator@D@2@@std@@_J@std@@@2@@2@@std@@@2@$0A@@std@@@std@@QAE@XZ 0044ccc0 f i sockets:ResolvSocket.obj
 0001:0004bcf0       ??4iterator@?$_Tree@V?$_Tmap_traits@V?$basic_string@DU?$char_traits@D@std@@V?$allocator@D@2@@std@@V?$map@V?$basic_string@DU?$char_traits@D@std@@V?$allocator@D@2@@std@@_JU?$less@V?$basic_string@DU?$char_traits@D@std@@V?$allocator@D@2@@std@@@2@V?$allocator@U?$pair@$$CBV?$basic_string@DU?$char_traits@D@std@@V?$allocator@D@2@@std@@_J@std@@@2@@2@U?$less@V?$basic_string@DU?$char_traits@D@std@@V?$allocator@D@2@@std@@@2@V?$allocator@U?$pair@$$CBV?$basic_string@DU?$char_traits@D@std@@V?$allocator@D@2@@std@@V?$map@V?$basic_string@DU?$char_traits@D@std@@V?$allocator@D@2@@std@@_JU?$less@V?$basic_string@DU?$char_traits@D@std@@V?$allocator@D@2@@std@@@2@V?$allocator@U?$pair@$$CBV?$basic_string@DU?$char_traits@D@std@@V?$allocator@D@2@@std@@_J@std@@@2@@2@@std@@@2@$0A@@std@@@std@@QAEAAV012@ABV012@@Z 0044ccf0 f i sockets:ResolvSocket.obj
 0001:0004bd20       ??1?$pair@$$CBV?$basic_string@DU?$char_traits@D@std@@V?$allocator@D@2@@std@@V12@@std@@QAE@XZ 0044cd20 f i sockets:ResolvSocket.obj
 0001:0004bda0       ??0const_iterator@?$_Tree@V?$_Tmap_traits@V?$basic_string@DU?$char_traits@D@std@@V?$allocator@D@2@@std@@V12@U?$less@V?$basic_string@DU?$char_traits@D@std@@V?$allocator@D@2@@std@@@2@V?$allocator@U?$pair@$$CBV?$basic_string@DU?$char_traits@D@std@@V?$allocator@D@2@@std@@V12@@std@@@2@$0A@@std@@@std@@QAE@ABV012@@Z 0044cda0 f i sockets:ResolvSocket.obj
 0001:0004bde0       ??4iterator@?$_Tree@V?$_Tmap_traits@V?$basic_string@DU?$char_traits@D@std@@V?$allocator@D@2@@std@@V12@U?$less@V?$basic_string@DU?$char_traits@D@std@@V?$allocator@D@2@@std@@@2@V?$allocator@U?$pair@$$CBV?$basic_string@DU?$char_traits@D@std@@V?$allocator@D@2@@std@@V12@@std@@@2@$0A@@std@@@std@@QAEAAV012@ABV012@@Z 0044cde0 f i sockets:ResolvSocket.obj
 0001:0004be10       ??0iterator@?$_Tree@V?$_Tmap_traits@V?$basic_string@DU?$char_traits@D@std@@V?$allocator@D@2@@std@@V12@U?$less@V?$basic_string@DU?$char_traits@D@std@@V?$allocator@D@2@@std@@@2@V?$allocator@U?$pair@$$CBV?$basic_string@DU?$char_traits@D@std@@V?$allocator@D@2@@std@@V12@@std@@@2@$0A@@std@@@std@@QAE@ABV012@@Z 0044ce10 f i sockets:ResolvSocket.obj
 0001:0004be40       ??1iterator@?$_Tree@V?$_Tmap_traits@V?$basic_string@DU?$char_traits@D@std@@V?$allocator@D@2@@std@@_JU?$less@V?$basic_string@DU?$char_traits@D@std@@V?$allocator@D@2@@std@@@2@V?$allocator@U?$pair@$$CBV?$basic_string@DU?$char_traits@D@std@@V?$allocator@D@2@@std@@_J@std@@@2@$0A@@std@@@std@@QAE@XZ 0044ce40 f i sockets:ResolvSocket.obj
 0001:0004be70       ??1?$pair@$$CBV?$basic_string@DU?$char_traits@D@std@@V?$allocator@D@2@@std@@_J@std@@QAE@XZ 0044ce70 f i sockets:ResolvSocket.obj
 0001:0004bea0       ??0const_iterator@?$_Tree@V?$_Tmap_traits@V?$basic_string@DU?$char_traits@D@std@@V?$allocator@D@2@@std@@_JU?$less@V?$basic_string@DU?$char_traits@D@std@@V?$allocator@D@2@@std@@@2@V?$allocator@U?$pair@$$CBV?$basic_string@DU?$char_traits@D@std@@V?$allocator@D@2@@std@@_J@std@@@2@$0A@@std@@@std@@QAE@ABV012@@Z 0044cea0 f i sockets:ResolvSocket.obj
 0001:0004bee0       ??1const_iterator@?$_Tree@V?$_Tmap_traits@V?$basic_string@DU?$char_traits@D@std@@V?$allocator@D@2@@std@@_JU?$less@V?$basic_string@DU?$char_traits@D@std@@V?$allocator@D@2@@std@@@2@V?$allocator@U?$pair@$$CBV?$basic_string@DU?$char_traits@D@std@@V?$allocator@D@2@@std@@_J@std@@@2@$0A@@std@@@std@@QAE@XZ 0044cee0 f i sockets:ResolvSocket.obj
 0001:0004bf10       ??4iterator@?$_Tree@V?$_Tmap_traits@V?$basic_string@DU?$char_traits@D@std@@V?$allocator@D@2@@std@@_JU?$less@V?$basic_string@DU?$char_traits@D@std@@V?$allocator@D@2@@std@@@2@V?$allocator@U?$pair@$$CBV?$basic_string@DU?$char_traits@D@std@@V?$allocator@D@2@@std@@_J@std@@@2@$0A@@std@@@std@@QAEAAV012@ABV012@@Z 0044cf10 f i sockets:ResolvSocket.obj
 0001:0004bf40       ??0?$_Bidit@U?$pair@$$CBV?$basic_string@DU?$char_traits@D@std@@V?$allocator@D@2@@std@@V?$map@V?$basic_string@DU?$char_traits@D@std@@V?$allocator@D@2@@std@@V12@U?$less@V?$basic_string@DU?$char_traits@D@std@@V?$allocator@D@2@@std@@@2@V?$allocator@U?$pair@$$CBV?$basic_string@DU?$char_traits@D@std@@V?$allocator@D@2@@std@@V12@@std@@@2@@2@@std@@HPBU12@ABU12@@std@@QAE@ABU01@@Z 0044cf40 f i sockets:ResolvSocket.obj
 0001:0004bf70       ??1?$_Bidit@U?$pair@$$CBV?$basic_string@DU?$char_traits@D@std@@V?$allocator@D@2@@std@@V?$map@V?$basic_string@DU?$char_traits@D@std@@V?$allocator@D@2@@std@@V12@U?$less@V?$basic_string@DU?$char_traits@D@std@@V?$allocator@D@2@@std@@@2@V?$allocator@U?$pair@$$CBV?$basic_string@DU?$char_traits@D@std@@V?$allocator@D@2@@std@@V12@@std@@@2@@2@@std@@HPBU12@ABU12@@std@@QAE@XZ 0044cf70 f i sockets:ResolvSocket.obj
 0001:0004bfa0       ??4const_iterator@?$_Tree@V?$_Tmap_traits@V?$basic_string@DU?$char_traits@D@std@@V?$allocator@D@2@@std@@V?$map@V?$basic_string@DU?$char_traits@D@std@@V?$allocator@D@2@@std@@V12@U?$less@V?$basic_string@DU?$char_traits@D@std@@V?$allocator@D@2@@std@@@2@V?$allocator@U?$pair@$$CBV?$basic_string@DU?$char_traits@D@std@@V?$allocator@D@2@@std@@V12@@std@@@2@@2@U?$less@V?$basic_string@DU?$char_traits@D@std@@V?$allocator@D@2@@std@@@2@V?$allocator@U?$pair@$$CBV?$basic_string@DU?$char_traits@D@std@@V?$allocator@D@2@@std@@V?$map@V?$basic_string@DU?$char_traits@D@std@@V?$allocator@D@2@@std@@V12@U?$less@V?$basic_string@DU?$char_traits@D@std@@V?$allocator@D@2@@std@@@2@V?$allocator@U?$pair@$$CBV?$basic_string@DU?$char_traits@D@std@@V?$allocator@D@2@@std@@V12@@std@@@2@@2@@std@@@2@$0A@@std@@@std@@QAEAAV012@ABV012@@Z 0044cfa0 f i sockets:ResolvSocket.obj
 0001:0004bfe0       ??0?$_Bidit@U?$pair@$$CBV?$basic_string@DU?$char_traits@D@std@@V?$allocator@D@2@@std@@V?$map@V?$basic_string@DU?$char_traits@D@std@@V?$allocator@D@2@@std@@_JU?$less@V?$basic_string@DU?$char_traits@D@std@@V?$allocator@D@2@@std@@@2@V?$allocator@U?$pair@$$CBV?$basic_string@DU?$char_traits@D@std@@V?$allocator@D@2@@std@@_J@std@@@2@@2@@std@@HPBU12@ABU12@@std@@QAE@ABU01@@Z 0044cfe0 f i sockets:ResolvSocket.obj
 0001:0004c010       ??1?$_Bidit@U?$pair@$$CBV?$basic_string@DU?$char_traits@D@std@@V?$allocator@D@2@@std@@V?$map@V?$basic_string@DU?$char_traits@D@std@@V?$allocator@D@2@@std@@_JU?$less@V?$basic_string@DU?$char_traits@D@std@@V?$allocator@D@2@@std@@@2@V?$allocator@U?$pair@$$CBV?$basic_string@DU?$char_traits@D@std@@V?$allocator@D@2@@std@@_J@std@@@2@@2@@std@@HPBU12@ABU12@@std@@QAE@XZ 0044d010 f i sockets:ResolvSocket.obj
 0001:0004c040       ??4const_iterator@?$_Tree@V?$_Tmap_traits@V?$basic_string@DU?$char_traits@D@std@@V?$allocator@D@2@@std@@V?$map@V?$basic_string@DU?$char_traits@D@std@@V?$allocator@D@2@@std@@_JU?$less@V?$basic_string@DU?$char_traits@D@std@@V?$allocator@D@2@@std@@@2@V?$allocator@U?$pair@$$CBV?$basic_string@DU?$char_traits@D@std@@V?$allocator@D@2@@std@@_J@std@@@2@@2@U?$less@V?$basic_string@DU?$char_traits@D@std@@V?$allocator@D@2@@std@@@2@V?$allocator@U?$pair@$$CBV?$basic_string@DU?$char_traits@D@std@@V?$allocator@D@2@@std@@V?$map@V?$basic_string@DU?$char_traits@D@std@@V?$allocator@D@2@@std@@_JU?$less@V?$basic_string@DU?$char_traits@D@std@@V?$allocator@D@2@@std@@@2@V?$allocator@U?$pair@$$CBV?$basic_string@DU?$char_traits@D@std@@V?$allocator@D@2@@std@@_J@std@@@2@@2@@std@@@2@$0A@@std@@@std@@QAEAAV012@ABV012@@Z 0044d040 f i sockets:ResolvSocket.obj
 0001:0004c080       ??0?$_Bidit@U?$pair@$$CBV?$basic_string@DU?$char_traits@D@std@@V?$allocator@D@2@@std@@V12@@std@@HPBU12@ABU12@@std@@QAE@ABU01@@Z 0044d080 f i sockets:ResolvSocket.obj
 0001:0004c0b0       ??4const_iterator@?$_Tree@V?$_Tmap_traits@V?$basic_string@DU?$char_traits@D@std@@V?$allocator@D@2@@std@@V12@U?$less@V?$basic_string@DU?$char_traits@D@std@@V?$allocator@D@2@@std@@@2@V?$allocator@U?$pair@$$CBV?$basic_string@DU?$char_traits@D@std@@V?$allocator@D@2@@std@@V12@@std@@@2@$0A@@std@@@std@@QAEAAV012@ABV012@@Z 0044d0b0 f i sockets:ResolvSocket.obj
 0001:0004c0f0       ??0?$_Bidit@U?$pair@$$CBV?$basic_string@DU?$char_traits@D@std@@V?$allocator@D@2@@std@@_J@std@@HPBU12@ABU12@@std@@QAE@ABU01@@Z 0044d0f0 f i sockets:ResolvSocket.obj
 0001:0004c120       ??1?$_Bidit@U?$pair@$$CBV?$basic_string@DU?$char_traits@D@std@@V?$allocator@D@2@@std@@_J@std@@HPBU12@ABU12@@std@@QAE@XZ 0044d120 f i sockets:ResolvSocket.obj
 0001:0004c150       ??4const_iterator@?$_Tree@V?$_Tmap_traits@V?$basic_string@DU?$char_traits@D@std@@V?$allocator@D@2@@std@@_JU?$less@V?$basic_string@DU?$char_traits@D@std@@V?$allocator@D@2@@std@@@2@V?$allocator@U?$pair@$$CBV?$basic_string@DU?$char_traits@D@std@@V?$allocator@D@2@@std@@_J@std@@@2@$0A@@std@@@std@@QAEAAV012@ABV012@@Z 0044d150 f i sockets:ResolvSocket.obj
 0001:0004c190       ??0?$_Iterator_with_base@Ubidirectional_iterator_tag@std@@U?$pair@$$CBV?$basic_string@DU?$char_traits@D@std@@V?$allocator@D@2@@std@@V?$map@V?$basic_string@DU?$char_traits@D@std@@V?$allocator@D@2@@std@@V12@U?$less@V?$basic_string@DU?$char_traits@D@std@@V?$allocator@D@2@@std@@@2@V?$allocator@U?$pair@$$CBV?$basic_string@DU?$char_traits@D@std@@V?$allocator@D@2@@std@@V12@@std@@@2@@2@@2@HPBU32@ABU32@V_Iterator_base@2@@std@@QAE@ABU01@@Z 0044d190 f i sockets:ResolvSocket.obj
 0001:0004c1c0       ??1?$_Iterator_with_base@Ubidirectional_iterator_tag@std@@U?$pair@$$CBV?$basic_string@DU?$char_traits@D@std@@V?$allocator@D@2@@std@@V?$map@V?$basic_string@DU?$char_traits@D@std@@V?$allocator@D@2@@std@@V12@U?$less@V?$basic_string@DU?$char_traits@D@std@@V?$allocator@D@2@@std@@@2@V?$allocator@U?$pair@$$CBV?$basic_string@DU?$char_traits@D@std@@V?$allocator@D@2@@std@@V12@@std@@@2@@2@@2@HPBU32@ABU32@V_Iterator_base@2@@std@@QAE@XZ 0044d1c0 f i sockets:ResolvSocket.obj
 0001:0004c1f0       ??4?$_Bidit@U?$pair@$$CBV?$basic_string@DU?$char_traits@D@std@@V?$allocator@D@2@@std@@V?$map@V?$basic_string@DU?$char_traits@D@std@@V?$allocator@D@2@@std@@V12@U?$less@V?$basic_string@DU?$char_traits@D@std@@V?$allocator@D@2@@std@@@2@V?$allocator@U?$pair@$$CBV?$basic_string@DU?$char_traits@D@std@@V?$allocator@D@2@@std@@V12@@std@@@2@@2@@std@@HPBU12@ABU12@@std@@QAEAAU01@ABU01@@Z 0044d1f0 f i sockets:ResolvSocket.obj
 0001:0004c220       ??0?$_Iterator_with_base@Ubidirectional_iterator_tag@std@@U?$pair@$$CBV?$basic_string@DU?$char_traits@D@std@@V?$allocator@D@2@@std@@V?$map@V?$basic_string@DU?$char_traits@D@std@@V?$allocator@D@2@@std@@_JU?$less@V?$basic_string@DU?$char_traits@D@std@@V?$allocator@D@2@@std@@@2@V?$allocator@U?$pair@$$CBV?$basic_string@DU?$char_traits@D@std@@V?$allocator@D@2@@std@@_J@std@@@2@@2@@2@HPBU32@ABU32@V_Iterator_base@2@@std@@QAE@ABU01@@Z 0044d220 f i sockets:ResolvSocket.obj
 0001:0004c250       ??1?$_Iterator_with_base@Ubidirectional_iterator_tag@std@@U?$pair@$$CBV?$basic_string@DU?$char_traits@D@std@@V?$allocator@D@2@@std@@V?$map@V?$basic_string@DU?$char_traits@D@std@@V?$allocator@D@2@@std@@_JU?$less@V?$basic_string@DU?$char_traits@D@std@@V?$allocator@D@2@@std@@@2@V?$allocator@U?$pair@$$CBV?$basic_string@DU?$char_traits@D@std@@V?$allocator@D@2@@std@@_J@std@@@2@@2@@2@HPBU32@ABU32@V_Iterator_base@2@@std@@QAE@XZ 0044d250 f i sockets:ResolvSocket.obj
 0001:0004c280       ??4?$_Bidit@U?$pair@$$CBV?$basic_string@DU?$char_traits@D@std@@V?$allocator@D@2@@std@@V?$map@V?$basic_string@DU?$char_traits@D@std@@V?$allocator@D@2@@std@@_JU?$less@V?$basic_string@DU?$char_traits@D@std@@V?$allocator@D@2@@std@@@2@V?$allocator@U?$pair@$$CBV?$basic_string@DU?$char_traits@D@std@@V?$allocator@D@2@@std@@_J@std@@@2@@2@@std@@HPBU12@ABU12@@std@@QAEAAU01@ABU01@@Z 0044d280 f i sockets:ResolvSocket.obj
 0001:0004c2b0       ??0?$_Iterator_with_base@Ubidirectional_iterator_tag@std@@U?$pair@$$CBV?$basic_string@DU?$char_traits@D@std@@V?$allocator@D@2@@std@@V12@@2@HPBU32@ABU32@V_Iterator_base@2@@std@@QAE@ABU01@@Z 0044d2b0 f i sockets:ResolvSocket.obj
 0001:0004c2e0       ??4?$_Bidit@U?$pair@$$CBV?$basic_string@DU?$char_traits@D@std@@V?$allocator@D@2@@std@@V12@@std@@HPBU12@ABU12@@std@@QAEAAU01@ABU01@@Z 0044d2e0 f i sockets:ResolvSocket.obj
 0001:0004c310       ??0?$_Iterator_with_base@Ubidirectional_iterator_tag@std@@U?$pair@$$CBV?$basic_string@DU?$char_traits@D@std@@V?$allocator@D@2@@std@@_J@2@HPBU32@ABU32@V_Iterator_base@2@@std@@QAE@ABU01@@Z 0044d310 f i sockets:ResolvSocket.obj
 0001:0004c340       ??1?$_Iterator_with_base@Ubidirectional_iterator_tag@std@@U?$pair@$$CBV?$basic_string@DU?$char_traits@D@std@@V?$allocator@D@2@@std@@_J@2@HPBU32@ABU32@V_Iterator_base@2@@std@@QAE@XZ 0044d340 f i sockets:ResolvSocket.obj
 0001:0004c370       ??4?$_Bidit@U?$pair@$$CBV?$basic_string@DU?$char_traits@D@std@@V?$allocator@D@2@@std@@_J@std@@HPBU12@ABU12@@std@@QAEAAU01@ABU01@@Z 0044d370 f i sockets:ResolvSocket.obj
 0001:0004c3a0       ??4?$_Iterator_with_base@Ubidirectional_iterator_tag@std@@U?$pair@$$CBV?$basic_string@DU?$char_traits@D@std@@V?$allocator@D@2@@std@@V?$map@V?$basic_string@DU?$char_traits@D@std@@V?$allocator@D@2@@std@@V12@U?$less@V?$basic_string@DU?$char_traits@D@std@@V?$allocator@D@2@@std@@@2@V?$allocator@U?$pair@$$CBV?$basic_string@DU?$char_traits@D@std@@V?$allocator@D@2@@std@@V12@@std@@@2@@2@@2@HPBU32@ABU32@V_Iterator_base@2@@std@@QAEAAU01@ABU01@@Z 0044d3a0 f i sockets:ResolvSocket.obj
 0001:0004c3d0       ??4?$_Iterator_with_base@Ubidirectional_iterator_tag@std@@U?$pair@$$CBV?$basic_string@DU?$char_traits@D@std@@V?$allocator@D@2@@std@@V?$map@V?$basic_string@DU?$char_traits@D@std@@V?$allocator@D@2@@std@@_JU?$less@V?$basic_string@DU?$char_traits@D@std@@V?$allocator@D@2@@std@@@2@V?$allocator@U?$pair@$$CBV?$basic_string@DU?$char_traits@D@std@@V?$allocator@D@2@@std@@_J@std@@@2@@2@@2@HPBU32@ABU32@V_Iterator_base@2@@std@@QAEAAU01@ABU01@@Z 0044d3d0 f i sockets:ResolvSocket.obj
 0001:0004c400       ??4?$_Iterator_with_base@Ubidirectional_iterator_tag@std@@U?$pair@$$CBV?$basic_string@DU?$char_traits@D@std@@V?$allocator@D@2@@std@@V12@@2@HPBU32@ABU32@V_Iterator_base@2@@std@@QAEAAU01@ABU01@@Z 0044d400 f i sockets:ResolvSocket.obj
 0001:0004c430       ??4?$_Iterator_with_base@Ubidirectional_iterator_tag@std@@U?$pair@$$CBV?$basic_string@DU?$char_traits@D@std@@V?$allocator@D@2@@std@@_J@2@HPBU32@ABU32@V_Iterator_base@2@@std@@QAEAAU01@ABU01@@Z 0044d430 f i sockets:ResolvSocket.obj
 0001:0004c460       ?_Key@?$_Tree@V?$_Tmap_traits@V?$basic_string@DU?$char_traits@D@std@@V?$allocator@D@2@@std@@V?$map@V?$basic_string@DU?$char_traits@D@std@@V?$allocator@D@2@@std@@V12@U?$less@V?$basic_string@DU?$char_traits@D@std@@V?$allocator@D@2@@std@@@2@V?$allocator@U?$pair@$$CBV?$basic_string@DU?$char_traits@D@std@@V?$allocator@D@2@@std@@V12@@std@@@2@@2@U?$less@V?$basic_string@DU?$char_traits@D@std@@V?$allocator@D@2@@std@@@2@V?$allocator@U?$pair@$$CBV?$basic_string@DU?$char_traits@D@std@@V?$allocator@D@2@@std@@V?$map@V?$basic_string@DU?$char_traits@D@std@@V?$allocator@D@2@@std@@V12@U?$less@V?$basic_string@DU?$char_traits@D@std@@V?$allocator@D@2@@std@@@2@V?$allocator@U?$pair@$$CBV?$basic_string@DU?$char_traits@D@std@@V?$allocator@D@2@@std@@V12@@std@@@2@@2@@std@@@2@$0A@@std@@@std@@KAABV?$basic_string@DU?$char_traits@D@std@@V?$allocator@D@2@@2@PAU_Node@?$_Tree_nod@V?$_Tmap_traits@V?$basic_string@DU?$char_traits@D@std@@V?$allocator@D@2@@std@@V?$map@V?$basic_string@DU?$char_traits@D@std@@V?$allocator@D@2@@std@@V12@U?$less@V?$basic_string@DU?$char_traits@D@std@@V?$allocator@D@2@@std@@@2@V?$allocator@U?$pair@$$CBV?$basic_string@DU?$char_traits@D@std@@V?$allocator@D@2@@std@@V12@@std@@@2@@2@U?$less@V?$basic_string@DU?$char_traits@D@std@@V?$allocator@D@2@@std@@@2@V?$allocator@U?$pair@$$CBV?$basic_string@DU?$char_traits@D@std@@V?$allocator@D@2@@std@@V?$map@V?$basic_string@DU?$char_traits@D@std@@V?$allocator@D@2@@std@@V12@U?$less@V?$basic_string@DU?$char_traits@D@std@@V?$allocator@D@2@@std@@@2@V?$allocator@U?$pair@$$CBV?$basic_string@DU?$char_traits@D@std@@V?$allocator@D@2@@std@@V12@@std@@@2@@2@@std@@@2@$0A@@std@@@2@@Z 0044d460 f i sockets:ResolvSocket.obj
 0001:0004c490       ?end@?$_Tree@V?$_Tmap_traits@V?$basic_string@DU?$char_traits@D@std@@V?$allocator@D@2@@std@@V?$map@V?$basic_string@DU?$char_traits@D@std@@V?$allocator@D@2@@std@@V12@U?$less@V?$basic_string@DU?$char_traits@D@std@@V?$allocator@D@2@@std@@@2@V?$allocator@U?$pair@$$CBV?$basic_string@DU?$char_traits@D@std@@V?$allocator@D@2@@std@@V12@@std@@@2@@2@U?$less@V?$basic_string@DU?$char_traits@D@std@@V?$allocator@D@2@@std@@@2@V?$allocator@U?$pair@$$CBV?$basic_string@DU?$char_traits@D@std@@V?$allocator@D@2@@std@@V?$map@V?$basic_string@DU?$char_traits@D@std@@V?$allocator@D@2@@std@@V12@U?$less@V?$basic_string@DU?$char_traits@D@std@@V?$allocator@D@2@@std@@@2@V?$allocator@U?$pair@$$CBV?$basic_string@DU?$char_traits@D@std@@V?$allocator@D@2@@std@@V12@@std@@@2@@2@@std@@@2@$0A@@std@@@std@@QAE?AViterator@12@XZ 0044d490 f i sockets:ResolvSocket.obj
 0001:0004c4e0       ?insert@?$_Tree@V?$_Tmap_traits@V?$basic_string@DU?$char_traits@D@std@@V?$allocator@D@2@@std@@V?$map@V?$basic_string@DU?$char_traits@D@std@@V?$allocator@D@2@@std@@V12@U?$less@V?$basic_string@DU?$char_traits@D@std@@V?$allocator@D@2@@std@@@2@V?$allocator@U?$pair@$$CBV?$basic_string@DU?$char_traits@D@std@@V?$allocator@D@2@@std@@V12@@std@@@2@@2@U?$less@V?$basic_string@DU?$char_traits@D@std@@V?$allocator@D@2@@std@@@2@V?$allocator@U?$pair@$$CBV?$basic_string@DU?$char_traits@D@std@@V?$allocator@D@2@@std@@V?$map@V?$basic_string@DU?$char_traits@D@std@@V?$allocator@D@2@@std@@V12@U?$less@V?$basic_string@DU?$char_traits@D@std@@V?$allocator@D@2@@std@@@2@V?$allocator@U?$pair@$$CBV?$basic_string@DU?$char_traits@D@std@@V?$allocator@D@2@@std@@V12@@std@@@2@@2@@std@@@2@$0A@@std@@@std@@QAE?AViterator@12@Vconst_iterator@12@ABU?$pair@$$CBV?$basic_string@DU?$char_traits@D@std@@V?$allocator@D@2@@std@@V?$map@V?$basic_string@DU?$char_traits@D@std@@V?$allocator@D@2@@std@@V12@U?$less@V?$basic_string@DU?$char_traits@D@std@@V?$allocator@D@2@@std@@@2@V?$allocator@U?$pair@$$CBV?$basic_string@DU?$char_traits@D@std@@V?$allocator@D@2@@std@@V12@@std@@@2@@2@@2@@Z 0044d4e0 f i sockets:ResolvSocket.obj
 0001:0004d080       ?lower_bound@?$_Tree@V?$_Tmap_traits@V?$basic_string@DU?$char_traits@D@std@@V?$allocator@D@2@@std@@V?$map@V?$basic_string@DU?$char_traits@D@std@@V?$allocator@D@2@@std@@V12@U?$less@V?$basic_string@DU?$char_traits@D@std@@V?$allocator@D@2@@std@@@2@V?$allocator@U?$pair@$$CBV?$basic_string@DU?$char_traits@D@std@@V?$allocator@D@2@@std@@V12@@std@@@2@@2@U?$less@V?$basic_string@DU?$char_traits@D@std@@V?$allocator@D@2@@std@@@2@V?$allocator@U?$pair@$$CBV?$basic_string@DU?$char_traits@D@std@@V?$allocator@D@2@@std@@V?$map@V?$basic_string@DU?$char_traits@D@std@@V?$allocator@D@2@@std@@V12@U?$less@V?$basic_string@DU?$char_traits@D@std@@V?$allocator@D@2@@std@@@2@V?$allocator@U?$pair@$$CBV?$basic_string@DU?$char_traits@D@std@@V?$allocator@D@2@@std@@V12@@std@@@2@@2@@std@@@2@$0A@@std@@@std@@QAE?AViterator@12@ABV?$basic_string@DU?$char_traits@D@std@@V?$allocator@D@2@@2@@Z 0044e080 f i sockets:ResolvSocket.obj
 0001:0004d0e0       ?_Key@?$_Tree@V?$_Tmap_traits@V?$basic_string@DU?$char_traits@D@std@@V?$allocator@D@2@@std@@V?$map@V?$basic_string@DU?$char_traits@D@std@@V?$allocator@D@2@@std@@_JU?$less@V?$basic_string@DU?$char_traits@D@std@@V?$allocator@D@2@@std@@@2@V?$allocator@U?$pair@$$CBV?$basic_string@DU?$char_traits@D@std@@V?$allocator@D@2@@std@@_J@std@@@2@@2@U?$less@V?$basic_string@DU?$char_traits@D@std@@V?$allocator@D@2@@std@@@2@V?$allocator@U?$pair@$$CBV?$basic_string@DU?$char_traits@D@std@@V?$allocator@D@2@@std@@V?$map@V?$basic_string@DU?$char_traits@D@std@@V?$allocator@D@2@@std@@_JU?$less@V?$basic_string@DU?$char_traits@D@std@@V?$allocator@D@2@@std@@@2@V?$allocator@U?$pair@$$CBV?$basic_string@DU?$char_traits@D@std@@V?$allocator@D@2@@std@@_J@std@@@2@@2@@std@@@2@$0A@@std@@@std@@KAABV?$basic_string@DU?$char_traits@D@std@@V?$allocator@D@2@@2@PAU_Node@?$_Tree_nod@V?$_Tmap_traits@V?$basic_string@DU?$char_traits@D@std@@V?$allocator@D@2@@std@@V?$map@V?$basic_string@DU?$char_traits@D@std@@V?$allocator@D@2@@std@@_JU?$less@V?$basic_string@DU?$char_traits@D@std@@V?$allocator@D@2@@std@@@2@V?$allocator@U?$pair@$$CBV?$basic_string@DU?$char_traits@D@std@@V?$allocator@D@2@@std@@_J@std@@@2@@2@U?$less@V?$basic_string@DU?$char_traits@D@std@@V?$allocator@D@2@@std@@@2@V?$allocator@U?$pair@$$CBV?$basic_string@DU?$char_traits@D@std@@V?$allocator@D@2@@std@@V?$map@V?$basic_string@DU?$char_traits@D@std@@V?$allocator@D@2@@std@@_JU?$less@V?$basic_string@DU?$char_traits@D@std@@V?$allocator@D@2@@std@@@2@V?$allocator@U?$pair@$$CBV?$basic_string@DU?$char_traits@D@std@@V?$allocator@D@2@@std@@_J@std@@@2@@2@@std@@@2@$0A@@std@@@2@@Z 0044e0e0 f i sockets:ResolvSocket.obj
 0001:0004d110       ?end@?$_Tree@V?$_Tmap_traits@V?$basic_string@DU?$char_traits@D@std@@V?$allocator@D@2@@std@@V?$map@V?$basic_string@DU?$char_traits@D@std@@V?$allocator@D@2@@std@@_JU?$less@V?$basic_string@DU?$char_traits@D@std@@V?$allocator@D@2@@std@@@2@V?$allocator@U?$pair@$$CBV?$basic_string@DU?$char_traits@D@std@@V?$allocator@D@2@@std@@_J@std@@@2@@2@U?$less@V?$basic_string@DU?$char_traits@D@std@@V?$allocator@D@2@@std@@@2@V?$allocator@U?$pair@$$CBV?$basic_string@DU?$char_traits@D@std@@V?$allocator@D@2@@std@@V?$map@V?$basic_string@DU?$char_traits@D@std@@V?$allocator@D@2@@std@@_JU?$less@V?$basic_string@DU?$char_traits@D@std@@V?$allocator@D@2@@std@@@2@V?$allocator@U?$pair@$$CBV?$basic_string@DU?$char_traits@D@std@@V?$allocator@D@2@@std@@_J@std@@@2@@2@@std@@@2@$0A@@std@@@std@@QAE?AViterator@12@XZ 0044e110 f i sockets:ResolvSocket.obj
 0001:0004d160       ?insert@?$_Tree@V?$_Tmap_traits@V?$basic_string@DU?$char_traits@D@std@@V?$allocator@D@2@@std@@V?$map@V?$basic_string@DU?$char_traits@D@std@@V?$allocator@D@2@@std@@_JU?$less@V?$basic_string@DU?$char_traits@D@std@@V?$allocator@D@2@@std@@@2@V?$allocator@U?$pair@$$CBV?$basic_string@DU?$char_traits@D@std@@V?$allocator@D@2@@std@@_J@std@@@2@@2@U?$less@V?$basic_string@DU?$char_traits@D@std@@V?$allocator@D@2@@std@@@2@V?$allocator@U?$pair@$$CBV?$basic_string@DU?$char_traits@D@std@@V?$allocator@D@2@@std@@V?$map@V?$basic_string@DU?$char_traits@D@std@@V?$allocator@D@2@@std@@_JU?$less@V?$basic_string@DU?$char_traits@D@std@@V?$allocator@D@2@@std@@@2@V?$allocator@U?$pair@$$CBV?$basic_string@DU?$char_traits@D@std@@V?$allocator@D@2@@std@@_J@std@@@2@@2@@std@@@2@$0A@@std@@@std@@QAE?AViterator@12@Vconst_iterator@12@ABU?$pair@$$CBV?$basic_string@DU?$char_traits@D@std@@V?$allocator@D@2@@std@@V?$map@V?$basic_string@DU?$char_traits@D@std@@V?$allocator@D@2@@std@@_JU?$less@V?$basic_string@DU?$char_traits@D@std@@V?$allocator@D@2@@std@@@2@V?$allocator@U?$pair@$$CBV?$basic_string@DU?$char_traits@D@std@@V?$allocator@D@2@@std@@_J@std@@@2@@2@@2@@Z 0044e160 f i sockets:ResolvSocket.obj
 0001:0004dd00       ?lower_bound@?$_Tree@V?$_Tmap_traits@V?$basic_string@DU?$char_traits@D@std@@V?$allocator@D@2@@std@@V?$map@V?$basic_string@DU?$char_traits@D@std@@V?$allocator@D@2@@std@@_JU?$less@V?$basic_string@DU?$char_traits@D@std@@V?$allocator@D@2@@std@@@2@V?$allocator@U?$pair@$$CBV?$basic_string@DU?$char_traits@D@std@@V?$allocator@D@2@@std@@_J@std@@@2@@2@U?$less@V?$basic_string@DU?$char_traits@D@std@@V?$allocator@D@2@@std@@@2@V?$allocator@U?$pair@$$CBV?$basic_string@DU?$char_traits@D@std@@V?$allocator@D@2@@std@@V?$map@V?$basic_string@DU?$char_traits@D@std@@V?$allocator@D@2@@std@@_JU?$less@V?$basic_string@DU?$char_traits@D@std@@V?$allocator@D@2@@std@@@2@V?$allocator@U?$pair@$$CBV?$basic_string@DU?$char_traits@D@std@@V?$allocator@D@2@@std@@_J@std@@@2@@2@@std@@@2@$0A@@std@@@std@@QAE?AViterator@12@ABV?$basic_string@DU?$char_traits@D@std@@V?$allocator@D@2@@2@@Z 0044ed00 f i sockets:ResolvSocket.obj
 0001:0004dd60       ??0?$map@V?$basic_string@DU?$char_traits@D@std@@V?$allocator@D@2@@std@@V12@U?$less@V?$basic_string@DU?$char_traits@D@std@@V?$allocator@D@2@@std@@@2@V?$allocator@U?$pair@$$CBV?$basic_string@DU?$char_traits@D@std@@V?$allocator@D@2@@std@@V12@@std@@@2@@std@@QAE@XZ 0044ed60 f i sockets:ResolvSocket.obj
 0001:0004dda0       ?_Key@?$_Tree@V?$_Tmap_traits@V?$basic_string@DU?$char_traits@D@std@@V?$allocator@D@2@@std@@V12@U?$less@V?$basic_string@DU?$char_traits@D@std@@V?$allocator@D@2@@std@@@2@V?$allocator@U?$pair@$$CBV?$basic_string@DU?$char_traits@D@std@@V?$allocator@D@2@@std@@V12@@std@@@2@$0A@@std@@@std@@KAABV?$basic_string@DU?$char_traits@D@std@@V?$allocator@D@2@@2@PAU_Node@?$_Tree_nod@V?$_Tmap_traits@V?$basic_string@DU?$char_traits@D@std@@V?$allocator@D@2@@std@@V12@U?$less@V?$basic_string@DU?$char_traits@D@std@@V?$allocator@D@2@@std@@@2@V?$allocator@U?$pair@$$CBV?$basic_string@DU?$char_traits@D@std@@V?$allocator@D@2@@std@@V12@@std@@@2@$0A@@std@@@2@@Z 0044eda0 f i sockets:ResolvSocket.obj
 0001:0004ddd0       ??1?$_Tree@V?$_Tmap_traits@V?$basic_string@DU?$char_traits@D@std@@V?$allocator@D@2@@std@@V12@U?$less@V?$basic_string@DU?$char_traits@D@std@@V?$allocator@D@2@@std@@@2@V?$allocator@U?$pair@$$CBV?$basic_string@DU?$char_traits@D@std@@V?$allocator@D@2@@std@@V12@@std@@@2@$0A@@std@@@std@@QAE@XZ 0044edd0 f i sockets:ResolvSocket.obj
 0001:0004de40       ?insert@?$_Tree@V?$_Tmap_traits@V?$basic_string@DU?$char_traits@D@std@@V?$allocator@D@2@@std@@V12@U?$less@V?$basic_string@DU?$char_traits@D@std@@V?$allocator@D@2@@std@@@2@V?$allocator@U?$pair@$$CBV?$basic_string@DU?$char_traits@D@std@@V?$allocator@D@2@@std@@V12@@std@@@2@$0A@@std@@@std@@QAE?AViterator@12@Vconst_iterator@12@ABU?$pair@$$CBV?$basic_string@DU?$char_traits@D@std@@V?$allocator@D@2@@std@@V12@@2@@Z 0044ee40 f i sockets:ResolvSocket.obj
 0001:0004e9e0       ?lower_bound@?$_Tree@V?$_Tmap_traits@V?$basic_string@DU?$char_traits@D@std@@V?$allocator@D@2@@std@@V12@U?$less@V?$basic_string@DU?$char_traits@D@std@@V?$allocator@D@2@@std@@@2@V?$allocator@U?$pair@$$CBV?$basic_string@DU?$char_traits@D@std@@V?$allocator@D@2@@std@@V12@@std@@@2@$0A@@std@@@std@@QAE?AViterator@12@ABV?$basic_string@DU?$char_traits@D@std@@V?$allocator@D@2@@2@@Z 0044f9e0 f i sockets:ResolvSocket.obj
 0001:0004ea40       ??0iterator@?$_Tree@V?$_Tmap_traits@V?$basic_string@DU?$char_traits@D@std@@V?$allocator@D@2@@std@@V12@U?$less@V?$basic_string@DU?$char_traits@D@std@@V?$allocator@D@2@@std@@@2@V?$allocator@U?$pair@$$CBV?$basic_string@DU?$char_traits@D@std@@V?$allocator@D@2@@std@@V12@@std@@@2@$0A@@std@@@std@@QAE@PAU_Node@?$_Tree_nod@V?$_Tmap_traits@V?$basic_string@DU?$char_traits@D@std@@V?$allocator@D@2@@std@@V12@U?$less@V?$basic_string@DU?$char_traits@D@std@@V?$allocator@D@2@@std@@@2@V?$allocator@U?$pair@$$CBV?$basic_string@DU?$char_traits@D@std@@V?$allocator@D@2@@std@@V12@@std@@@2@$0A@@std@@@2@PBV12@@Z 0044fa40 f i sockets:ResolvSocket.obj
 0001:0004ea80       ??Diterator@?$_Tree@V?$_Tmap_traits@V?$basic_string@DU?$char_traits@D@std@@V?$allocator@D@2@@std@@V12@U?$less@V?$basic_string@DU?$char_traits@D@std@@V?$allocator@D@2@@std@@@2@V?$allocator@U?$pair@$$CBV?$basic_string@DU?$char_traits@D@std@@V?$allocator@D@2@@std@@V12@@std@@@2@$0A@@std@@@std@@QBEAAU?$pair@$$CBV?$basic_string@DU?$char_traits@D@std@@V?$allocator@D@2@@std@@V12@@2@XZ 0044fa80 f i sockets:ResolvSocket.obj
 0001:0004eab0       ??8const_iterator@?$_Tree@V?$_Tmap_traits@V?$basic_string@DU?$char_traits@D@std@@V?$allocator@D@2@@std@@V12@U?$less@V?$basic_string@DU?$char_traits@D@std@@V?$allocator@D@2@@std@@@2@V?$allocator@U?$pair@$$CBV?$basic_string@DU?$char_traits@D@std@@V?$allocator@D@2@@std@@V12@@std@@@2@$0A@@std@@@std@@QBE_NABV012@@Z 0044fab0 f i sockets:ResolvSocket.obj
 0001:0004eb70       ?_Mynode@const_iterator@?$_Tree@V?$_Tmap_traits@V?$basic_string@DU?$char_traits@D@std@@V?$allocator@D@2@@std@@V12@U?$less@V?$basic_string@DU?$char_traits@D@std@@V?$allocator@D@2@@std@@@2@V?$allocator@U?$pair@$$CBV?$basic_string@DU?$char_traits@D@std@@V?$allocator@D@2@@std@@V12@@std@@@2@$0A@@std@@@std@@QBEPAU_Node@?$_Tree_nod@V?$_Tmap_traits@V?$basic_string@DU?$char_traits@D@std@@V?$allocator@D@2@@std@@V12@U?$less@V?$basic_string@DU?$char_traits@D@std@@V?$allocator@D@2@@std@@@2@V?$allocator@U?$pair@$$CBV?$basic_string@DU?$char_traits@D@std@@V?$allocator@D@2@@std@@V12@@std@@@2@$0A@@std@@@3@XZ 0044fb70 f i sockets:ResolvSocket.obj
 0001:0004eb90       ??0?$map@V?$basic_string@DU?$char_traits@D@std@@V?$allocator@D@2@@std@@_JU?$less@V?$basic_string@DU?$char_traits@D@std@@V?$allocator@D@2@@std@@@2@V?$allocator@U?$pair@$$CBV?$basic_string@DU?$char_traits@D@std@@V?$allocator@D@2@@std@@_J@std@@@2@@std@@QAE@XZ 0044fb90 f i sockets:ResolvSocket.obj
 0001:0004ebd0       ?_Key@?$_Tree@V?$_Tmap_traits@V?$basic_string@DU?$char_traits@D@std@@V?$allocator@D@2@@std@@_JU?$less@V?$basic_string@DU?$char_traits@D@std@@V?$allocator@D@2@@std@@@2@V?$allocator@U?$pair@$$CBV?$basic_string@DU?$char_traits@D@std@@V?$allocator@D@2@@std@@_J@std@@@2@$0A@@std@@@std@@KAABV?$basic_string@DU?$char_traits@D@std@@V?$allocator@D@2@@2@PAU_Node@?$_Tree_nod@V?$_Tmap_traits@V?$basic_string@DU?$char_traits@D@std@@V?$allocator@D@2@@std@@_JU?$less@V?$basic_string@DU?$char_traits@D@std@@V?$allocator@D@2@@std@@@2@V?$allocator@U?$pair@$$CBV?$basic_string@DU?$char_traits@D@std@@V?$allocator@D@2@@std@@_J@std@@@2@$0A@@std@@@2@@Z 0044fbd0 f i sockets:ResolvSocket.obj
 0001:0004ec00       ??1?$_Tree@V?$_Tmap_traits@V?$basic_string@DU?$char_traits@D@std@@V?$allocator@D@2@@std@@_JU?$less@V?$basic_string@DU?$char_traits@D@std@@V?$allocator@D@2@@std@@@2@V?$allocator@U?$pair@$$CBV?$basic_string@DU?$char_traits@D@std@@V?$allocator@D@2@@std@@_J@std@@@2@$0A@@std@@@std@@QAE@XZ 0044fc00 f i sockets:ResolvSocket.obj
 0001:0004ec70       ?end@?$_Tree@V?$_Tmap_traits@V?$basic_string@DU?$char_traits@D@std@@V?$allocator@D@2@@std@@_JU?$less@V?$basic_string@DU?$char_traits@D@std@@V?$allocator@D@2@@std@@@2@V?$allocator@U?$pair@$$CBV?$basic_string@DU?$char_traits@D@std@@V?$allocator@D@2@@std@@_J@std@@@2@$0A@@std@@@std@@QAE?AViterator@12@XZ 0044fc70 f i sockets:ResolvSocket.obj
 0001:0004ecc0       ?insert@?$_Tree@V?$_Tmap_traits@V?$basic_string@DU?$char_traits@D@std@@V?$allocator@D@2@@std@@_JU?$less@V?$basic_string@DU?$char_traits@D@std@@V?$allocator@D@2@@std@@@2@V?$allocator@U?$pair@$$CBV?$basic_string@DU?$char_traits@D@std@@V?$allocator@D@2@@std@@_J@std@@@2@$0A@@std@@@std@@QAE?AViterator@12@Vconst_iterator@12@ABU?$pair@$$CBV?$basic_string@DU?$char_traits@D@std@@V?$allocator@D@2@@std@@_J@2@@Z 0044fcc0 f i sockets:ResolvSocket.obj
 0001:0004f860       ?lower_bound@?$_Tree@V?$_Tmap_traits@V?$basic_string@DU?$char_traits@D@std@@V?$allocator@D@2@@std@@_JU?$less@V?$basic_string@DU?$char_traits@D@std@@V?$allocator@D@2@@std@@@2@V?$allocator@U?$pair@$$CBV?$basic_string@DU?$char_traits@D@std@@V?$allocator@D@2@@std@@_J@std@@@2@$0A@@std@@@std@@QAE?AViterator@12@ABV?$basic_string@DU?$char_traits@D@std@@V?$allocator@D@2@@2@@Z 00450860 f i sockets:ResolvSocket.obj
 0001:0004f8c0       ??Diterator@?$_Tree@V?$_Tmap_traits@V?$basic_string@DU?$char_traits@D@std@@V?$allocator@D@2@@std@@V?$map@V?$basic_string@DU?$char_traits@D@std@@V?$allocator@D@2@@std@@V12@U?$less@V?$basic_string@DU?$char_traits@D@std@@V?$allocator@D@2@@std@@@2@V?$allocator@U?$pair@$$CBV?$basic_string@DU?$char_traits@D@std@@V?$allocator@D@2@@std@@V12@@std@@@2@@2@U?$less@V?$basic_string@DU?$char_traits@D@std@@V?$allocator@D@2@@std@@@2@V?$allocator@U?$pair@$$CBV?$basic_string@DU?$char_traits@D@std@@V?$allocator@D@2@@std@@V?$map@V?$basic_string@DU?$char_traits@D@std@@V?$allocator@D@2@@std@@V12@U?$less@V?$basic_string@DU?$char_traits@D@std@@V?$allocator@D@2@@std@@@2@V?$allocator@U?$pair@$$CBV?$basic_string@DU?$char_traits@D@std@@V?$allocator@D@2@@std@@V12@@std@@@2@@2@@std@@@2@$0A@@std@@@std@@QBEAAU?$pair@$$CBV?$basic_string@DU?$char_traits@D@std@@V?$allocator@D@2@@std@@V?$map@V?$basic_string@DU?$char_traits@D@std@@V?$allocator@D@2@@std@@V12@U?$less@V?$basic_string@DU?$char_traits@D@std@@V?$allocator@D@2@@std@@@2@V?$allocator@U?$pair@$$CBV?$basic_string@DU?$char_traits@D@std@@V?$allocator@D@2@@std@@V12@@std@@@2@@2@@2@XZ 004508c0 f i sockets:ResolvSocket.obj
 0001:0004f8f0       ??8const_iterator@?$_Tree@V?$_Tmap_traits@V?$basic_string@DU?$char_traits@D@std@@V?$allocator@D@2@@std@@V?$map@V?$basic_string@DU?$char_traits@D@std@@V?$allocator@D@2@@std@@V12@U?$less@V?$basic_string@DU?$char_traits@D@std@@V?$allocator@D@2@@std@@@2@V?$allocator@U?$pair@$$CBV?$basic_string@DU?$char_traits@D@std@@V?$allocator@D@2@@std@@V12@@std@@@2@@2@U?$less@V?$basic_string@DU?$char_traits@D@std@@V?$allocator@D@2@@std@@@2@V?$allocator@U?$pair@$$CBV?$basic_string@DU?$char_traits@D@std@@V?$allocator@D@2@@std@@V?$map@V?$basic_string@DU?$char_traits@D@std@@V?$allocator@D@2@@std@@V12@U?$less@V?$basic_string@DU?$char_traits@D@std@@V?$allocator@D@2@@std@@@2@V?$allocator@U?$pair@$$CBV?$basic_string@DU?$char_traits@D@std@@V?$allocator@D@2@@std@@V12@@std@@@2@@2@@std@@@2@$0A@@std@@@std@@QBE_NABV012@@Z 004508f0 f i sockets:ResolvSocket.obj
 0001:0004f9b0       ?_Mynode@const_iterator@?$_Tree@V?$_Tmap_traits@V?$basic_string@DU?$char_traits@D@std@@V?$allocator@D@2@@std@@V?$map@V?$basic_string@DU?$char_traits@D@std@@V?$allocator@D@2@@std@@V12@U?$less@V?$basic_string@DU?$char_traits@D@std@@V?$allocator@D@2@@std@@@2@V?$allocator@U?$pair@$$CBV?$basic_string@DU?$char_traits@D@std@@V?$allocator@D@2@@std@@V12@@std@@@2@@2@U?$less@V?$basic_string@DU?$char_traits@D@std@@V?$allocator@D@2@@std@@@2@V?$allocator@U?$pair@$$CBV?$basic_string@DU?$char_traits@D@std@@V?$allocator@D@2@@std@@V?$map@V?$basic_string@DU?$char_traits@D@std@@V?$allocator@D@2@@std@@V12@U?$less@V?$basic_string@DU?$char_traits@D@std@@V?$allocator@D@2@@std@@@2@V?$allocator@U?$pair@$$CBV?$basic_string@DU?$char_traits@D@std@@V?$allocator@D@2@@std@@V12@@std@@@2@@2@@std@@@2@$0A@@std@@@std@@QBEPAU_Node@?$_Tree_nod@V?$_Tmap_traits@V?$basic_string@DU?$char_traits@D@std@@V?$allocator@D@2@@std@@V?$map@V?$basic_string@DU?$char_traits@D@std@@V?$allocator@D@2@@std@@V12@U?$less@V?$basic_string@DU?$char_traits@D@std@@V?$allocator@D@2@@std@@@2@V?$allocator@U?$pair@$$CBV?$basic_string@DU?$char_traits@D@std@@V?$allocator@D@2@@std@@V12@@std@@@2@@2@U?$less@V?$basic_string@DU?$char_traits@D@std@@V?$allocator@D@2@@std@@@2@V?$allocator@U?$pair@$$CBV?$basic_string@DU?$char_traits@D@std@@V?$allocator@D@2@@std@@V?$map@V?$basic_string@DU?$char_traits@D@std@@V?$allocator@D@2@@std@@V12@U?$less@V?$basic_string@DU?$char_traits@D@std@@V?$allocator@D@2@@std@@@2@V?$allocator@U?$pair@$$CBV?$basic_string@DU?$char_traits@D@std@@V?$allocator@D@2@@std@@V12@@std@@@2@@2@@std@@@2@$0A@@std@@@3@XZ 004509b0 f i sockets:ResolvSocket.obj
 0001:0004f9d0       ??0?$pair@$$CBV?$basic_string@DU?$char_traits@D@std@@V?$allocator@D@2@@std@@V?$map@V?$basic_string@DU?$char_traits@D@std@@V?$allocator@D@2@@std@@V12@U?$less@V?$basic_string@DU?$char_traits@D@std@@V?$allocator@D@2@@std@@@2@V?$allocator@U?$pair@$$CBV?$basic_string@DU?$char_traits@D@std@@V?$allocator@D@2@@std@@V12@@std@@@2@@2@@std@@QAE@ABV?$basic_string@DU?$char_traits@D@std@@V?$allocator@D@2@@1@ABV?$map@V?$basic_string@DU?$char_traits@D@std@@V?$allocator@D@2@@std@@V12@U?$less@V?$basic_string@DU?$char_traits@D@std@@V?$allocator@D@2@@std@@@2@V?$allocator@U?$pair@$$CBV?$basic_string@DU?$char_traits@D@std@@V?$allocator@D@2@@std@@V12@@std@@@2@@1@@Z 004509d0 f i sockets:ResolvSocket.obj
 0001:0004fa50       ??Diterator@?$_Tree@V?$_Tmap_traits@V?$basic_string@DU?$char_traits@D@std@@V?$allocator@D@2@@std@@V?$map@V?$basic_string@DU?$char_traits@D@std@@V?$allocator@D@2@@std@@_JU?$less@V?$basic_string@DU?$char_traits@D@std@@V?$allocator@D@2@@std@@@2@V?$allocator@U?$pair@$$CBV?$basic_string@DU?$char_traits@D@std@@V?$allocator@D@2@@std@@_J@std@@@2@@2@U?$less@V?$basic_string@DU?$char_traits@D@std@@V?$allocator@D@2@@std@@@2@V?$allocator@U?$pair@$$CBV?$basic_string@DU?$char_traits@D@std@@V?$allocator@D@2@@std@@V?$map@V?$basic_string@DU?$char_traits@D@std@@V?$allocator@D@2@@std@@_JU?$less@V?$basic_string@DU?$char_traits@D@std@@V?$allocator@D@2@@std@@@2@V?$allocator@U?$pair@$$CBV?$basic_string@DU?$char_traits@D@std@@V?$allocator@D@2@@std@@_J@std@@@2@@2@@std@@@2@$0A@@std@@@std@@QBEAAU?$pair@$$CBV?$basic_string@DU?$char_traits@D@std@@V?$allocator@D@2@@std@@V?$map@V?$basic_string@DU?$char_traits@D@std@@V?$allocator@D@2@@std@@_JU?$less@V?$basic_string@DU?$char_traits@D@std@@V?$allocator@D@2@@std@@@2@V?$allocator@U?$pair@$$CBV?$basic_string@DU?$char_traits@D@std@@V?$allocator@D@2@@std@@_J@std@@@2@@2@@2@XZ 00450a50 f i sockets:ResolvSocket.obj
 0001:0004fa80       ??8const_iterator@?$_Tree@V?$_Tmap_traits@V?$basic_string@DU?$char_traits@D@std@@V?$allocator@D@2@@std@@V?$map@V?$basic_string@DU?$char_traits@D@std@@V?$allocator@D@2@@std@@_JU?$less@V?$basic_string@DU?$char_traits@D@std@@V?$allocator@D@2@@std@@@2@V?$allocator@U?$pair@$$CBV?$basic_string@DU?$char_traits@D@std@@V?$allocator@D@2@@std@@_J@std@@@2@@2@U?$less@V?$basic_string@DU?$char_traits@D@std@@V?$allocator@D@2@@std@@@2@V?$allocator@U?$pair@$$CBV?$basic_string@DU?$char_traits@D@std@@V?$allocator@D@2@@std@@V?$map@V?$basic_string@DU?$char_traits@D@std@@V?$allocator@D@2@@std@@_JU?$less@V?$basic_string@DU?$char_traits@D@std@@V?$allocator@D@2@@std@@@2@V?$allocator@U?$pair@$$CBV?$basic_string@DU?$char_traits@D@std@@V?$allocator@D@2@@std@@_J@std@@@2@@2@@std@@@2@$0A@@std@@@std@@QBE_NABV012@@Z 00450a80 f i sockets:ResolvSocket.obj
